
/media/D/linux-share/projects/trustzone/client/build/client.elf:     file format elf32-littlearm
/media/D/linux-share/projects/trustzone/client/build/client.elf

Sections:
Idx Name          Size      VMA       LMA       File off  Algn
  0 .text         0000214c  70008000  70008000  00008000  2**4
                  CONTENTS, ALLOC, LOAD, READONLY, CODE
  1 .data         00000120  7000a14c  7000a14c  0000a14c  2**2
                  CONTENTS, ALLOC, LOAD, DATA
  2 .bss          00026200  7000a26c  7000a26c  0000a26c  2**2
                  ALLOC
  3 .ARM.attributes 00000033  00000000  00000000  0000a26c  2**0
                  CONTENTS, READONLY
  4 .comment      0000001b  00000000  00000000  0000a29f  2**0
                  CONTENTS, READONLY
  5 .debug_line   000008d6  00000000  00000000  0000a2ba  2**0
                  CONTENTS, READONLY, DEBUGGING
  6 .debug_info   000015e0  00000000  00000000  0000ab90  2**0
                  CONTENTS, READONLY, DEBUGGING
  7 .debug_abbrev 00000754  00000000  00000000  0000c170  2**0
                  CONTENTS, READONLY, DEBUGGING
  8 .debug_aranges 000000e0  00000000  00000000  0000c8c8  2**3
                  CONTENTS, READONLY, DEBUGGING
  9 .debug_loc    000005e4  00000000  00000000  0000c9a8  2**0
                  CONTENTS, READONLY, DEBUGGING
 10 .debug_pubnames 00000306  00000000  00000000  0000cf8c  2**0
                  CONTENTS, READONLY, DEBUGGING
 11 .debug_pubtypes 000002a1  00000000  00000000  0000d292  2**0
                  CONTENTS, READONLY, DEBUGGING
 12 .debug_str    0000095f  00000000  00000000  0000d533  2**0
                  CONTENTS, READONLY, DEBUGGING
 13 .debug_frame  00000404  00000000  00000000  0000de94  2**2
                  CONTENTS, READONLY, DEBUGGING
SYMBOL TABLE:
70008000 l    d  .text	00000000 .text
7000a14c l    d  .data	00000000 .data
7000a26c l    d  .bss	00000000 .bss
00000000 l    d  .ARM.attributes	00000000 .ARM.attributes
00000000 l    d  .comment	00000000 .comment
00000000 l    d  .debug_line	00000000 .debug_line
00000000 l    d  .debug_info	00000000 .debug_info
00000000 l    d  .debug_abbrev	00000000 .debug_abbrev
00000000 l    d  .debug_aranges	00000000 .debug_aranges
00000000 l    d  .debug_loc	00000000 .debug_loc
00000000 l    d  .debug_pubnames	00000000 .debug_pubnames
00000000 l    d  .debug_pubtypes	00000000 .debug_pubtypes
00000000 l    d  .debug_str	00000000 .debug_str
00000000 l    d  .debug_frame	00000000 .debug_frame
70008004 l       .text	00000000 _start_1
00000000 l    df *ABS*	00000000 main.c
00000000 l    df *ABS*	00000000 uart.c
70008494 l     F .text	00000074 get_uart_base_addr
00000000 l    df *ABS*	00000000 mem_mng.c
00000000 l    df *ABS*	00000000 kernel_layer.c
7000a15c l     O .data	00000010 client_uuid
70008b1c l     F .text	00000054 CallTZFunction
00000000 l    df *ABS*	00000000 ctype.c
00000000 l    df *ABS*	00000000 vsprintf.c
00000000 l    df *ABS*	00000000 div.c
70009820 l     F .text	00000050 is_power_of2
70009870 l     F .text	00000070 get_power_of2
7000996c l     F .text	000000d8 __aeabi_uidiv_recursive
70009bfc l     F .text	00000190 __aeabi_uldivmod_recursive
70009d8c l     F .text	000000d8 __aeabi_idivmod_recursive
7000a14c g     O .data	00000010 task_string_uuid
7003046c g       *ABS*	00000000 _TZ_BSS_END
70008644 g     F .text	00000064 MallocInit
70008ee0 g     F .text	0000009c Client_Printf
70008f7c g     F .text	000008a4 sw_vsprintf
70008410 g     F .text	00000040 read_uart
70008a14 g     F .text	0000009c Client_StrCopy
7001026c g     O .bss	00010000 kernel_mem
70008000 g       *ABS*	00000000 PHY_OFFSET
70040000 g       *ABS*	00000000 _CLIENT_START
7000a26c g     O .bss	00001000 g_stack_abt
700080f4 g     F .text	000000bc PrintUUID
70009a44 g     F .text	000001b8 __aeabi_uldivmod
7000b26c g     O .bss	00001000 g_stack_svc
7002026c g     O .bss	00000100 user_mem_flag
70040000 g       *ABS*	00000000 _TZ_CODE_END
7000c26c g     O .bss	00001000 g_stack_fiq
7000a14c g       *ABS*	00000000 _TZ_DATA_START
70008000 g       *ABS*	00000000 _TZ_CODE_START
7002036c g     O .bss	00000100 kernel_mem_flag
7000d26c g     O .bss	00001000 g_stack_undef
700087e8 g     F .text	00000078 UserFree
7000a26c g       *ABS*	00000000 _TZ_BSS_START
70008b70 g     F .text	00000128 OpenSession
70040000 g       *ABS*	00000000 _CLIENT_END
70008000 g       .text	00000000 _start
70008748 g     F .text	000000a0 KernelMalloc
70008000 g       *ABS*	00000000 _TZ_TEXT_START
70008450 g     F .text	00000044 write_uart
7000a26c g       *ABS*	00000000 _TZ_DATA_END
7000a16c g     O .data	00000100 _ctype
700081b0 g     F .text	00000260 main
700098e0 g     F .text	0000008c __aeabi_uidiv
70008994 g     F .text	00000080 Client_StrLen
7000a14c g       *ABS*	00000000 _TZ_TEXT_END
700088d8 g     F .text	000000bc MemMove
700085b8 g     F .text	0000008c pl011_uart_init
70008c98 g     F .text	00000080 CloseSession
70008060 g     F .text	00000094 Delay
7000e26c g     O .bss	00001000 g_stack_irq
70008860 g     F .text	00000078 KernelFree
70009ee8 g     F .text	00000084 __aeabi_uidivmod
70008e60 g     F .text	00000080 TEE_StrLen
70008508 g     F .text	00000050 pl011_uart_putc
7000f26c g     O .bss	00001000 g_stack_sys
70008d18 g     F .text	00000148 InvokeSessionCommand
700086a8 g     F .text	000000a0 UserMalloc
70008ab0 g     F .text	0000006c Client_MemFill
70008558 g     F .text	00000060 pl011_uart_puts
7002046c g     O .bss	00010000 user_mem
70009e64 g     F .text	00000084 __aeabi_idivmod



Disassembly of section .text:

70008000 <_start>:
_start():
/media/D/linux-share/projects/trustzone/client/src/arch/start.S:8
70008000:	eaffffff 	b	70008004 <_start_1>

70008004 <_start_1>:
_start_1():
/media/D/linux-share/projects/trustzone/client/src/arch/start.S:11
70008004:	f1020013 	cps	#19
/media/D/linux-share/projects/trustzone/client/src/arch/start.S:12
70008008:	e59fd02c 	ldr	sp, [pc, #44]	; 7000803c <_start_1+0x38>
/media/D/linux-share/projects/trustzone/client/src/arch/start.S:14
7000800c:	f102001f 	cps	#31
/media/D/linux-share/projects/trustzone/client/src/arch/start.S:15
70008010:	e59fd028 	ldr	sp, [pc, #40]	; 70008040 <_start_1+0x3c>
/media/D/linux-share/projects/trustzone/client/src/arch/start.S:17
70008014:	f1020011 	cps	#17
/media/D/linux-share/projects/trustzone/client/src/arch/start.S:18
70008018:	e59fd024 	ldr	sp, [pc, #36]	; 70008044 <_start_1+0x40>
/media/D/linux-share/projects/trustzone/client/src/arch/start.S:20
7000801c:	f1020012 	cps	#18
/media/D/linux-share/projects/trustzone/client/src/arch/start.S:21
70008020:	e59fd020 	ldr	sp, [pc, #32]	; 70008048 <_start_1+0x44>
/media/D/linux-share/projects/trustzone/client/src/arch/start.S:24
70008024:	f1020017 	cps	#23
/media/D/linux-share/projects/trustzone/client/src/arch/start.S:25
70008028:	e59fd01c 	ldr	sp, [pc, #28]	; 7000804c <_start_1+0x48>
/media/D/linux-share/projects/trustzone/client/src/arch/start.S:28
7000802c:	f102001b 	cps	#27
/media/D/linux-share/projects/trustzone/client/src/arch/start.S:29
70008030:	e59fd018 	ldr	sp, [pc, #24]	; 70008050 <_start_1+0x4c>
/media/D/linux-share/projects/trustzone/client/src/arch/start.S:31
70008034:	f102001f 	cps	#31
/media/D/linux-share/projects/trustzone/client/src/arch/start.S:33
70008038:	ea00005c 	b	700081b0 <main>
7000803c:	7000b26c 	andvc	fp, r0, ip, ror #4
70008040:	7000f26c 	andvc	pc, r0, ip, ror #4
70008044:	7000c26c 	andvc	ip, r0, ip, ror #4
70008048:	7000e26c 	andvc	lr, r0, ip, ror #4
7000804c:	7000a26c 	andvc	sl, r0, ip, ror #4
70008050:	7000d26c 	andvc	sp, r0, ip, ror #4
70008054:	e320f000 	nop	{0}
70008058:	e320f000 	nop	{0}
7000805c:	e320f000 	nop	{0}

70008060 <Delay>:
Delay():
/media/D/linux-share/projects/trustzone/client/src/board/main.c:25
70008060:	e52db004 	push	{fp}		; (str fp, [sp, #-4]!)
70008064:	e28db000 	add	fp, sp, #0
70008068:	e24dd01c 	sub	sp, sp, #28
7000806c:	e50b0018 	str	r0, [fp, #-24]
/media/D/linux-share/projects/trustzone/client/src/board/main.c:27
70008070:	e3a03000 	mov	r3, #0
70008074:	e50b3008 	str	r3, [fp, #-8]
70008078:	ea000016 	b	700080d8 <Delay+0x78>
/media/D/linux-share/projects/trustzone/client/src/board/main.c:28
7000807c:	e3a03000 	mov	r3, #0
70008080:	e50b300c 	str	r3, [fp, #-12]
70008084:	ea00000c 	b	700080bc <Delay+0x5c>
/media/D/linux-share/projects/trustzone/client/src/board/main.c:29
70008088:	e3a03000 	mov	r3, #0
7000808c:	e50b3010 	str	r3, [fp, #-16]
70008090:	ea000002 	b	700080a0 <Delay+0x40>
70008094:	e51b3010 	ldr	r3, [fp, #-16]
70008098:	e2833001 	add	r3, r3, #1
7000809c:	e50b3010 	str	r3, [fp, #-16]
700080a0:	e51b2010 	ldr	r2, [fp, #-16]
700080a4:	e3003ffe 	movw	r3, #4094	; 0xffe
700080a8:	e1520003 	cmp	r2, r3
700080ac:	9afffff8 	bls	70008094 <Delay+0x34>
/media/D/linux-share/projects/trustzone/client/src/board/main.c:28
700080b0:	e51b300c 	ldr	r3, [fp, #-12]
700080b4:	e2833001 	add	r3, r3, #1
700080b8:	e50b300c 	str	r3, [fp, #-12]
700080bc:	e51b200c 	ldr	r2, [fp, #-12]
700080c0:	e3003ffe 	movw	r3, #4094	; 0xffe
700080c4:	e1520003 	cmp	r2, r3
700080c8:	9affffee 	bls	70008088 <Delay+0x28>
/media/D/linux-share/projects/trustzone/client/src/board/main.c:27
700080cc:	e51b3008 	ldr	r3, [fp, #-8]
700080d0:	e2833001 	add	r3, r3, #1
700080d4:	e50b3008 	str	r3, [fp, #-8]
700080d8:	e51b2018 	ldr	r2, [fp, #-24]
700080dc:	e51b3008 	ldr	r3, [fp, #-8]
700080e0:	e1520003 	cmp	r2, r3
700080e4:	1affffe4 	bne	7000807c <Delay+0x1c>
/media/D/linux-share/projects/trustzone/client/src/board/main.c:33
700080e8:	e28bd000 	add	sp, fp, #0
700080ec:	e8bd0800 	pop	{fp}
700080f0:	e12fff1e 	bx	lr

700080f4 <PrintUUID>:
PrintUUID():
/media/D/linux-share/projects/trustzone/client/src/board/main.c:36
700080f4:	e92d49f0 	push	{r4, r5, r6, r7, r8, fp, lr}
700080f8:	e28db018 	add	fp, sp, #24
700080fc:	e24dd02c 	sub	sp, sp, #44	; 0x2c
70008100:	e50b0020 	str	r0, [fp, #-32]
/media/D/linux-share/projects/trustzone/client/src/board/main.c:38
70008104:	e51b3020 	ldr	r3, [fp, #-32]
/media/D/linux-share/projects/trustzone/client/src/board/main.c:37
70008108:	e5931000 	ldr	r1, [r3]
/media/D/linux-share/projects/trustzone/client/src/board/main.c:39
7000810c:	e51b3020 	ldr	r3, [fp, #-32]
70008110:	e1d330b4 	ldrh	r3, [r3, #4]
/media/D/linux-share/projects/trustzone/client/src/board/main.c:37
70008114:	e1a02003 	mov	r2, r3
/media/D/linux-share/projects/trustzone/client/src/board/main.c:40
70008118:	e51b3020 	ldr	r3, [fp, #-32]
7000811c:	e1d330b6 	ldrh	r3, [r3, #6]
/media/D/linux-share/projects/trustzone/client/src/board/main.c:41
70008120:	e51b0020 	ldr	r0, [fp, #-32]
70008124:	e5d00008 	ldrb	r0, [r0, #8]
/media/D/linux-share/projects/trustzone/client/src/board/main.c:37
70008128:	e1a08000 	mov	r8, r0
/media/D/linux-share/projects/trustzone/client/src/board/main.c:42
7000812c:	e51b0020 	ldr	r0, [fp, #-32]
70008130:	e5d00009 	ldrb	r0, [r0, #9]
/media/D/linux-share/projects/trustzone/client/src/board/main.c:37
70008134:	e1a07000 	mov	r7, r0
/media/D/linux-share/projects/trustzone/client/src/board/main.c:43
70008138:	e51b0020 	ldr	r0, [fp, #-32]
7000813c:	e5d0000a 	ldrb	r0, [r0, #10]
/media/D/linux-share/projects/trustzone/client/src/board/main.c:37
70008140:	e1a06000 	mov	r6, r0
/media/D/linux-share/projects/trustzone/client/src/board/main.c:44
70008144:	e51b0020 	ldr	r0, [fp, #-32]
70008148:	e5d0000b 	ldrb	r0, [r0, #11]
/media/D/linux-share/projects/trustzone/client/src/board/main.c:37
7000814c:	e1a05000 	mov	r5, r0
/media/D/linux-share/projects/trustzone/client/src/board/main.c:45
70008150:	e51b0020 	ldr	r0, [fp, #-32]
70008154:	e5d0000c 	ldrb	r0, [r0, #12]
/media/D/linux-share/projects/trustzone/client/src/board/main.c:37
70008158:	e1a04000 	mov	r4, r0
/media/D/linux-share/projects/trustzone/client/src/board/main.c:46
7000815c:	e51b0020 	ldr	r0, [fp, #-32]
70008160:	e5d0000d 	ldrb	r0, [r0, #13]
/media/D/linux-share/projects/trustzone/client/src/board/main.c:37
70008164:	e1a0e000 	mov	lr, r0
/media/D/linux-share/projects/trustzone/client/src/board/main.c:47
70008168:	e51b0020 	ldr	r0, [fp, #-32]
7000816c:	e5d0000e 	ldrb	r0, [r0, #14]
/media/D/linux-share/projects/trustzone/client/src/board/main.c:37
70008170:	e1a0c000 	mov	ip, r0
/media/D/linux-share/projects/trustzone/client/src/board/main.c:48
70008174:	e51b0020 	ldr	r0, [fp, #-32]
70008178:	e5d0000f 	ldrb	r0, [r0, #15]
/media/D/linux-share/projects/trustzone/client/src/board/main.c:37
7000817c:	e58d8000 	str	r8, [sp]
70008180:	e58d7004 	str	r7, [sp, #4]
70008184:	e58d6008 	str	r6, [sp, #8]
70008188:	e58d500c 	str	r5, [sp, #12]
7000818c:	e58d4010 	str	r4, [sp, #16]
70008190:	e58de014 	str	lr, [sp, #20]
70008194:	e58dc018 	str	ip, [sp, #24]
70008198:	e58d001c 	str	r0, [sp, #28]
7000819c:	e3090f6c 	movw	r0, #40812	; 0x9f6c
700081a0:	e3470000 	movt	r0, #28672	; 0x7000
700081a4:	eb00034d 	bl	70008ee0 <Client_Printf>
/media/D/linux-share/projects/trustzone/client/src/board/main.c:49
700081a8:	e24bd018 	sub	sp, fp, #24
700081ac:	e8bd89f0 	pop	{r4, r5, r6, r7, r8, fp, pc}

700081b0 <main>:
main():
/media/D/linux-share/projects/trustzone/client/src/board/main.c:53
700081b0:	e92d4800 	push	{fp, lr}
700081b4:	e28db004 	add	fp, sp, #4
700081b8:	e24dd040 	sub	sp, sp, #64	; 0x40
/media/D/linux-share/projects/trustzone/client/src/board/main.c:54
700081bc:	e3e03000 	mvn	r3, #0
700081c0:	e50b3008 	str	r3, [fp, #-8]
/media/D/linux-share/projects/trustzone/client/src/board/main.c:57
700081c4:	e3a03000 	mov	r3, #0
700081c8:	e50b300c 	str	r3, [fp, #-12]
/media/D/linux-share/projects/trustzone/client/src/board/main.c:59
700081cc:	eb00011c 	bl	70008644 <MallocInit>
/media/D/linux-share/projects/trustzone/client/src/board/main.c:60
700081d0:	e3a00000 	mov	r0, #0
700081d4:	eb0000f7 	bl	700085b8 <pl011_uart_init>
/media/D/linux-share/projects/trustzone/client/src/board/main.c:62
700081d8:	e3a00064 	mov	r0, #100	; 0x64
700081dc:	eb000131 	bl	700086a8 <UserMalloc>
700081e0:	e1a03000 	mov	r3, r0
700081e4:	e50b300c 	str	r3, [fp, #-12]
/media/D/linux-share/projects/trustzone/client/src/board/main.c:70
700081e8:	e3a00001 	mov	r0, #1
700081ec:	ebffff9b 	bl	70008060 <Delay>
/media/D/linux-share/projects/trustzone/client/src/board/main.c:71
700081f0:	e3090f88 	movw	r0, #40840	; 0x9f88
700081f4:	e3470000 	movt	r0, #28672	; 0x7000
700081f8:	e51b1008 	ldr	r1, [fp, #-8]
700081fc:	eb000337 	bl	70008ee0 <Client_Printf>
/media/D/linux-share/projects/trustzone/client/src/board/main.c:72
70008200:	e3a00010 	mov	r0, #16
70008204:	eb000127 	bl	700086a8 <UserMalloc>
70008208:	e1a03000 	mov	r3, r0
7000820c:	e50b3030 	str	r3, [fp, #-48]	; 0x30
/media/D/linux-share/projects/trustzone/client/src/board/main.c:73
70008210:	e3a03010 	mov	r3, #16
70008214:	e50b302c 	str	r3, [fp, #-44]	; 0x2c
/media/D/linux-share/projects/trustzone/client/src/board/main.c:74
70008218:	e51b3030 	ldr	r3, [fp, #-48]	; 0x30
7000821c:	e1a00003 	mov	r0, r3
70008220:	e30a114c 	movw	r1, #41292	; 0xa14c
70008224:	e3471000 	movt	r1, #28672	; 0x7000
70008228:	e3a02010 	mov	r2, #16
7000822c:	eb0001a9 	bl	700088d8 <MemMove>
/media/D/linux-share/projects/trustzone/client/src/board/main.c:75
70008230:	e3a03005 	mov	r3, #5
70008234:	e50b3010 	str	r3, [fp, #-16]
/media/D/linux-share/projects/trustzone/client/src/board/main.c:79
70008238:	e24b2030 	sub	r2, fp, #48	; 0x30
7000823c:	e24b3044 	sub	r3, fp, #68	; 0x44
70008240:	e1a00002 	mov	r0, r2
70008244:	e1a01003 	mov	r1, r3
70008248:	e51b2010 	ldr	r2, [fp, #-16]
7000824c:	eb000247 	bl	70008b70 <OpenSession>
70008250:	e50b0008 	str	r0, [fp, #-8]
/media/D/linux-share/projects/trustzone/client/src/board/main.c:80
70008254:	e51b3008 	ldr	r3, [fp, #-8]
70008258:	e3530000 	cmp	r3, #0
7000825c:	0a000003 	beq	70008270 <main+0xc0>
/media/D/linux-share/projects/trustzone/client/src/board/main.c:81
70008260:	e3090f98 	movw	r0, #40856	; 0x9f98
70008264:	e3470000 	movt	r0, #28672	; 0x7000
70008268:	eb00031c 	bl	70008ee0 <Client_Printf>
/media/D/linux-share/projects/trustzone/client/src/board/main.c:82
7000826c:	eafffffe 	b	7000826c <main+0xbc>
/media/D/linux-share/projects/trustzone/client/src/board/main.c:85
70008270:	e3090fb0 	movw	r0, #40880	; 0x9fb0
70008274:	e3470000 	movt	r0, #28672	; 0x7000
70008278:	eb000318 	bl	70008ee0 <Client_Printf>
/media/D/linux-share/projects/trustzone/client/src/board/main.c:86
7000827c:	e3090fcc 	movw	r0, #40908	; 0x9fcc
70008280:	e3470000 	movt	r0, #28672	; 0x7000
70008284:	eb000315 	bl	70008ee0 <Client_Printf>
/media/D/linux-share/projects/trustzone/client/src/board/main.c:87
70008288:	e24b3044 	sub	r3, fp, #68	; 0x44
7000828c:	e1a00003 	mov	r0, r3
70008290:	ebffff97 	bl	700080f4 <PrintUUID>
/media/D/linux-share/projects/trustzone/client/src/board/main.c:88
70008294:	e51b3034 	ldr	r3, [fp, #-52]	; 0x34
70008298:	e3090fe0 	movw	r0, #40928	; 0x9fe0
7000829c:	e3470000 	movt	r0, #28672	; 0x7000
700082a0:	e1a01003 	mov	r1, r3
700082a4:	eb00030d 	bl	70008ee0 <Client_Printf>
/media/D/linux-share/projects/trustzone/client/src/board/main.c:91
700082a8:	e24b3030 	sub	r3, fp, #48	; 0x30
700082ac:	e1a00003 	mov	r0, r3
700082b0:	e3a01000 	mov	r1, #0
700082b4:	e3a02020 	mov	r2, #32
700082b8:	eb0001fc 	bl	70008ab0 <Client_MemFill>
/media/D/linux-share/projects/trustzone/client/src/board/main.c:92
700082bc:	e51b000c 	ldr	r0, [fp, #-12]
700082c0:	e3091ff8 	movw	r1, #40952	; 0x9ff8
700082c4:	e3471000 	movt	r1, #28672	; 0x7000
700082c8:	eb0001d1 	bl	70008a14 <Client_StrCopy>
/media/D/linux-share/projects/trustzone/client/src/board/main.c:93
700082cc:	e30a0004 	movw	r0, #40964	; 0xa004
700082d0:	e3470000 	movt	r0, #28672	; 0x7000
700082d4:	e51b100c 	ldr	r1, [fp, #-12]
700082d8:	eb000300 	bl	70008ee0 <Client_Printf>
/media/D/linux-share/projects/trustzone/client/src/board/main.c:94
700082dc:	e51b300c 	ldr	r3, [fp, #-12]
700082e0:	e50b3030 	str	r3, [fp, #-48]	; 0x30
/media/D/linux-share/projects/trustzone/client/src/board/main.c:95
700082e4:	e51b000c 	ldr	r0, [fp, #-12]
700082e8:	eb0001a9 	bl	70008994 <Client_StrLen>
700082ec:	e1a03000 	mov	r3, r0
700082f0:	e2833001 	add	r3, r3, #1
700082f4:	e50b302c 	str	r3, [fp, #-44]	; 0x2c
/media/D/linux-share/projects/trustzone/client/src/board/main.c:96
700082f8:	e3a03007 	mov	r3, #7
700082fc:	e50b3010 	str	r3, [fp, #-16]
/media/D/linux-share/projects/trustzone/client/src/board/main.c:100
70008300:	e24b2044 	sub	r2, fp, #68	; 0x44
70008304:	e24b3030 	sub	r3, fp, #48	; 0x30
70008308:	e1a00002 	mov	r0, r2
7000830c:	e1a01003 	mov	r1, r3
70008310:	e51b2010 	ldr	r2, [fp, #-16]
70008314:	e3a03102 	mov	r3, #-2147483648	; 0x80000000
70008318:	eb00027e 	bl	70008d18 <InvokeSessionCommand>
7000831c:	e50b0008 	str	r0, [fp, #-8]
/media/D/linux-share/projects/trustzone/client/src/board/main.c:102
70008320:	e51b3008 	ldr	r3, [fp, #-8]
70008324:	e3530000 	cmp	r3, #0
70008328:	0a000002 	beq	70008338 <main+0x188>
/media/D/linux-share/projects/trustzone/client/src/board/main.c:103
7000832c:	e30a0018 	movw	r0, #40984	; 0xa018
70008330:	e3470000 	movt	r0, #28672	; 0x7000
70008334:	eb0002e9 	bl	70008ee0 <Client_Printf>
/media/D/linux-share/projects/trustzone/client/src/board/main.c:105
70008338:	e30a0030 	movw	r0, #41008	; 0xa030
7000833c:	e3470000 	movt	r0, #28672	; 0x7000
70008340:	e51b100c 	ldr	r1, [fp, #-12]
70008344:	eb0002e5 	bl	70008ee0 <Client_Printf>
/media/D/linux-share/projects/trustzone/client/src/board/main.c:107
70008348:	e24b3044 	sub	r3, fp, #68	; 0x44
7000834c:	e1a00003 	mov	r0, r3
70008350:	eb000250 	bl	70008c98 <CloseSession>
70008354:	e50b0008 	str	r0, [fp, #-8]
/media/D/linux-share/projects/trustzone/client/src/board/main.c:108
70008358:	e51b3008 	ldr	r3, [fp, #-8]
7000835c:	e3530000 	cmp	r3, #0
70008360:	1a000003 	bne	70008374 <main+0x1c4>
/media/D/linux-share/projects/trustzone/client/src/board/main.c:109
70008364:	e30a0048 	movw	r0, #41032	; 0xa048
70008368:	e3470000 	movt	r0, #28672	; 0x7000
7000836c:	eb0002db 	bl	70008ee0 <Client_Printf>
70008370:	ea000002 	b	70008380 <main+0x1d0>
/media/D/linux-share/projects/trustzone/client/src/board/main.c:112
70008374:	e30a0064 	movw	r0, #41060	; 0xa064
70008378:	e3470000 	movt	r0, #28672	; 0x7000
7000837c:	eb0002d7 	bl	70008ee0 <Client_Printf>
/media/D/linux-share/projects/trustzone/client/src/board/main.c:115
70008380:	e51b000c 	ldr	r0, [fp, #-12]
70008384:	e30a107c 	movw	r1, #41084	; 0xa07c
70008388:	e3471000 	movt	r1, #28672	; 0x7000
7000838c:	eb0001a0 	bl	70008a14 <Client_StrCopy>
/media/D/linux-share/projects/trustzone/client/src/board/main.c:116
70008390:	e30a0004 	movw	r0, #40964	; 0xa004
70008394:	e3470000 	movt	r0, #28672	; 0x7000
70008398:	e51b100c 	ldr	r1, [fp, #-12]
7000839c:	eb0002cf 	bl	70008ee0 <Client_Printf>
/media/D/linux-share/projects/trustzone/client/src/board/main.c:117
700083a0:	e51b300c 	ldr	r3, [fp, #-12]
700083a4:	e50b3030 	str	r3, [fp, #-48]	; 0x30
/media/D/linux-share/projects/trustzone/client/src/board/main.c:118
700083a8:	e51b000c 	ldr	r0, [fp, #-12]
700083ac:	eb000178 	bl	70008994 <Client_StrLen>
700083b0:	e1a03000 	mov	r3, r0
700083b4:	e2833001 	add	r3, r3, #1
700083b8:	e50b302c 	str	r3, [fp, #-44]	; 0x2c
/media/D/linux-share/projects/trustzone/client/src/board/main.c:119
700083bc:	e3a03007 	mov	r3, #7
700083c0:	e50b3010 	str	r3, [fp, #-16]
/media/D/linux-share/projects/trustzone/client/src/board/main.c:123
700083c4:	e24b2044 	sub	r2, fp, #68	; 0x44
700083c8:	e24b3030 	sub	r3, fp, #48	; 0x30
700083cc:	e1a00002 	mov	r0, r2
700083d0:	e1a01003 	mov	r1, r3
700083d4:	e51b2010 	ldr	r2, [fp, #-16]
700083d8:	e3a03106 	mov	r3, #-2147483647	; 0x80000001
700083dc:	eb00024d 	bl	70008d18 <InvokeSessionCommand>
700083e0:	e50b0008 	str	r0, [fp, #-8]
/media/D/linux-share/projects/trustzone/client/src/board/main.c:125
700083e4:	e51b3008 	ldr	r3, [fp, #-8]
700083e8:	e3530000 	cmp	r3, #0
700083ec:	0a000002 	beq	700083fc <main+0x24c>
/media/D/linux-share/projects/trustzone/client/src/board/main.c:126
700083f0:	e30a0018 	movw	r0, #40984	; 0xa018
700083f4:	e3470000 	movt	r0, #28672	; 0x7000
700083f8:	eb0002b8 	bl	70008ee0 <Client_Printf>
/media/D/linux-share/projects/trustzone/client/src/board/main.c:128
700083fc:	e30a0030 	movw	r0, #41008	; 0xa030
70008400:	e3470000 	movt	r0, #28672	; 0x7000
70008404:	e51b100c 	ldr	r1, [fp, #-12]
70008408:	eb0002b4 	bl	70008ee0 <Client_Printf>
/media/D/linux-share/projects/trustzone/client/src/board/main.c:130
7000840c:	eaffff75 	b	700081e8 <main+0x38>

70008410 <read_uart>:
read_uart():
/media/D/linux-share/projects/trustzone/client/src/board/uart.c:100
70008410:	e92d4800 	push	{fp, lr}
70008414:	e28db004 	add	fp, sp, #4
70008418:	e24dd010 	sub	sp, sp, #16
7000841c:	e50b0010 	str	r0, [fp, #-16]
70008420:	e50b1014 	str	r1, [fp, #-20]
/media/D/linux-share/projects/trustzone/client/src/board/uart.c:101
70008424:	e51b0014 	ldr	r0, [fp, #-20]
70008428:	eb000019 	bl	70008494 <get_uart_base_addr>
7000842c:	e1a02000 	mov	r2, r0
70008430:	e51b3010 	ldr	r3, [fp, #-16]
70008434:	e1823003 	orr	r3, r2, r3
70008438:	e50b3008 	str	r3, [fp, #-8]
/media/D/linux-share/projects/trustzone/client/src/board/uart.c:102
7000843c:	e51b3008 	ldr	r3, [fp, #-8]
70008440:	e5933000 	ldr	r3, [r3]
/media/D/linux-share/projects/trustzone/client/src/board/uart.c:103
70008444:	e1a00003 	mov	r0, r3
70008448:	e24bd004 	sub	sp, fp, #4
7000844c:	e8bd8800 	pop	{fp, pc}

70008450 <write_uart>:
write_uart():
/media/D/linux-share/projects/trustzone/client/src/board/uart.c:106
70008450:	e92d4800 	push	{fp, lr}
70008454:	e28db004 	add	fp, sp, #4
70008458:	e24dd018 	sub	sp, sp, #24
7000845c:	e50b0010 	str	r0, [fp, #-16]
70008460:	e50b1014 	str	r1, [fp, #-20]
70008464:	e50b2018 	str	r2, [fp, #-24]
/media/D/linux-share/projects/trustzone/client/src/board/uart.c:107
70008468:	e51b0018 	ldr	r0, [fp, #-24]
7000846c:	eb000008 	bl	70008494 <get_uart_base_addr>
70008470:	e1a02000 	mov	r2, r0
70008474:	e51b3010 	ldr	r3, [fp, #-16]
70008478:	e1823003 	orr	r3, r2, r3
7000847c:	e50b3008 	str	r3, [fp, #-8]
/media/D/linux-share/projects/trustzone/client/src/board/uart.c:108
70008480:	e51b3008 	ldr	r3, [fp, #-8]
70008484:	e51b2014 	ldr	r2, [fp, #-20]
70008488:	e5832000 	str	r2, [r3]
/media/D/linux-share/projects/trustzone/client/src/board/uart.c:109
7000848c:	e24bd004 	sub	sp, fp, #4
70008490:	e8bd8800 	pop	{fp, pc}

70008494 <get_uart_base_addr>:
get_uart_base_addr():
/media/D/linux-share/projects/trustzone/client/src/board/uart.c:112
70008494:	e52db004 	push	{fp}		; (str fp, [sp, #-4]!)
70008498:	e28db000 	add	fp, sp, #0
7000849c:	e24dd00c 	sub	sp, sp, #12
700084a0:	e50b0008 	str	r0, [fp, #-8]
/media/D/linux-share/projects/trustzone/client/src/board/uart.c:113
700084a4:	e51b3008 	ldr	r3, [fp, #-8]
700084a8:	e3530003 	cmp	r3, #3
700084ac:	979ff103 	ldrls	pc, [pc, r3, lsl #2]
700084b0:	ea00000f 	b	700084f4 <get_uart_base_addr+0x60>
700084b4:	700084c4 	andvc	r8, r0, r4, asr #9
700084b8:	700084d0 	ldrdvc	r8, [r0], -r0
700084bc:	700084dc 	ldrdvc	r8, [r0], -ip
700084c0:	700084e8 	andvc	r8, r0, r8, ror #9
/media/D/linux-share/projects/trustzone/client/src/board/uart.c:115
700084c4:	e3a03a09 	mov	r3, #36864	; 0x9000
700084c8:	e3413000 	movt	r3, #4096	; 0x1000
700084cc:	ea000009 	b	700084f8 <get_uart_base_addr+0x64>
/media/D/linux-share/projects/trustzone/client/src/board/uart.c:117
700084d0:	e3a03a0a 	mov	r3, #40960	; 0xa000
700084d4:	e3413000 	movt	r3, #4096	; 0x1000
700084d8:	ea000006 	b	700084f8 <get_uart_base_addr+0x64>
/media/D/linux-share/projects/trustzone/client/src/board/uart.c:119
700084dc:	e3a03a0b 	mov	r3, #45056	; 0xb000
700084e0:	e3413000 	movt	r3, #4096	; 0x1000
700084e4:	ea000003 	b	700084f8 <get_uart_base_addr+0x64>
/media/D/linux-share/projects/trustzone/client/src/board/uart.c:121
700084e8:	e3a03903 	mov	r3, #49152	; 0xc000
700084ec:	e3413000 	movt	r3, #4096	; 0x1000
700084f0:	ea000000 	b	700084f8 <get_uart_base_addr+0x64>
/media/D/linux-share/projects/trustzone/client/src/board/uart.c:125
700084f4:	e3e03000 	mvn	r3, #0
/media/D/linux-share/projects/trustzone/client/src/board/uart.c:126
700084f8:	e1a00003 	mov	r0, r3
700084fc:	e28bd000 	add	sp, fp, #0
70008500:	e8bd0800 	pop	{fp}
70008504:	e12fff1e 	bx	lr

70008508 <pl011_uart_putc>:
pl011_uart_putc():
/media/D/linux-share/projects/trustzone/client/src/board/uart.c:129
70008508:	e92d4800 	push	{fp, lr}
7000850c:	e28db004 	add	fp, sp, #4
70008510:	e24dd008 	sub	sp, sp, #8
70008514:	e1a03000 	mov	r3, r0
70008518:	e54b3005 	strb	r3, [fp, #-5]
/media/D/linux-share/projects/trustzone/client/src/board/uart.c:131
7000851c:	e1a00000 	nop			; (mov r0, r0)
70008520:	e3a00018 	mov	r0, #24
70008524:	e3a01000 	mov	r1, #0
70008528:	ebffffb8 	bl	70008410 <read_uart>
7000852c:	e1a03000 	mov	r3, r0
70008530:	e2033020 	and	r3, r3, #32
70008534:	e3530000 	cmp	r3, #0
70008538:	1afffff8 	bne	70008520 <pl011_uart_putc+0x18>
/media/D/linux-share/projects/trustzone/client/src/board/uart.c:134
7000853c:	e55b3005 	ldrb	r3, [fp, #-5]
70008540:	e3a00000 	mov	r0, #0
70008544:	e1a01003 	mov	r1, r3
70008548:	e3a02000 	mov	r2, #0
7000854c:	ebffffbf 	bl	70008450 <write_uart>
/media/D/linux-share/projects/trustzone/client/src/board/uart.c:135
70008550:	e24bd004 	sub	sp, fp, #4
70008554:	e8bd8800 	pop	{fp, pc}

70008558 <pl011_uart_puts>:
pl011_uart_puts():
/media/D/linux-share/projects/trustzone/client/src/board/uart.c:138
70008558:	e92d4800 	push	{fp, lr}
7000855c:	e28db004 	add	fp, sp, #4
70008560:	e24dd010 	sub	sp, sp, #16
70008564:	e50b0010 	str	r0, [fp, #-16]
/media/D/linux-share/projects/trustzone/client/src/board/uart.c:139
70008568:	e3a03000 	mov	r3, #0
7000856c:	e50b3008 	str	r3, [fp, #-8]
/media/D/linux-share/projects/trustzone/client/src/board/uart.c:141
70008570:	ea000008 	b	70008598 <pl011_uart_puts+0x40>
/media/D/linux-share/projects/trustzone/client/src/board/uart.c:143
70008574:	e51b3008 	ldr	r3, [fp, #-8]
70008578:	e51b2010 	ldr	r2, [fp, #-16]
7000857c:	e0823003 	add	r3, r2, r3
70008580:	e5d33000 	ldrb	r3, [r3]
70008584:	e1a00003 	mov	r0, r3
70008588:	ebffffde 	bl	70008508 <pl011_uart_putc>
/media/D/linux-share/projects/trustzone/client/src/board/uart.c:144
7000858c:	e51b3008 	ldr	r3, [fp, #-8]
70008590:	e2833001 	add	r3, r3, #1
70008594:	e50b3008 	str	r3, [fp, #-8]
/media/D/linux-share/projects/trustzone/client/src/board/uart.c:141
70008598:	e51b3008 	ldr	r3, [fp, #-8]
7000859c:	e51b2010 	ldr	r2, [fp, #-16]
700085a0:	e0823003 	add	r3, r2, r3
700085a4:	e5d33000 	ldrb	r3, [r3]
700085a8:	e3530000 	cmp	r3, #0
700085ac:	1afffff0 	bne	70008574 <pl011_uart_puts+0x1c>
/media/D/linux-share/projects/trustzone/client/src/board/uart.c:146
700085b0:	e24bd004 	sub	sp, fp, #4
700085b4:	e8bd8800 	pop	{fp, pc}

700085b8 <pl011_uart_init>:
pl011_uart_init():
/media/D/linux-share/projects/trustzone/client/src/board/uart.c:149
700085b8:	e92d4800 	push	{fp, lr}
700085bc:	e28db004 	add	fp, sp, #4
700085c0:	e24dd010 	sub	sp, sp, #16
700085c4:	e50b0010 	str	r0, [fp, #-16]
/media/D/linux-share/projects/trustzone/client/src/board/uart.c:152
700085c8:	e3a00030 	mov	r0, #48	; 0x30
700085cc:	e3a01000 	mov	r1, #0
700085d0:	e51b2010 	ldr	r2, [fp, #-16]
700085d4:	ebffff9d 	bl	70008450 <write_uart>
/media/D/linux-share/projects/trustzone/client/src/board/uart.c:154
700085d8:	e3a0002c 	mov	r0, #44	; 0x2c
700085dc:	e51b1010 	ldr	r1, [fp, #-16]
700085e0:	ebffff8a 	bl	70008410 <read_uart>
700085e4:	e1a03000 	mov	r3, r0
700085e8:	e50b3008 	str	r3, [fp, #-8]
/media/D/linux-share/projects/trustzone/client/src/board/uart.c:155
700085ec:	e51b3008 	ldr	r3, [fp, #-8]
700085f0:	e3c33010 	bic	r3, r3, #16
700085f4:	e50b3008 	str	r3, [fp, #-8]
/media/D/linux-share/projects/trustzone/client/src/board/uart.c:156
700085f8:	e51b3008 	ldr	r3, [fp, #-8]
700085fc:	e3a0002c 	mov	r0, #44	; 0x2c
70008600:	e1a01003 	mov	r1, r3
70008604:	e51b2010 	ldr	r2, [fp, #-16]
70008608:	ebffff90 	bl	70008450 <write_uart>
/media/D/linux-share/projects/trustzone/client/src/board/uart.c:168
7000860c:	e3a00024 	mov	r0, #36	; 0x24
70008610:	e3a0100d 	mov	r1, #13
70008614:	e51b2010 	ldr	r2, [fp, #-16]
70008618:	ebffff8c 	bl	70008450 <write_uart>
/media/D/linux-share/projects/trustzone/client/src/board/uart.c:173
7000861c:	e3a0002c 	mov	r0, #44	; 0x2c
70008620:	e3a01070 	mov	r1, #112	; 0x70
70008624:	e51b2010 	ldr	r2, [fp, #-16]
70008628:	ebffff88 	bl	70008450 <write_uart>
/media/D/linux-share/projects/trustzone/client/src/board/uart.c:176
7000862c:	e3a00030 	mov	r0, #48	; 0x30
70008630:	e3001101 	movw	r1, #257	; 0x101
70008634:	e51b2010 	ldr	r2, [fp, #-16]
70008638:	ebffff84 	bl	70008450 <write_uart>
/media/D/linux-share/projects/trustzone/client/src/board/uart.c:179
7000863c:	e24bd004 	sub	sp, fp, #4
70008640:	e8bd8800 	pop	{fp, pc}

70008644 <MallocInit>:
MallocInit():
/media/D/linux-share/projects/trustzone/client/src/board/mem_mng.c:11
70008644:	e52db004 	push	{fp}		; (str fp, [sp, #-4]!)
70008648:	e28db000 	add	fp, sp, #0
7000864c:	e24dd00c 	sub	sp, sp, #12
/media/D/linux-share/projects/trustzone/client/src/board/mem_mng.c:13
70008650:	e3a03000 	mov	r3, #0
70008654:	e50b3008 	str	r3, [fp, #-8]
70008658:	ea00000c 	b	70008690 <MallocInit+0x4c>
/media/D/linux-share/projects/trustzone/client/src/board/mem_mng.c:14
7000865c:	e300326c 	movw	r3, #620	; 0x26c
70008660:	e3473002 	movt	r3, #28674	; 0x7002
70008664:	e51b2008 	ldr	r2, [fp, #-8]
70008668:	e3a01000 	mov	r1, #0
7000866c:	e7831102 	str	r1, [r3, r2, lsl #2]
/media/D/linux-share/projects/trustzone/client/src/board/mem_mng.c:15
70008670:	e300336c 	movw	r3, #876	; 0x36c
70008674:	e3473002 	movt	r3, #28674	; 0x7002
70008678:	e51b2008 	ldr	r2, [fp, #-8]
7000867c:	e3a01000 	mov	r1, #0
70008680:	e7831102 	str	r1, [r3, r2, lsl #2]
/media/D/linux-share/projects/trustzone/client/src/board/mem_mng.c:13
70008684:	e51b3008 	ldr	r3, [fp, #-8]
70008688:	e2833001 	add	r3, r3, #1
7000868c:	e50b3008 	str	r3, [fp, #-8]
70008690:	e51b3008 	ldr	r3, [fp, #-8]
70008694:	e353003f 	cmp	r3, #63	; 0x3f
70008698:	daffffef 	ble	7000865c <MallocInit+0x18>
/media/D/linux-share/projects/trustzone/client/src/board/mem_mng.c:17
7000869c:	e28bd000 	add	sp, fp, #0
700086a0:	e8bd0800 	pop	{fp}
700086a4:	e12fff1e 	bx	lr

700086a8 <UserMalloc>:
UserMalloc():
/media/D/linux-share/projects/trustzone/client/src/board/mem_mng.c:20
700086a8:	e52db004 	push	{fp}		; (str fp, [sp, #-4]!)
700086ac:	e28db000 	add	fp, sp, #0
700086b0:	e24dd014 	sub	sp, sp, #20
700086b4:	e50b0010 	str	r0, [fp, #-16]
/media/D/linux-share/projects/trustzone/client/src/board/mem_mng.c:22
700086b8:	e51b3010 	ldr	r3, [fp, #-16]
700086bc:	e3530b01 	cmp	r3, #1024	; 0x400
700086c0:	9a000001 	bls	700086cc <UserMalloc+0x24>
/media/D/linux-share/projects/trustzone/client/src/board/mem_mng.c:23
700086c4:	e3a03000 	mov	r3, #0
700086c8:	ea00001a 	b	70008738 <UserMalloc+0x90>
/media/D/linux-share/projects/trustzone/client/src/board/mem_mng.c:25
700086cc:	e3a03000 	mov	r3, #0
700086d0:	e50b3008 	str	r3, [fp, #-8]
700086d4:	ea000013 	b	70008728 <UserMalloc+0x80>
/media/D/linux-share/projects/trustzone/client/src/board/mem_mng.c:26
700086d8:	e300326c 	movw	r3, #620	; 0x26c
700086dc:	e3473002 	movt	r3, #28674	; 0x7002
700086e0:	e51b2008 	ldr	r2, [fp, #-8]
700086e4:	e7933102 	ldr	r3, [r3, r2, lsl #2]
700086e8:	e3530000 	cmp	r3, #0
700086ec:	1a00000a 	bne	7000871c <UserMalloc+0x74>
/media/D/linux-share/projects/trustzone/client/src/board/mem_mng.c:27
700086f0:	e300326c 	movw	r3, #620	; 0x26c
700086f4:	e3473002 	movt	r3, #28674	; 0x7002
700086f8:	e51b2008 	ldr	r2, [fp, #-8]
700086fc:	e3a01001 	mov	r1, #1
70008700:	e7831102 	str	r1, [r3, r2, lsl #2]
/media/D/linux-share/projects/trustzone/client/src/board/mem_mng.c:28
70008704:	e51b3008 	ldr	r3, [fp, #-8]
70008708:	e1a02503 	lsl	r2, r3, #10
7000870c:	e300346c 	movw	r3, #1132	; 0x46c
70008710:	e3473002 	movt	r3, #28674	; 0x7002
70008714:	e0823003 	add	r3, r2, r3
70008718:	ea000006 	b	70008738 <UserMalloc+0x90>
/media/D/linux-share/projects/trustzone/client/src/board/mem_mng.c:25
7000871c:	e51b3008 	ldr	r3, [fp, #-8]
70008720:	e2833001 	add	r3, r3, #1
70008724:	e50b3008 	str	r3, [fp, #-8]
70008728:	e51b3008 	ldr	r3, [fp, #-8]
7000872c:	e353003f 	cmp	r3, #63	; 0x3f
70008730:	daffffe8 	ble	700086d8 <UserMalloc+0x30>
/media/D/linux-share/projects/trustzone/client/src/board/mem_mng.c:32
70008734:	e3a03000 	mov	r3, #0
/media/D/linux-share/projects/trustzone/client/src/board/mem_mng.c:33
70008738:	e1a00003 	mov	r0, r3
7000873c:	e28bd000 	add	sp, fp, #0
70008740:	e8bd0800 	pop	{fp}
70008744:	e12fff1e 	bx	lr

70008748 <KernelMalloc>:
KernelMalloc():
/media/D/linux-share/projects/trustzone/client/src/board/mem_mng.c:36
70008748:	e52db004 	push	{fp}		; (str fp, [sp, #-4]!)
7000874c:	e28db000 	add	fp, sp, #0
70008750:	e24dd014 	sub	sp, sp, #20
70008754:	e50b0010 	str	r0, [fp, #-16]
/media/D/linux-share/projects/trustzone/client/src/board/mem_mng.c:38
70008758:	e51b3010 	ldr	r3, [fp, #-16]
7000875c:	e3530b01 	cmp	r3, #1024	; 0x400
70008760:	9a000001 	bls	7000876c <KernelMalloc+0x24>
/media/D/linux-share/projects/trustzone/client/src/board/mem_mng.c:39
70008764:	e3a03000 	mov	r3, #0
70008768:	ea00001a 	b	700087d8 <KernelMalloc+0x90>
/media/D/linux-share/projects/trustzone/client/src/board/mem_mng.c:41
7000876c:	e3a03000 	mov	r3, #0
70008770:	e50b3008 	str	r3, [fp, #-8]
70008774:	ea000013 	b	700087c8 <KernelMalloc+0x80>
/media/D/linux-share/projects/trustzone/client/src/board/mem_mng.c:42
70008778:	e300336c 	movw	r3, #876	; 0x36c
7000877c:	e3473002 	movt	r3, #28674	; 0x7002
70008780:	e51b2008 	ldr	r2, [fp, #-8]
70008784:	e7933102 	ldr	r3, [r3, r2, lsl #2]
70008788:	e3530000 	cmp	r3, #0
7000878c:	1a00000a 	bne	700087bc <KernelMalloc+0x74>
/media/D/linux-share/projects/trustzone/client/src/board/mem_mng.c:43
70008790:	e300336c 	movw	r3, #876	; 0x36c
70008794:	e3473002 	movt	r3, #28674	; 0x7002
70008798:	e51b2008 	ldr	r2, [fp, #-8]
7000879c:	e3a01001 	mov	r1, #1
700087a0:	e7831102 	str	r1, [r3, r2, lsl #2]
/media/D/linux-share/projects/trustzone/client/src/board/mem_mng.c:44
700087a4:	e51b3008 	ldr	r3, [fp, #-8]
700087a8:	e1a02503 	lsl	r2, r3, #10
700087ac:	e300326c 	movw	r3, #620	; 0x26c
700087b0:	e3473001 	movt	r3, #28673	; 0x7001
700087b4:	e0823003 	add	r3, r2, r3
700087b8:	ea000006 	b	700087d8 <KernelMalloc+0x90>
/media/D/linux-share/projects/trustzone/client/src/board/mem_mng.c:41
700087bc:	e51b3008 	ldr	r3, [fp, #-8]
700087c0:	e2833001 	add	r3, r3, #1
700087c4:	e50b3008 	str	r3, [fp, #-8]
700087c8:	e51b3008 	ldr	r3, [fp, #-8]
700087cc:	e353003f 	cmp	r3, #63	; 0x3f
700087d0:	daffffe8 	ble	70008778 <KernelMalloc+0x30>
700087d4:	eaffffff 	b	700087d8 <KernelMalloc+0x90>
/media/D/linux-share/projects/trustzone/client/src/board/mem_mng.c:47
700087d8:	e1a00003 	mov	r0, r3
700087dc:	e28bd000 	add	sp, fp, #0
700087e0:	e8bd0800 	pop	{fp}
700087e4:	e12fff1e 	bx	lr

700087e8 <UserFree>:
UserFree():
/media/D/linux-share/projects/trustzone/client/src/board/mem_mng.c:51
700087e8:	e52db004 	push	{fp}		; (str fp, [sp, #-4]!)
700087ec:	e28db000 	add	fp, sp, #0
700087f0:	e24dd014 	sub	sp, sp, #20
700087f4:	e50b0010 	str	r0, [fp, #-16]
/media/D/linux-share/projects/trustzone/client/src/board/mem_mng.c:53
700087f8:	e3a03000 	mov	r3, #0
700087fc:	e50b3008 	str	r3, [fp, #-8]
70008800:	ea000010 	b	70008848 <UserFree+0x60>
/media/D/linux-share/projects/trustzone/client/src/board/mem_mng.c:54
70008804:	e51b2010 	ldr	r2, [fp, #-16]
70008808:	e300346c 	movw	r3, #1132	; 0x46c
7000880c:	e3473002 	movt	r3, #28674	; 0x7002
70008810:	e51b1008 	ldr	r1, [fp, #-8]
70008814:	e1a01501 	lsl	r1, r1, #10
70008818:	e0833001 	add	r3, r3, r1
7000881c:	e1520003 	cmp	r2, r3
70008820:	1a000005 	bne	7000883c <UserFree+0x54>
/media/D/linux-share/projects/trustzone/client/src/board/mem_mng.c:55
70008824:	e300326c 	movw	r3, #620	; 0x26c
70008828:	e3473002 	movt	r3, #28674	; 0x7002
7000882c:	e51b2008 	ldr	r2, [fp, #-8]
70008830:	e3a01000 	mov	r1, #0
70008834:	e7831102 	str	r1, [r3, r2, lsl #2]
/media/D/linux-share/projects/trustzone/client/src/board/mem_mng.c:56
70008838:	ea000005 	b	70008854 <UserFree+0x6c>
/media/D/linux-share/projects/trustzone/client/src/board/mem_mng.c:53
7000883c:	e51b3008 	ldr	r3, [fp, #-8]
70008840:	e2833001 	add	r3, r3, #1
70008844:	e50b3008 	str	r3, [fp, #-8]
70008848:	e51b3008 	ldr	r3, [fp, #-8]
7000884c:	e353003f 	cmp	r3, #63	; 0x3f
70008850:	daffffeb 	ble	70008804 <UserFree+0x1c>
/media/D/linux-share/projects/trustzone/client/src/board/mem_mng.c:59
70008854:	e28bd000 	add	sp, fp, #0
70008858:	e8bd0800 	pop	{fp}
7000885c:	e12fff1e 	bx	lr

70008860 <KernelFree>:
KernelFree():
/media/D/linux-share/projects/trustzone/client/src/board/mem_mng.c:62
70008860:	e52db004 	push	{fp}		; (str fp, [sp, #-4]!)
70008864:	e28db000 	add	fp, sp, #0
70008868:	e24dd014 	sub	sp, sp, #20
7000886c:	e50b0010 	str	r0, [fp, #-16]
/media/D/linux-share/projects/trustzone/client/src/board/mem_mng.c:64
70008870:	e3a03000 	mov	r3, #0
70008874:	e50b3008 	str	r3, [fp, #-8]
70008878:	ea000010 	b	700088c0 <KernelFree+0x60>
/media/D/linux-share/projects/trustzone/client/src/board/mem_mng.c:65
7000887c:	e51b2010 	ldr	r2, [fp, #-16]
70008880:	e300326c 	movw	r3, #620	; 0x26c
70008884:	e3473001 	movt	r3, #28673	; 0x7001
70008888:	e51b1008 	ldr	r1, [fp, #-8]
7000888c:	e1a01501 	lsl	r1, r1, #10
70008890:	e0833001 	add	r3, r3, r1
70008894:	e1520003 	cmp	r2, r3
70008898:	1a000005 	bne	700088b4 <KernelFree+0x54>
/media/D/linux-share/projects/trustzone/client/src/board/mem_mng.c:66
7000889c:	e300336c 	movw	r3, #876	; 0x36c
700088a0:	e3473002 	movt	r3, #28674	; 0x7002
700088a4:	e51b2008 	ldr	r2, [fp, #-8]
700088a8:	e3a01000 	mov	r1, #0
700088ac:	e7831102 	str	r1, [r3, r2, lsl #2]
/media/D/linux-share/projects/trustzone/client/src/board/mem_mng.c:67
700088b0:	ea000005 	b	700088cc <KernelFree+0x6c>
/media/D/linux-share/projects/trustzone/client/src/board/mem_mng.c:64
700088b4:	e51b3008 	ldr	r3, [fp, #-8]
700088b8:	e2833001 	add	r3, r3, #1
700088bc:	e50b3008 	str	r3, [fp, #-8]
700088c0:	e51b3008 	ldr	r3, [fp, #-8]
700088c4:	e353003f 	cmp	r3, #63	; 0x3f
700088c8:	daffffeb 	ble	7000887c <KernelFree+0x1c>
/media/D/linux-share/projects/trustzone/client/src/board/mem_mng.c:70
700088cc:	e28bd000 	add	sp, fp, #0
700088d0:	e8bd0800 	pop	{fp}
700088d4:	e12fff1e 	bx	lr

700088d8 <MemMove>:
MemMove():
/media/D/linux-share/projects/trustzone/client/src/board/mem_mng.c:74
700088d8:	e92d4800 	push	{fp, lr}
700088dc:	e28db004 	add	fp, sp, #4
700088e0:	e24dd018 	sub	sp, sp, #24
700088e4:	e50b0010 	str	r0, [fp, #-16]
700088e8:	e50b1014 	str	r1, [fp, #-20]
700088ec:	e50b2018 	str	r2, [fp, #-24]
/media/D/linux-share/projects/trustzone/client/src/board/mem_mng.c:75
700088f0:	e51b3010 	ldr	r3, [fp, #-16]
700088f4:	e50b3008 	str	r3, [fp, #-8]
/media/D/linux-share/projects/trustzone/client/src/board/mem_mng.c:76
700088f8:	e51b3014 	ldr	r3, [fp, #-20]
700088fc:	e50b300c 	str	r3, [fp, #-12]
/media/D/linux-share/projects/trustzone/client/src/board/mem_mng.c:77
70008900:	e51b3008 	ldr	r3, [fp, #-8]
70008904:	e3530000 	cmp	r3, #0
70008908:	0a000002 	beq	70008918 <MemMove+0x40>
7000890c:	e51b300c 	ldr	r3, [fp, #-12]
70008910:	e3530000 	cmp	r3, #0
70008914:	1a000011 	bne	70008960 <MemMove+0x88>
/media/D/linux-share/projects/trustzone/client/src/board/mem_mng.c:78
70008918:	e30a0090 	movw	r0, #41104	; 0xa090
7000891c:	e3470000 	movt	r0, #28672	; 0x7000
70008920:	e30a10c0 	movw	r1, #41152	; 0xa0c0
70008924:	e3471000 	movt	r1, #28672	; 0x7000
70008928:	e3a0204f 	mov	r2, #79	; 0x4f
7000892c:	eb00016b 	bl	70008ee0 <Client_Printf>
/media/D/linux-share/projects/trustzone/client/src/board/mem_mng.c:80
70008930:	eafffffe 	b	70008930 <MemMove+0x58>
/media/D/linux-share/projects/trustzone/client/src/board/mem_mng.c:84
70008934:	e51b300c 	ldr	r3, [fp, #-12]
70008938:	e5d32000 	ldrb	r2, [r3]
7000893c:	e51b3008 	ldr	r3, [fp, #-8]
70008940:	e5c32000 	strb	r2, [r3]
70008944:	e51b3008 	ldr	r3, [fp, #-8]
70008948:	e2833001 	add	r3, r3, #1
7000894c:	e50b3008 	str	r3, [fp, #-8]
70008950:	e51b300c 	ldr	r3, [fp, #-12]
70008954:	e2833001 	add	r3, r3, #1
70008958:	e50b300c 	str	r3, [fp, #-12]
7000895c:	ea000000 	b	70008964 <MemMove+0x8c>
/media/D/linux-share/projects/trustzone/client/src/board/mem_mng.c:83
70008960:	e1a00000 	nop			; (mov r0, r0)
70008964:	e51b3018 	ldr	r3, [fp, #-24]
70008968:	e3530000 	cmp	r3, #0
7000896c:	03a03000 	moveq	r3, #0
70008970:	13a03001 	movne	r3, #1
70008974:	e6ef3073 	uxtb	r3, r3
70008978:	e51b2018 	ldr	r2, [fp, #-24]
7000897c:	e2422001 	sub	r2, r2, #1
70008980:	e50b2018 	str	r2, [fp, #-24]
70008984:	e3530000 	cmp	r3, #0
70008988:	1affffe9 	bne	70008934 <MemMove+0x5c>
/media/D/linux-share/projects/trustzone/client/src/board/mem_mng.c:86
7000898c:	e24bd004 	sub	sp, fp, #4
70008990:	e8bd8800 	pop	{fp, pc}

70008994 <Client_StrLen>:
Client_StrLen():
/media/D/linux-share/projects/trustzone/client/src/board/mem_mng.c:90
70008994:	e52db004 	push	{fp}		; (str fp, [sp, #-4]!)
70008998:	e28db000 	add	fp, sp, #0
7000899c:	e24dd014 	sub	sp, sp, #20
700089a0:	e50b0010 	str	r0, [fp, #-16]
/media/D/linux-share/projects/trustzone/client/src/board/mem_mng.c:91
700089a4:	e3a03000 	mov	r3, #0
700089a8:	e50b3008 	str	r3, [fp, #-8]
/media/D/linux-share/projects/trustzone/client/src/board/mem_mng.c:92
700089ac:	e51b3010 	ldr	r3, [fp, #-16]
700089b0:	e3530000 	cmp	r3, #0
700089b4:	1a000005 	bne	700089d0 <Client_StrLen+0x3c>
/media/D/linux-share/projects/trustzone/client/src/board/mem_mng.c:93
700089b8:	e3a03000 	mov	r3, #0
700089bc:	ea000010 	b	70008a04 <Client_StrLen+0x70>
/media/D/linux-share/projects/trustzone/client/src/board/mem_mng.c:97
700089c0:	e51b3008 	ldr	r3, [fp, #-8]
700089c4:	e2833001 	add	r3, r3, #1
700089c8:	e50b3008 	str	r3, [fp, #-8]
700089cc:	ea000000 	b	700089d4 <Client_StrLen+0x40>
/media/D/linux-share/projects/trustzone/client/src/board/mem_mng.c:96
700089d0:	e1a00000 	nop			; (mov r0, r0)
700089d4:	e51b3010 	ldr	r3, [fp, #-16]
700089d8:	e5d33000 	ldrb	r3, [r3]
700089dc:	e3530000 	cmp	r3, #0
700089e0:	03a03000 	moveq	r3, #0
700089e4:	13a03001 	movne	r3, #1
700089e8:	e6ef3073 	uxtb	r3, r3
700089ec:	e51b2010 	ldr	r2, [fp, #-16]
700089f0:	e2822001 	add	r2, r2, #1
700089f4:	e50b2010 	str	r2, [fp, #-16]
700089f8:	e3530000 	cmp	r3, #0
700089fc:	1affffef 	bne	700089c0 <Client_StrLen+0x2c>
/media/D/linux-share/projects/trustzone/client/src/board/mem_mng.c:99
70008a00:	e51b3008 	ldr	r3, [fp, #-8]
/media/D/linux-share/projects/trustzone/client/src/board/mem_mng.c:100
70008a04:	e1a00003 	mov	r0, r3
70008a08:	e28bd000 	add	sp, fp, #0
70008a0c:	e8bd0800 	pop	{fp}
70008a10:	e12fff1e 	bx	lr

70008a14 <Client_StrCopy>:
Client_StrCopy():
/media/D/linux-share/projects/trustzone/client/src/board/mem_mng.c:103
70008a14:	e52db004 	push	{fp}		; (str fp, [sp, #-4]!)
70008a18:	e28db000 	add	fp, sp, #0
70008a1c:	e24dd014 	sub	sp, sp, #20
70008a20:	e50b0010 	str	r0, [fp, #-16]
70008a24:	e50b1014 	str	r1, [fp, #-20]
/media/D/linux-share/projects/trustzone/client/src/board/mem_mng.c:104
70008a28:	e51b3010 	ldr	r3, [fp, #-16]
70008a2c:	e50b3008 	str	r3, [fp, #-8]
/media/D/linux-share/projects/trustzone/client/src/board/mem_mng.c:105
70008a30:	e51b3010 	ldr	r3, [fp, #-16]
70008a34:	e3530000 	cmp	r3, #0
70008a38:	0a000002 	beq	70008a48 <Client_StrCopy+0x34>
70008a3c:	e51b3014 	ldr	r3, [fp, #-20]
70008a40:	e3530000 	cmp	r3, #0
70008a44:	1a00000c 	bne	70008a7c <Client_StrCopy+0x68>
/media/D/linux-share/projects/trustzone/client/src/board/mem_mng.c:106
70008a48:	e3a03000 	mov	r3, #0
70008a4c:	ea000013 	b	70008aa0 <Client_StrCopy+0x8c>
/media/D/linux-share/projects/trustzone/client/src/board/mem_mng.c:110
70008a50:	e51b3014 	ldr	r3, [fp, #-20]
70008a54:	e5d32000 	ldrb	r2, [r3]
70008a58:	e51b3008 	ldr	r3, [fp, #-8]
70008a5c:	e5c32000 	strb	r2, [r3]
70008a60:	e51b3008 	ldr	r3, [fp, #-8]
70008a64:	e2833001 	add	r3, r3, #1
70008a68:	e50b3008 	str	r3, [fp, #-8]
70008a6c:	e51b3014 	ldr	r3, [fp, #-20]
70008a70:	e2833001 	add	r3, r3, #1
70008a74:	e50b3014 	str	r3, [fp, #-20]
70008a78:	ea000000 	b	70008a80 <Client_StrCopy+0x6c>
/media/D/linux-share/projects/trustzone/client/src/board/mem_mng.c:109
70008a7c:	e1a00000 	nop			; (mov r0, r0)
70008a80:	e51b3014 	ldr	r3, [fp, #-20]
70008a84:	e5d33000 	ldrb	r3, [r3]
70008a88:	e3530000 	cmp	r3, #0
70008a8c:	1affffef 	bne	70008a50 <Client_StrCopy+0x3c>
/media/D/linux-share/projects/trustzone/client/src/board/mem_mng.c:112
70008a90:	e51b3008 	ldr	r3, [fp, #-8]
70008a94:	e3a02000 	mov	r2, #0
70008a98:	e5c32000 	strb	r2, [r3]
/media/D/linux-share/projects/trustzone/client/src/board/mem_mng.c:113
70008a9c:	e51b3010 	ldr	r3, [fp, #-16]
/media/D/linux-share/projects/trustzone/client/src/board/mem_mng.c:114
70008aa0:	e1a00003 	mov	r0, r3
70008aa4:	e28bd000 	add	sp, fp, #0
70008aa8:	e8bd0800 	pop	{fp}
70008aac:	e12fff1e 	bx	lr

70008ab0 <Client_MemFill>:
Client_MemFill():
/media/D/linux-share/projects/trustzone/client/src/board/mem_mng.c:118
70008ab0:	e52db004 	push	{fp}		; (str fp, [sp, #-4]!)
70008ab4:	e28db000 	add	fp, sp, #0
70008ab8:	e24dd01c 	sub	sp, sp, #28
70008abc:	e50b0010 	str	r0, [fp, #-16]
70008ac0:	e50b1014 	str	r1, [fp, #-20]
70008ac4:	e50b2018 	str	r2, [fp, #-24]
/media/D/linux-share/projects/trustzone/client/src/board/mem_mng.c:120
70008ac8:	e51b3010 	ldr	r3, [fp, #-16]
70008acc:	e50b300c 	str	r3, [fp, #-12]
/media/D/linux-share/projects/trustzone/client/src/board/mem_mng.c:121
70008ad0:	e3a03000 	mov	r3, #0
70008ad4:	e50b3008 	str	r3, [fp, #-8]
70008ad8:	ea000008 	b	70008b00 <Client_MemFill+0x50>
/media/D/linux-share/projects/trustzone/client/src/board/mem_mng.c:122
70008adc:	e51b3008 	ldr	r3, [fp, #-8]
70008ae0:	e51b200c 	ldr	r2, [fp, #-12]
70008ae4:	e0823003 	add	r3, r2, r3
70008ae8:	e51b2014 	ldr	r2, [fp, #-20]
70008aec:	e6ef2072 	uxtb	r2, r2
70008af0:	e5c32000 	strb	r2, [r3]
/media/D/linux-share/projects/trustzone/client/src/board/mem_mng.c:121
70008af4:	e51b3008 	ldr	r3, [fp, #-8]
70008af8:	e2833001 	add	r3, r3, #1
70008afc:	e50b3008 	str	r3, [fp, #-8]
70008b00:	e51b2008 	ldr	r2, [fp, #-8]
70008b04:	e51b3018 	ldr	r3, [fp, #-24]
70008b08:	e1520003 	cmp	r2, r3
70008b0c:	3afffff2 	bcc	70008adc <Client_MemFill+0x2c>
/media/D/linux-share/projects/trustzone/client/src/board/mem_mng.c:124
70008b10:	e28bd000 	add	sp, fp, #0
70008b14:	e8bd0800 	pop	{fp}
70008b18:	e12fff1e 	bx	lr

70008b1c <CallTZFunction>:
CallTZFunction():
/media/D/linux-share/projects/trustzone/client/src/board/kernel_layer.c:16
70008b1c:	e52db004 	push	{fp}		; (str fp, [sp, #-4]!)
70008b20:	e28db000 	add	fp, sp, #0
70008b24:	e24dd014 	sub	sp, sp, #20
70008b28:	e50b0010 	str	r0, [fp, #-16]
/media/D/linux-share/projects/trustzone/client/src/board/kernel_layer.c:46
70008b2c:	e3e03000 	mvn	r3, #0
70008b30:	e50b3008 	str	r3, [fp, #-8]
/media/D/linux-share/projects/trustzone/client/src/board/kernel_layer.c:51
70008b34:	e3a00106 	mov	r0, #-2147483647	; 0x80000001
/media/D/linux-share/projects/trustzone/client/src/board/kernel_layer.c:52
70008b38:	e51b3010 	ldr	r3, [fp, #-16]
70008b3c:	e1a01003 	mov	r1, r3
/media/D/linux-share/projects/trustzone/client/src/board/kernel_layer.c:53
70008b40:	e1a03000 	mov	r3, r0
70008b44:	e1a00003 	mov	r0, r3
/media/D/linux-share/projects/trustzone/client/src/board/kernel_layer.c:54
70008b48:	e1a03001 	mov	r3, r1
70008b4c:	e1a01003 	mov	r1, r3
/media/D/linux-share/projects/trustzone/client/src/board/kernel_layer.c:55
70008b50:	e1600070 	smc	0
/media/D/linux-share/projects/trustzone/client/src/board/kernel_layer.c:57
70008b54:	e1a03000 	mov	r3, r0
70008b58:	e50b3008 	str	r3, [fp, #-8]
/media/D/linux-share/projects/trustzone/client/src/board/kernel_layer.c:58
70008b5c:	e51b3008 	ldr	r3, [fp, #-8]
/media/D/linux-share/projects/trustzone/client/src/board/kernel_layer.c:59
70008b60:	e1a00003 	mov	r0, r3
70008b64:	e28bd000 	add	sp, fp, #0
70008b68:	e8bd0800 	pop	{fp}
70008b6c:	e12fff1e 	bx	lr

70008b70 <OpenSession>:
OpenSession():
/media/D/linux-share/projects/trustzone/client/src/board/kernel_layer.c:66
70008b70:	e92d4800 	push	{fp, lr}
70008b74:	e28db004 	add	fp, sp, #4
70008b78:	e24dd018 	sub	sp, sp, #24
70008b7c:	e50b0010 	str	r0, [fp, #-16]
70008b80:	e50b1014 	str	r1, [fp, #-20]
70008b84:	e50b2018 	str	r2, [fp, #-24]
/media/D/linux-share/projects/trustzone/client/src/board/kernel_layer.c:67
70008b88:	e3e03000 	mvn	r3, #0
70008b8c:	e50b3008 	str	r3, [fp, #-8]
/media/D/linux-share/projects/trustzone/client/src/board/kernel_layer.c:68
70008b90:	e3a03000 	mov	r3, #0
70008b94:	e50b300c 	str	r3, [fp, #-12]
/media/D/linux-share/projects/trustzone/client/src/board/kernel_layer.c:70
70008b98:	e51b3018 	ldr	r3, [fp, #-24]
70008b9c:	e3530005 	cmp	r3, #5
70008ba0:	0a000002 	beq	70008bb0 <OpenSession+0x40>
/media/D/linux-share/projects/trustzone/client/src/board/kernel_layer.c:74
70008ba4:	e3a03006 	mov	r3, #6
70008ba8:	e34f3fff 	movt	r3, #65535	; 0xffff
70008bac:	ea000036 	b	70008c8c <OpenSession+0x11c>
/media/D/linux-share/projects/trustzone/client/src/board/kernel_layer.c:76
70008bb0:	e3a00064 	mov	r0, #100	; 0x64
70008bb4:	ebfffee3 	bl	70008748 <KernelMalloc>
70008bb8:	e1a03000 	mov	r3, r0
70008bbc:	e50b300c 	str	r3, [fp, #-12]
/media/D/linux-share/projects/trustzone/client/src/board/kernel_layer.c:78
70008bc0:	e51b300c 	ldr	r3, [fp, #-12]
70008bc4:	e1a00003 	mov	r0, r3
70008bc8:	e51b1010 	ldr	r1, [fp, #-16]
70008bcc:	e3a02008 	mov	r2, #8
70008bd0:	ebffff40 	bl	700088d8 <MemMove>
/media/D/linux-share/projects/trustzone/client/src/board/kernel_layer.c:80
70008bd4:	e3a00010 	mov	r0, #16
70008bd8:	ebfffeda 	bl	70008748 <KernelMalloc>
70008bdc:	e1a02000 	mov	r2, r0
70008be0:	e51b300c 	ldr	r3, [fp, #-12]
70008be4:	e5832008 	str	r2, [r3, #8]
/media/D/linux-share/projects/trustzone/client/src/board/kernel_layer.c:81
70008be8:	e51b300c 	ldr	r3, [fp, #-12]
70008bec:	e3a02010 	mov	r2, #16
70008bf0:	e583200c 	str	r2, [r3, #12]
/media/D/linux-share/projects/trustzone/client/src/board/kernel_layer.c:82
70008bf4:	e51b300c 	ldr	r3, [fp, #-12]
70008bf8:	e5933008 	ldr	r3, [r3, #8]
70008bfc:	e1a00003 	mov	r0, r3
70008c00:	e30a115c 	movw	r1, #41308	; 0xa15c
70008c04:	e3471000 	movt	r1, #28672	; 0x7000
70008c08:	e3a02010 	mov	r2, #16
70008c0c:	ebffff31 	bl	700088d8 <MemMove>
/media/D/linux-share/projects/trustzone/client/src/board/kernel_layer.c:84
70008c10:	e51b300c 	ldr	r3, [fp, #-12]
70008c14:	e3a02000 	mov	r2, #0
70008c18:	e5832010 	str	r2, [r3, #16]
/media/D/linux-share/projects/trustzone/client/src/board/kernel_layer.c:85
70008c1c:	e51b300c 	ldr	r3, [fp, #-12]
70008c20:	e3a02102 	mov	r2, #-2147483648	; 0x80000000
70008c24:	e5832024 	str	r2, [r3, #36]	; 0x24
/media/D/linux-share/projects/trustzone/client/src/board/kernel_layer.c:87
70008c28:	e3003155 	movw	r3, #341	; 0x155
70008c2c:	e50b3018 	str	r3, [fp, #-24]
/media/D/linux-share/projects/trustzone/client/src/board/kernel_layer.c:91
70008c30:	e51b300c 	ldr	r3, [fp, #-12]
70008c34:	e51b2018 	ldr	r2, [fp, #-24]
70008c38:	e5832020 	str	r2, [r3, #32]
/media/D/linux-share/projects/trustzone/client/src/board/kernel_layer.c:92
70008c3c:	e51b3010 	ldr	r3, [fp, #-16]
70008c40:	e5932000 	ldr	r2, [r3]
70008c44:	e51b300c 	ldr	r3, [fp, #-12]
70008c48:	e5832044 	str	r2, [r3, #68]	; 0x44
/media/D/linux-share/projects/trustzone/client/src/board/kernel_layer.c:93
70008c4c:	e51b3010 	ldr	r3, [fp, #-16]
70008c50:	e5932004 	ldr	r2, [r3, #4]
70008c54:	e51b300c 	ldr	r3, [fp, #-12]
70008c58:	e5832048 	str	r2, [r3, #72]	; 0x48
/media/D/linux-share/projects/trustzone/client/src/board/kernel_layer.c:94
70008c5c:	e51b000c 	ldr	r0, [fp, #-12]
70008c60:	ebffffad 	bl	70008b1c <CallTZFunction>
70008c64:	e50b0008 	str	r0, [fp, #-8]
/media/D/linux-share/projects/trustzone/client/src/board/kernel_layer.c:95
70008c68:	e51b300c 	ldr	r3, [fp, #-12]
70008c6c:	e2833028 	add	r3, r3, #40	; 0x28
70008c70:	e51b0014 	ldr	r0, [fp, #-20]
70008c74:	e1a01003 	mov	r1, r3
70008c78:	e3a02014 	mov	r2, #20
70008c7c:	ebffff15 	bl	700088d8 <MemMove>
/media/D/linux-share/projects/trustzone/client/src/board/kernel_layer.c:96
70008c80:	e51b000c 	ldr	r0, [fp, #-12]
70008c84:	ebfffef5 	bl	70008860 <KernelFree>
/media/D/linux-share/projects/trustzone/client/src/board/kernel_layer.c:97
70008c88:	e51b3008 	ldr	r3, [fp, #-8]
/media/D/linux-share/projects/trustzone/client/src/board/kernel_layer.c:98
70008c8c:	e1a00003 	mov	r0, r3
70008c90:	e24bd004 	sub	sp, fp, #4
70008c94:	e8bd8800 	pop	{fp, pc}

70008c98 <CloseSession>:
CloseSession():
/media/D/linux-share/projects/trustzone/client/src/board/kernel_layer.c:101
70008c98:	e92d4800 	push	{fp, lr}
70008c9c:	e28db004 	add	fp, sp, #4
70008ca0:	e24dd010 	sub	sp, sp, #16
70008ca4:	e50b0010 	str	r0, [fp, #-16]
/media/D/linux-share/projects/trustzone/client/src/board/kernel_layer.c:102
70008ca8:	e3a03000 	mov	r3, #0
70008cac:	e50b3008 	str	r3, [fp, #-8]
/media/D/linux-share/projects/trustzone/client/src/board/kernel_layer.c:103
70008cb0:	e3e03000 	mvn	r3, #0
70008cb4:	e50b300c 	str	r3, [fp, #-12]
/media/D/linux-share/projects/trustzone/client/src/board/kernel_layer.c:105
70008cb8:	e3a00064 	mov	r0, #100	; 0x64
70008cbc:	ebfffea1 	bl	70008748 <KernelMalloc>
70008cc0:	e1a03000 	mov	r3, r0
70008cc4:	e50b3008 	str	r3, [fp, #-8]
/media/D/linux-share/projects/trustzone/client/src/board/kernel_layer.c:106
70008cc8:	e51b0008 	ldr	r0, [fp, #-8]
70008ccc:	e3a01000 	mov	r1, #0
70008cd0:	e3a02064 	mov	r2, #100	; 0x64
70008cd4:	ebffff75 	bl	70008ab0 <Client_MemFill>
/media/D/linux-share/projects/trustzone/client/src/board/kernel_layer.c:107
70008cd8:	e51b3008 	ldr	r3, [fp, #-8]
70008cdc:	e3a02106 	mov	r2, #-2147483647	; 0x80000001
70008ce0:	e5832024 	str	r2, [r3, #36]	; 0x24
/media/D/linux-share/projects/trustzone/client/src/board/kernel_layer.c:108
70008ce4:	e51b3008 	ldr	r3, [fp, #-8]
70008ce8:	e2833028 	add	r3, r3, #40	; 0x28
70008cec:	e1a00003 	mov	r0, r3
70008cf0:	e51b1010 	ldr	r1, [fp, #-16]
70008cf4:	e3a02014 	mov	r2, #20
70008cf8:	ebfffef6 	bl	700088d8 <MemMove>
/media/D/linux-share/projects/trustzone/client/src/board/kernel_layer.c:109
70008cfc:	e51b0008 	ldr	r0, [fp, #-8]
70008d00:	ebffff85 	bl	70008b1c <CallTZFunction>
70008d04:	e50b000c 	str	r0, [fp, #-12]
/media/D/linux-share/projects/trustzone/client/src/board/kernel_layer.c:110
70008d08:	e51b300c 	ldr	r3, [fp, #-12]
/media/D/linux-share/projects/trustzone/client/src/board/kernel_layer.c:111
70008d0c:	e1a00003 	mov	r0, r3
70008d10:	e24bd004 	sub	sp, fp, #4
70008d14:	e8bd8800 	pop	{fp, pc}

70008d18 <InvokeSessionCommand>:
InvokeSessionCommand():
/media/D/linux-share/projects/trustzone/client/src/board/kernel_layer.c:117
70008d18:	e92d4800 	push	{fp, lr}
70008d1c:	e28db004 	add	fp, sp, #4
70008d20:	e24dd018 	sub	sp, sp, #24
70008d24:	e50b0010 	str	r0, [fp, #-16]
70008d28:	e50b1014 	str	r1, [fp, #-20]
70008d2c:	e50b2018 	str	r2, [fp, #-24]
70008d30:	e50b301c 	str	r3, [fp, #-28]
/media/D/linux-share/projects/trustzone/client/src/board/kernel_layer.c:118
70008d34:	e3a03000 	mov	r3, #0
70008d38:	e50b3008 	str	r3, [fp, #-8]
/media/D/linux-share/projects/trustzone/client/src/board/kernel_layer.c:119
70008d3c:	e3e03000 	mvn	r3, #0
70008d40:	e50b300c 	str	r3, [fp, #-12]
/media/D/linux-share/projects/trustzone/client/src/board/kernel_layer.c:127
70008d44:	e3a00064 	mov	r0, #100	; 0x64
70008d48:	ebfffe7e 	bl	70008748 <KernelMalloc>
70008d4c:	e1a03000 	mov	r3, r0
70008d50:	e50b3008 	str	r3, [fp, #-8]
/media/D/linux-share/projects/trustzone/client/src/board/kernel_layer.c:128
70008d54:	e51b0008 	ldr	r0, [fp, #-8]
70008d58:	e3a01000 	mov	r1, #0
70008d5c:	e3a02064 	mov	r2, #100	; 0x64
70008d60:	ebffff52 	bl	70008ab0 <Client_MemFill>
/media/D/linux-share/projects/trustzone/client/src/board/kernel_layer.c:131
70008d64:	e51b3014 	ldr	r3, [fp, #-20]
70008d68:	e5933004 	ldr	r3, [r3, #4]
70008d6c:	e1a00003 	mov	r0, r3
70008d70:	ebfffe74 	bl	70008748 <KernelMalloc>
70008d74:	e1a02000 	mov	r2, r0
70008d78:	e51b3008 	ldr	r3, [fp, #-8]
70008d7c:	e5832000 	str	r2, [r3]
/media/D/linux-share/projects/trustzone/client/src/board/kernel_layer.c:132
70008d80:	e51b3008 	ldr	r3, [fp, #-8]
70008d84:	e5931000 	ldr	r1, [r3]
70008d88:	e51b3014 	ldr	r3, [fp, #-20]
70008d8c:	e5932000 	ldr	r2, [r3]
/media/D/linux-share/projects/trustzone/client/src/board/kernel_layer.c:133
70008d90:	e51b3014 	ldr	r3, [fp, #-20]
/media/D/linux-share/projects/trustzone/client/src/board/kernel_layer.c:132
70008d94:	e5933004 	ldr	r3, [r3, #4]
70008d98:	e1a00001 	mov	r0, r1
70008d9c:	e1a01002 	mov	r1, r2
70008da0:	e1a02003 	mov	r2, r3
70008da4:	ebfffecb 	bl	700088d8 <MemMove>
/media/D/linux-share/projects/trustzone/client/src/board/kernel_layer.c:134
70008da8:	e51b3014 	ldr	r3, [fp, #-20]
70008dac:	e5932004 	ldr	r2, [r3, #4]
70008db0:	e51b3008 	ldr	r3, [fp, #-8]
70008db4:	e5832004 	str	r2, [r3, #4]
/media/D/linux-share/projects/trustzone/client/src/board/kernel_layer.c:136
70008db8:	e51b3008 	ldr	r3, [fp, #-8]
70008dbc:	e51b2018 	ldr	r2, [fp, #-24]
70008dc0:	e5832020 	str	r2, [r3, #32]
/media/D/linux-share/projects/trustzone/client/src/board/kernel_layer.c:138
70008dc4:	e51b3008 	ldr	r3, [fp, #-8]
70008dc8:	e3a0210a 	mov	r2, #-2147483646	; 0x80000002
70008dcc:	e5832024 	str	r2, [r3, #36]	; 0x24
/media/D/linux-share/projects/trustzone/client/src/board/kernel_layer.c:140
70008dd0:	e51b3008 	ldr	r3, [fp, #-8]
70008dd4:	e2833028 	add	r3, r3, #40	; 0x28
70008dd8:	e1a00003 	mov	r0, r3
70008ddc:	e51b1010 	ldr	r1, [fp, #-16]
70008de0:	e3a02014 	mov	r2, #20
70008de4:	ebfffebb 	bl	700088d8 <MemMove>
/media/D/linux-share/projects/trustzone/client/src/board/kernel_layer.c:142
70008de8:	e51b3008 	ldr	r3, [fp, #-8]
70008dec:	e51b201c 	ldr	r2, [fp, #-28]
70008df0:	e583203c 	str	r2, [r3, #60]	; 0x3c
/media/D/linux-share/projects/trustzone/client/src/board/kernel_layer.c:144
70008df4:	e51b3014 	ldr	r3, [fp, #-20]
70008df8:	e5932000 	ldr	r2, [r3]
70008dfc:	e51b3008 	ldr	r3, [fp, #-8]
70008e00:	e5832044 	str	r2, [r3, #68]	; 0x44
/media/D/linux-share/projects/trustzone/client/src/board/kernel_layer.c:145
70008e04:	e51b3014 	ldr	r3, [fp, #-20]
70008e08:	e5932004 	ldr	r2, [r3, #4]
70008e0c:	e51b3008 	ldr	r3, [fp, #-8]
70008e10:	e5832048 	str	r2, [r3, #72]	; 0x48
/media/D/linux-share/projects/trustzone/client/src/board/kernel_layer.c:146
70008e14:	e51b0008 	ldr	r0, [fp, #-8]
70008e18:	ebffff3f 	bl	70008b1c <CallTZFunction>
70008e1c:	e50b000c 	str	r0, [fp, #-12]
/media/D/linux-share/projects/trustzone/client/src/board/kernel_layer.c:148
70008e20:	e51b3014 	ldr	r3, [fp, #-20]
70008e24:	e5931000 	ldr	r1, [r3]
70008e28:	e51b3008 	ldr	r3, [fp, #-8]
70008e2c:	e5932000 	ldr	r2, [r3]
/media/D/linux-share/projects/trustzone/client/src/board/kernel_layer.c:149
70008e30:	e51b3014 	ldr	r3, [fp, #-20]
/media/D/linux-share/projects/trustzone/client/src/board/kernel_layer.c:148
70008e34:	e5933004 	ldr	r3, [r3, #4]
70008e38:	e1a00001 	mov	r0, r1
70008e3c:	e1a01002 	mov	r1, r2
70008e40:	e1a02003 	mov	r2, r3
70008e44:	ebfffea3 	bl	700088d8 <MemMove>
/media/D/linux-share/projects/trustzone/client/src/board/kernel_layer.c:151
70008e48:	e51b0008 	ldr	r0, [fp, #-8]
70008e4c:	ebfffe83 	bl	70008860 <KernelFree>
/media/D/linux-share/projects/trustzone/client/src/board/kernel_layer.c:154
70008e50:	e51b300c 	ldr	r3, [fp, #-12]
/media/D/linux-share/projects/trustzone/client/src/board/kernel_layer.c:155
70008e54:	e1a00003 	mov	r0, r3
70008e58:	e24bd004 	sub	sp, fp, #4
70008e5c:	e8bd8800 	pop	{fp, pc}

70008e60 <TEE_StrLen>:
TEE_StrLen():
/media/D/linux-share/projects/trustzone/client/src/lib/vsprintf.c:34
70008e60:	e52db004 	push	{fp}		; (str fp, [sp, #-4]!)
70008e64:	e28db000 	add	fp, sp, #0
70008e68:	e24dd014 	sub	sp, sp, #20
70008e6c:	e50b0010 	str	r0, [fp, #-16]
/media/D/linux-share/projects/trustzone/client/src/lib/vsprintf.c:35
70008e70:	e3a03000 	mov	r3, #0
70008e74:	e50b3008 	str	r3, [fp, #-8]
/media/D/linux-share/projects/trustzone/client/src/lib/vsprintf.c:36
70008e78:	e51b3010 	ldr	r3, [fp, #-16]
70008e7c:	e3530000 	cmp	r3, #0
70008e80:	1a000005 	bne	70008e9c <TEE_StrLen+0x3c>
/media/D/linux-share/projects/trustzone/client/src/lib/vsprintf.c:37
70008e84:	e3a03000 	mov	r3, #0
70008e88:	ea000010 	b	70008ed0 <TEE_StrLen+0x70>
/media/D/linux-share/projects/trustzone/client/src/lib/vsprintf.c:41
70008e8c:	e51b3008 	ldr	r3, [fp, #-8]
70008e90:	e2833001 	add	r3, r3, #1
70008e94:	e50b3008 	str	r3, [fp, #-8]
70008e98:	ea000000 	b	70008ea0 <TEE_StrLen+0x40>
/media/D/linux-share/projects/trustzone/client/src/lib/vsprintf.c:40
70008e9c:	e1a00000 	nop			; (mov r0, r0)
70008ea0:	e51b3010 	ldr	r3, [fp, #-16]
70008ea4:	e5d33000 	ldrb	r3, [r3]
70008ea8:	e3530000 	cmp	r3, #0
70008eac:	03a03000 	moveq	r3, #0
70008eb0:	13a03001 	movne	r3, #1
70008eb4:	e6ef3073 	uxtb	r3, r3
70008eb8:	e51b2010 	ldr	r2, [fp, #-16]
70008ebc:	e2822001 	add	r2, r2, #1
70008ec0:	e50b2010 	str	r2, [fp, #-16]
70008ec4:	e3530000 	cmp	r3, #0
70008ec8:	1affffef 	bne	70008e8c <TEE_StrLen+0x2c>
/media/D/linux-share/projects/trustzone/client/src/lib/vsprintf.c:43
70008ecc:	e51b3008 	ldr	r3, [fp, #-8]
/media/D/linux-share/projects/trustzone/client/src/lib/vsprintf.c:44
70008ed0:	e1a00003 	mov	r0, r3
70008ed4:	e28bd000 	add	sp, fp, #0
70008ed8:	e8bd0800 	pop	{fp}
70008edc:	e12fff1e 	bx	lr

70008ee0 <Client_Printf>:
Client_Printf():
/media/D/linux-share/projects/trustzone/client/src/lib/vsprintf.c:47
70008ee0:	e92d000f 	push	{r0, r1, r2, r3}
70008ee4:	e92d4800 	push	{fp, lr}
70008ee8:	e28db004 	add	fp, sp, #4
70008eec:	e24dde11 	sub	sp, sp, #272	; 0x110
/media/D/linux-share/projects/trustzone/client/src/lib/vsprintf.c:52
70008ef0:	e28b3008 	add	r3, fp, #8
70008ef4:	e50b3010 	str	r3, [fp, #-16]
/media/D/linux-share/projects/trustzone/client/src/lib/vsprintf.c:54
70008ef8:	e24b3e11 	sub	r3, fp, #272	; 0x110
70008efc:	e1a00003 	mov	r0, r3
70008f00:	e59b1004 	ldr	r1, [fp, #4]
70008f04:	e51b2010 	ldr	r2, [fp, #-16]
70008f08:	eb00001b 	bl	70008f7c <sw_vsprintf>
70008f0c:	e1a03000 	mov	r3, r0
70008f10:	e50b300c 	str	r3, [fp, #-12]
/media/D/linux-share/projects/trustzone/client/src/lib/vsprintf.c:57
70008f14:	e24b3e11 	sub	r3, fp, #272	; 0x110
70008f18:	e50b3008 	str	r3, [fp, #-8]
70008f1c:	ea00000c 	b	70008f54 <Client_Printf+0x74>
/media/D/linux-share/projects/trustzone/client/src/lib/vsprintf.c:58
70008f20:	e51b3008 	ldr	r3, [fp, #-8]
70008f24:	e5d33000 	ldrb	r3, [r3]
70008f28:	e353000a 	cmp	r3, #10
70008f2c:	1a000001 	bne	70008f38 <Client_Printf+0x58>
/media/D/linux-share/projects/trustzone/client/src/lib/vsprintf.c:59
70008f30:	e3a0000d 	mov	r0, #13
70008f34:	ebfffd73 	bl	70008508 <pl011_uart_putc>
/media/D/linux-share/projects/trustzone/client/src/lib/vsprintf.c:60
70008f38:	e51b3008 	ldr	r3, [fp, #-8]
70008f3c:	e5d33000 	ldrb	r3, [r3]
70008f40:	e1a00003 	mov	r0, r3
70008f44:	ebfffd6f 	bl	70008508 <pl011_uart_putc>
/media/D/linux-share/projects/trustzone/client/src/lib/vsprintf.c:57
70008f48:	e51b3008 	ldr	r3, [fp, #-8]
70008f4c:	e2833001 	add	r3, r3, #1
70008f50:	e50b3008 	str	r3, [fp, #-8]
70008f54:	e51b3008 	ldr	r3, [fp, #-8]
70008f58:	e5d33000 	ldrb	r3, [r3]
70008f5c:	e3530000 	cmp	r3, #0
70008f60:	1affffee 	bne	70008f20 <Client_Printf+0x40>
/media/D/linux-share/projects/trustzone/client/src/lib/vsprintf.c:65
70008f64:	e51b300c 	ldr	r3, [fp, #-12]
/media/D/linux-share/projects/trustzone/client/src/lib/vsprintf.c:66
70008f68:	e1a00003 	mov	r0, r3
70008f6c:	e24bd004 	sub	sp, fp, #4
70008f70:	e8bd4800 	pop	{fp, lr}
70008f74:	e28dd010 	add	sp, sp, #16
70008f78:	e12fff1e 	bx	lr

70008f7c <sw_vsprintf>:
sw_vsprintf():
/media/D/linux-share/projects/trustzone/client/src/lib/vsprintf.c:69
70008f7c:	e92d4800 	push	{fp, lr}
70008f80:	e28db004 	add	fp, sp, #4
70008f84:	e24dd080 	sub	sp, sp, #128	; 0x80
70008f88:	e50b0078 	str	r0, [fp, #-120]	; 0x78
70008f8c:	e50b107c 	str	r1, [fp, #-124]	; 0x7c
70008f90:	e50b2080 	str	r2, [fp, #-128]	; 0x80
/media/D/linux-share/projects/trustzone/client/src/lib/vsprintf.c:71
70008f94:	e51b3078 	ldr	r3, [fp, #-120]	; 0x78
70008f98:	e50b3008 	str	r3, [fp, #-8]
/media/D/linux-share/projects/trustzone/client/src/lib/vsprintf.c:73
70008f9c:	ea000212 	b	700097ec <sw_vsprintf+0x870>
/media/D/linux-share/projects/trustzone/client/src/lib/vsprintf.c:74
70008fa0:	e51b307c 	ldr	r3, [fp, #-124]	; 0x7c
70008fa4:	e5d33000 	ldrb	r3, [r3]
70008fa8:	e3530025 	cmp	r3, #37	; 0x25
70008fac:	0a00000f 	beq	70008ff0 <sw_vsprintf+0x74>
70008fb0:	e51b307c 	ldr	r3, [fp, #-124]	; 0x7c
70008fb4:	e5d33000 	ldrb	r3, [r3]
70008fb8:	e353000a 	cmp	r3, #10
70008fbc:	0a00000b 	beq	70008ff0 <sw_vsprintf+0x74>
70008fc0:	e51b307c 	ldr	r3, [fp, #-124]	; 0x7c
70008fc4:	e5d33000 	ldrb	r3, [r3]
70008fc8:	e3530009 	cmp	r3, #9
70008fcc:	0a000007 	beq	70008ff0 <sw_vsprintf+0x74>
/media/D/linux-share/projects/trustzone/client/src/lib/vsprintf.c:75
70008fd0:	e51b307c 	ldr	r3, [fp, #-124]	; 0x7c
70008fd4:	e5d32000 	ldrb	r2, [r3]
70008fd8:	e51b3008 	ldr	r3, [fp, #-8]
70008fdc:	e5c32000 	strb	r2, [r3]
70008fe0:	e51b3008 	ldr	r3, [fp, #-8]
70008fe4:	e2833001 	add	r3, r3, #1
70008fe8:	e50b3008 	str	r3, [fp, #-8]
/media/D/linux-share/projects/trustzone/client/src/lib/vsprintf.c:76
70008fec:	ea0001fb 	b	700097e0 <sw_vsprintf+0x864>
/media/D/linux-share/projects/trustzone/client/src/lib/vsprintf.c:79
70008ff0:	e51b307c 	ldr	r3, [fp, #-124]	; 0x7c
70008ff4:	e5d33000 	ldrb	r3, [r3]
70008ff8:	e3530025 	cmp	r3, #37	; 0x25
70008ffc:	1a0001dc 	bne	70009774 <sw_vsprintf+0x7f8>
/media/D/linux-share/projects/trustzone/client/src/lib/vsprintf.c:81
70009000:	e51b307c 	ldr	r3, [fp, #-124]	; 0x7c
70009004:	e2833001 	add	r3, r3, #1
70009008:	e50b307c 	str	r3, [fp, #-124]	; 0x7c
/media/D/linux-share/projects/trustzone/client/src/lib/vsprintf.c:82
7000900c:	e3a03000 	mov	r3, #0
70009010:	e50b300c 	str	r3, [fp, #-12]
/media/D/linux-share/projects/trustzone/client/src/lib/vsprintf.c:83
70009014:	e3a03001 	mov	r3, #1
70009018:	e50b3010 	str	r3, [fp, #-16]
/media/D/linux-share/projects/trustzone/client/src/lib/vsprintf.c:85
7000901c:	e51b307c 	ldr	r3, [fp, #-124]	; 0x7c
70009020:	e5d33000 	ldrb	r3, [r3]
70009024:	e3530030 	cmp	r3, #48	; 0x30
70009028:	1a000014 	bne	70009080 <sw_vsprintf+0x104>
/media/D/linux-share/projects/trustzone/client/src/lib/vsprintf.c:88
7000902c:	e51b307c 	ldr	r3, [fp, #-124]	; 0x7c
70009030:	e2833001 	add	r3, r3, #1
70009034:	e50b307c 	str	r3, [fp, #-124]	; 0x7c
/media/D/linux-share/projects/trustzone/client/src/lib/vsprintf.c:89
70009038:	e51b307c 	ldr	r3, [fp, #-124]	; 0x7c
7000903c:	e5d33000 	ldrb	r3, [r3]
70009040:	e50b3010 	str	r3, [fp, #-16]
70009044:	e51b307c 	ldr	r3, [fp, #-124]	; 0x7c
70009048:	e2833001 	add	r3, r3, #1
7000904c:	e50b307c 	str	r3, [fp, #-124]	; 0x7c
/media/D/linux-share/projects/trustzone/client/src/lib/vsprintf.c:90
70009050:	e51b3010 	ldr	r3, [fp, #-16]
70009054:	e3530030 	cmp	r3, #48	; 0x30
70009058:	da000002 	ble	70009068 <sw_vsprintf+0xec>
7000905c:	e51b3010 	ldr	r3, [fp, #-16]
70009060:	e3530038 	cmp	r3, #56	; 0x38
70009064:	da000002 	ble	70009074 <sw_vsprintf+0xf8>
/media/D/linux-share/projects/trustzone/client/src/lib/vsprintf.c:91
70009068:	e30a0104 	movw	r0, #41220	; 0xa104
7000906c:	e3470000 	movt	r0, #28672	; 0x7000
70009070:	ebfffd38 	bl	70008558 <pl011_uart_puts>
/media/D/linux-share/projects/trustzone/client/src/lib/vsprintf.c:93
70009074:	e51b3010 	ldr	r3, [fp, #-16]
70009078:	e2433030 	sub	r3, r3, #48	; 0x30
7000907c:	e50b3010 	str	r3, [fp, #-16]
/media/D/linux-share/projects/trustzone/client/src/lib/vsprintf.c:96
70009080:	e51b307c 	ldr	r3, [fp, #-124]	; 0x7c
70009084:	e5d33000 	ldrb	r3, [r3]
70009088:	e353006c 	cmp	r3, #108	; 0x6c
7000908c:	1a000003 	bne	700090a0 <sw_vsprintf+0x124>
/media/D/linux-share/projects/trustzone/client/src/lib/vsprintf.c:99
70009090:	e51b307c 	ldr	r3, [fp, #-124]	; 0x7c
70009094:	e2833001 	add	r3, r3, #1
70009098:	e50b307c 	str	r3, [fp, #-124]	; 0x7c
/media/D/linux-share/projects/trustzone/client/src/lib/vsprintf.c:100
7000909c:	e1a00000 	nop			; (mov r0, r0)
/media/D/linux-share/projects/trustzone/client/src/lib/vsprintf.c:104
700090a0:	e51b307c 	ldr	r3, [fp, #-124]	; 0x7c
700090a4:	e5d33000 	ldrb	r3, [r3]
700090a8:	e353006f 	cmp	r3, #111	; 0x6f
700090ac:	0a0000f8 	beq	70009494 <sw_vsprintf+0x518>
700090b0:	e353006f 	cmp	r3, #111	; 0x6f
700090b4:	ca000011 	bgt	70009100 <sw_vsprintf+0x184>
700090b8:	e3530064 	cmp	r3, #100	; 0x64
700090bc:	0a000078 	beq	700092a4 <sw_vsprintf+0x328>
700090c0:	e3530064 	cmp	r3, #100	; 0x64
700090c4:	ca00000a 	bgt	700090f4 <sw_vsprintf+0x178>
700090c8:	e3530063 	cmp	r3, #99	; 0x63
700090cc:	0a000166 	beq	7000966c <sw_vsprintf+0x6f0>
700090d0:	e3530025 	cmp	r3, #37	; 0x25
700090d4:	0a000170 	beq	7000969c <sw_vsprintf+0x720>
700090d8:	e3530025 	cmp	r3, #37	; 0x25
700090dc:	ca000197 	bgt	70009740 <sw_vsprintf+0x7c4>
700090e0:	e3530009 	cmp	r3, #9
700090e4:	0a000174 	beq	700096bc <sw_vsprintf+0x740>
700090e8:	e353000a 	cmp	r3, #10
700090ec:	0a000180 	beq	700096f4 <sw_vsprintf+0x778>
700090f0:	ea000192 	b	70009740 <sw_vsprintf+0x7c4>
700090f4:	e3530069 	cmp	r3, #105	; 0x69
700090f8:	0a000069 	beq	700092a4 <sw_vsprintf+0x328>
700090fc:	ea00018f 	b	70009740 <sw_vsprintf+0x7c4>
70009100:	e3530075 	cmp	r3, #117	; 0x75
70009104:	0a000064 	beq	7000929c <sw_vsprintf+0x320>
70009108:	e3530078 	cmp	r3, #120	; 0x78
7000910c:	0a000002 	beq	7000911c <sw_vsprintf+0x1a0>
70009110:	e3530073 	cmp	r3, #115	; 0x73
70009114:	0a00013b 	beq	70009608 <sw_vsprintf+0x68c>
70009118:	ea000188 	b	70009740 <sw_vsprintf+0x7c4>
/media/D/linux-share/projects/trustzone/client/src/lib/vsprintf.c:107
7000911c:	e51b3080 	ldr	r3, [fp, #-128]	; 0x80
70009120:	e2832004 	add	r2, r3, #4
70009124:	e50b2080 	str	r2, [fp, #-128]	; 0x80
70009128:	e5933000 	ldr	r3, [r3]
7000912c:	e50b304c 	str	r3, [fp, #-76]	; 0x4c
/media/D/linux-share/projects/trustzone/client/src/lib/vsprintf.c:108
70009130:	e3a03008 	mov	r3, #8
70009134:	e50b3050 	str	r3, [fp, #-80]	; 0x50
/media/D/linux-share/projects/trustzone/client/src/lib/vsprintf.c:109
70009138:	e3a03020 	mov	r3, #32
7000913c:	e50b3054 	str	r3, [fp, #-84]	; 0x54
/media/D/linux-share/projects/trustzone/client/src/lib/vsprintf.c:110
70009140:	e3a03000 	mov	r3, #0
70009144:	e50b3014 	str	r3, [fp, #-20]
/media/D/linux-share/projects/trustzone/client/src/lib/vsprintf.c:111
70009148:	e3a03000 	mov	r3, #0
7000914c:	e50b3018 	str	r3, [fp, #-24]
/media/D/linux-share/projects/trustzone/client/src/lib/vsprintf.c:112
70009150:	e3a03000 	mov	r3, #0
70009154:	e50b301c 	str	r3, [fp, #-28]
/media/D/linux-share/projects/trustzone/client/src/lib/vsprintf.c:114
70009158:	e3a03000 	mov	r3, #0
7000915c:	e50b3018 	str	r3, [fp, #-24]
70009160:	ea000048 	b	70009288 <sw_vsprintf+0x30c>
/media/D/linux-share/projects/trustzone/client/src/lib/vsprintf.c:115
70009164:	e51b3018 	ldr	r3, [fp, #-24]
70009168:	e1e03003 	mvn	r3, r3
7000916c:	e1a02103 	lsl	r2, r3, #2
70009170:	e51b3054 	ldr	r3, [fp, #-84]	; 0x54
70009174:	e0823003 	add	r3, r2, r3
70009178:	e51b204c 	ldr	r2, [fp, #-76]	; 0x4c
7000917c:	e1a03352 	asr	r3, r2, r3
70009180:	e50b3014 	str	r3, [fp, #-20]
/media/D/linux-share/projects/trustzone/client/src/lib/vsprintf.c:116
70009184:	e51b3014 	ldr	r3, [fp, #-20]
70009188:	e203300f 	and	r3, r3, #15
7000918c:	e50b3014 	str	r3, [fp, #-20]
/media/D/linux-share/projects/trustzone/client/src/lib/vsprintf.c:117
70009190:	e51b3014 	ldr	r3, [fp, #-20]
70009194:	e3530000 	cmp	r3, #0
70009198:	0a000001 	beq	700091a4 <sw_vsprintf+0x228>
/media/D/linux-share/projects/trustzone/client/src/lib/vsprintf.c:118
7000919c:	e3a03001 	mov	r3, #1
700091a0:	e50b301c 	str	r3, [fp, #-28]
/media/D/linux-share/projects/trustzone/client/src/lib/vsprintf.c:120
700091a4:	e51b301c 	ldr	r3, [fp, #-28]
700091a8:	e3530000 	cmp	r3, #0
700091ac:	1a000004 	bne	700091c4 <sw_vsprintf+0x248>
700091b0:	e51b3010 	ldr	r3, [fp, #-16]
700091b4:	e2632008 	rsb	r2, r3, #8
700091b8:	e51b3018 	ldr	r3, [fp, #-24]
700091bc:	e1520003 	cmp	r2, r3
700091c0:	ca00002d 	bgt	7000927c <sw_vsprintf+0x300>
/media/D/linux-share/projects/trustzone/client/src/lib/vsprintf.c:121
700091c4:	e51b3014 	ldr	r3, [fp, #-20]
700091c8:	e3530000 	cmp	r3, #0
700091cc:	ba000006 	blt	700091ec <sw_vsprintf+0x270>
700091d0:	e51b3014 	ldr	r3, [fp, #-20]
700091d4:	e3530009 	cmp	r3, #9
700091d8:	ca000003 	bgt	700091ec <sw_vsprintf+0x270>
/media/D/linux-share/projects/trustzone/client/src/lib/vsprintf.c:122
700091dc:	e51b3014 	ldr	r3, [fp, #-20]
700091e0:	e2833030 	add	r3, r3, #48	; 0x30
700091e4:	e50b3014 	str	r3, [fp, #-20]
700091e8:	ea00001c 	b	70009260 <sw_vsprintf+0x2e4>
/media/D/linux-share/projects/trustzone/client/src/lib/vsprintf.c:125
700091ec:	e51b3014 	ldr	r3, [fp, #-20]
700091f0:	e243300a 	sub	r3, r3, #10
700091f4:	e3530005 	cmp	r3, #5
700091f8:	979ff103 	ldrls	pc, [pc, r3, lsl #2]
700091fc:	ea000017 	b	70009260 <sw_vsprintf+0x2e4>
70009200:	70009218 	andvc	r9, r0, r8, lsl r2
70009204:	70009224 	andvc	r9, r0, r4, lsr #4
70009208:	70009230 	andvc	r9, r0, r0, lsr r2
7000920c:	7000923c 	andvc	r9, r0, ip, lsr r2
70009210:	70009248 	andvc	r9, r0, r8, asr #4
70009214:	70009254 	andvc	r9, r0, r4, asr r2
/media/D/linux-share/projects/trustzone/client/src/lib/vsprintf.c:127
70009218:	e3a03061 	mov	r3, #97	; 0x61
7000921c:	e50b3014 	str	r3, [fp, #-20]
/media/D/linux-share/projects/trustzone/client/src/lib/vsprintf.c:128
70009220:	ea00000e 	b	70009260 <sw_vsprintf+0x2e4>
/media/D/linux-share/projects/trustzone/client/src/lib/vsprintf.c:130
70009224:	e3a03062 	mov	r3, #98	; 0x62
70009228:	e50b3014 	str	r3, [fp, #-20]
/media/D/linux-share/projects/trustzone/client/src/lib/vsprintf.c:131
7000922c:	ea00000b 	b	70009260 <sw_vsprintf+0x2e4>
/media/D/linux-share/projects/trustzone/client/src/lib/vsprintf.c:133
70009230:	e3a03063 	mov	r3, #99	; 0x63
70009234:	e50b3014 	str	r3, [fp, #-20]
/media/D/linux-share/projects/trustzone/client/src/lib/vsprintf.c:134
70009238:	ea000008 	b	70009260 <sw_vsprintf+0x2e4>
/media/D/linux-share/projects/trustzone/client/src/lib/vsprintf.c:136
7000923c:	e3a03064 	mov	r3, #100	; 0x64
70009240:	e50b3014 	str	r3, [fp, #-20]
/media/D/linux-share/projects/trustzone/client/src/lib/vsprintf.c:137
70009244:	ea000005 	b	70009260 <sw_vsprintf+0x2e4>
/media/D/linux-share/projects/trustzone/client/src/lib/vsprintf.c:139
70009248:	e3a03065 	mov	r3, #101	; 0x65
7000924c:	e50b3014 	str	r3, [fp, #-20]
/media/D/linux-share/projects/trustzone/client/src/lib/vsprintf.c:140
70009250:	ea000002 	b	70009260 <sw_vsprintf+0x2e4>
/media/D/linux-share/projects/trustzone/client/src/lib/vsprintf.c:142
70009254:	e3a03066 	mov	r3, #102	; 0x66
70009258:	e50b3014 	str	r3, [fp, #-20]
/media/D/linux-share/projects/trustzone/client/src/lib/vsprintf.c:143
7000925c:	e1a00000 	nop			; (mov r0, r0)
/media/D/linux-share/projects/trustzone/client/src/lib/vsprintf.c:146
70009260:	e51b3014 	ldr	r3, [fp, #-20]
70009264:	e6ef2073 	uxtb	r2, r3
70009268:	e51b3008 	ldr	r3, [fp, #-8]
7000926c:	e5c32000 	strb	r2, [r3]
70009270:	e51b3008 	ldr	r3, [fp, #-8]
70009274:	e2833001 	add	r3, r3, #1
70009278:	e50b3008 	str	r3, [fp, #-8]
/media/D/linux-share/projects/trustzone/client/src/lib/vsprintf.c:114
7000927c:	e51b3018 	ldr	r3, [fp, #-24]
70009280:	e2833001 	add	r3, r3, #1
70009284:	e50b3018 	str	r3, [fp, #-24]
70009288:	e51b2018 	ldr	r2, [fp, #-24]
7000928c:	e51b3050 	ldr	r3, [fp, #-80]	; 0x50
70009290:	e1520003 	cmp	r2, r3
70009294:	baffffb2 	blt	70009164 <sw_vsprintf+0x1e8>
/media/D/linux-share/projects/trustzone/client/src/lib/vsprintf.c:149
70009298:	ea000135 	b	70009774 <sw_vsprintf+0x7f8>
/media/D/linux-share/projects/trustzone/client/src/lib/vsprintf.c:152
7000929c:	e3a03001 	mov	r3, #1
700092a0:	e50b300c 	str	r3, [fp, #-12]
/media/D/linux-share/projects/trustzone/client/src/lib/vsprintf.c:157
700092a4:	e3a03001 	mov	r3, #1
700092a8:	e50b3030 	str	r3, [fp, #-48]	; 0x30
700092ac:	e3a03000 	mov	r3, #0
700092b0:	e50b3034 	str	r3, [fp, #-52]	; 0x34
/media/D/linux-share/projects/trustzone/client/src/lib/vsprintf.c:158
700092b4:	e3a03000 	mov	r3, #0
700092b8:	e50b3038 	str	r3, [fp, #-56]	; 0x38
/media/D/linux-share/projects/trustzone/client/src/lib/vsprintf.c:160
700092bc:	e51b300c 	ldr	r3, [fp, #-12]
700092c0:	e3530000 	cmp	r3, #0
700092c4:	1a000013 	bne	70009318 <sw_vsprintf+0x39c>
/media/D/linux-share/projects/trustzone/client/src/lib/vsprintf.c:161
700092c8:	e51b3080 	ldr	r3, [fp, #-128]	; 0x80
700092cc:	e2832004 	add	r2, r3, #4
700092d0:	e50b2080 	str	r2, [fp, #-128]	; 0x80
700092d4:	e5933000 	ldr	r3, [r3]
700092d8:	e50b303c 	str	r3, [fp, #-60]	; 0x3c
/media/D/linux-share/projects/trustzone/client/src/lib/vsprintf.c:162
700092dc:	e51b303c 	ldr	r3, [fp, #-60]	; 0x3c
700092e0:	e3530000 	cmp	r3, #0
700092e4:	aa000008 	bge	7000930c <sw_vsprintf+0x390>
/media/D/linux-share/projects/trustzone/client/src/lib/vsprintf.c:163
700092e8:	e51b3008 	ldr	r3, [fp, #-8]
700092ec:	e3a0202d 	mov	r2, #45	; 0x2d
700092f0:	e5c32000 	strb	r2, [r3]
700092f4:	e51b3008 	ldr	r3, [fp, #-8]
700092f8:	e2833001 	add	r3, r3, #1
700092fc:	e50b3008 	str	r3, [fp, #-8]
/media/D/linux-share/projects/trustzone/client/src/lib/vsprintf.c:164
70009300:	e51b303c 	ldr	r3, [fp, #-60]	; 0x3c
70009304:	e2633000 	rsb	r3, r3, #0
70009308:	e50b303c 	str	r3, [fp, #-60]	; 0x3c
/media/D/linux-share/projects/trustzone/client/src/lib/vsprintf.c:166
7000930c:	e51b303c 	ldr	r3, [fp, #-60]	; 0x3c
70009310:	e50b3028 	str	r3, [fp, #-40]	; 0x28
70009314:	ea000006 	b	70009334 <sw_vsprintf+0x3b8>
/media/D/linux-share/projects/trustzone/client/src/lib/vsprintf.c:169
70009318:	e51b3080 	ldr	r3, [fp, #-128]	; 0x80
7000931c:	e2832004 	add	r2, r3, #4
70009320:	e50b2080 	str	r2, [fp, #-128]	; 0x80
70009324:	e5933000 	ldr	r3, [r3]
70009328:	e50b3058 	str	r3, [fp, #-88]	; 0x58
/media/D/linux-share/projects/trustzone/client/src/lib/vsprintf.c:170
7000932c:	e51b3058 	ldr	r3, [fp, #-88]	; 0x58
70009330:	e50b3028 	str	r3, [fp, #-40]	; 0x28
/media/D/linux-share/projects/trustzone/client/src/lib/vsprintf.c:173
70009334:	e3a03cca 	mov	r3, #51712	; 0xca00
70009338:	e3433b9a 	movt	r3, #15258	; 0x3b9a
7000933c:	e50b302c 	str	r3, [fp, #-44]	; 0x2c
/media/D/linux-share/projects/trustzone/client/src/lib/vsprintf.c:174
70009340:	e3a0300a 	mov	r3, #10
70009344:	e50b305c 	str	r3, [fp, #-92]	; 0x5c
/media/D/linux-share/projects/trustzone/client/src/lib/vsprintf.c:175
70009348:	e51b305c 	ldr	r3, [fp, #-92]	; 0x5c
7000934c:	e2433001 	sub	r3, r3, #1
70009350:	e50b3060 	str	r3, [fp, #-96]	; 0x60
/media/D/linux-share/projects/trustzone/client/src/lib/vsprintf.c:177
70009354:	e3a03000 	mov	r3, #0
70009358:	e50b3020 	str	r3, [fp, #-32]
7000935c:	ea00003e 	b	7000945c <sw_vsprintf+0x4e0>
/media/D/linux-share/projects/trustzone/client/src/lib/vsprintf.c:179
70009360:	e51b2028 	ldr	r2, [fp, #-40]	; 0x28
70009364:	e51b302c 	ldr	r3, [fp, #-44]	; 0x2c
70009368:	e0633002 	rsb	r3, r3, r2
7000936c:	e50b3028 	str	r3, [fp, #-40]	; 0x28
/media/D/linux-share/projects/trustzone/client/src/lib/vsprintf.c:180
70009370:	e51b3034 	ldr	r3, [fp, #-52]	; 0x34
70009374:	e2833001 	add	r3, r3, #1
70009378:	e50b3034 	str	r3, [fp, #-52]	; 0x34
/media/D/linux-share/projects/trustzone/client/src/lib/vsprintf.c:178
7000937c:	e51b2028 	ldr	r2, [fp, #-40]	; 0x28
70009380:	e51b302c 	ldr	r3, [fp, #-44]	; 0x2c
70009384:	e1520003 	cmp	r2, r3
70009388:	aafffff4 	bge	70009360 <sw_vsprintf+0x3e4>
/media/D/linux-share/projects/trustzone/client/src/lib/vsprintf.c:182
7000938c:	e51b3034 	ldr	r3, [fp, #-52]	; 0x34
70009390:	e3530000 	cmp	r3, #0
70009394:	0a000001 	beq	700093a0 <sw_vsprintf+0x424>
/media/D/linux-share/projects/trustzone/client/src/lib/vsprintf.c:183
70009398:	e3a03001 	mov	r3, #1
7000939c:	e50b3038 	str	r3, [fp, #-56]	; 0x38
/media/D/linux-share/projects/trustzone/client/src/lib/vsprintf.c:184
700093a0:	e51b3038 	ldr	r3, [fp, #-56]	; 0x38
700093a4:	e3530000 	cmp	r3, #0
700093a8:	1a000007 	bne	700093cc <sw_vsprintf+0x450>
700093ac:	e51b3060 	ldr	r3, [fp, #-96]	; 0x60
700093b0:	e2432001 	sub	r2, r3, #1
700093b4:	e51b3010 	ldr	r3, [fp, #-16]
700093b8:	e2633001 	rsb	r3, r3, #1
700093bc:	e0822003 	add	r2, r2, r3
700093c0:	e51b3020 	ldr	r3, [fp, #-32]
700093c4:	e1520003 	cmp	r2, r3
700093c8:	aa000009 	bge	700093f4 <sw_vsprintf+0x478>
/media/D/linux-share/projects/trustzone/client/src/lib/vsprintf.c:185
700093cc:	e51b3034 	ldr	r3, [fp, #-52]	; 0x34
700093d0:	e2833030 	add	r3, r3, #48	; 0x30
700093d4:	e50b3034 	str	r3, [fp, #-52]	; 0x34
/media/D/linux-share/projects/trustzone/client/src/lib/vsprintf.c:186
700093d8:	e51b3034 	ldr	r3, [fp, #-52]	; 0x34
700093dc:	e6ef2073 	uxtb	r2, r3
700093e0:	e51b3008 	ldr	r3, [fp, #-8]
700093e4:	e5c32000 	strb	r2, [r3]
700093e8:	e51b3008 	ldr	r3, [fp, #-8]
700093ec:	e2833001 	add	r3, r3, #1
700093f0:	e50b3008 	str	r3, [fp, #-8]
/media/D/linux-share/projects/trustzone/client/src/lib/vsprintf.c:188
700093f4:	e51b3020 	ldr	r3, [fp, #-32]
700093f8:	e50b3024 	str	r3, [fp, #-36]	; 0x24
/media/D/linux-share/projects/trustzone/client/src/lib/vsprintf.c:189
700093fc:	ea000008 	b	70009424 <sw_vsprintf+0x4a8>
/media/D/linux-share/projects/trustzone/client/src/lib/vsprintf.c:190
70009400:	e51b2030 	ldr	r2, [fp, #-48]	; 0x30
70009404:	e1a03002 	mov	r3, r2
70009408:	e1a03103 	lsl	r3, r3, #2
7000940c:	e0833002 	add	r3, r3, r2
70009410:	e1a03083 	lsl	r3, r3, #1
70009414:	e50b3030 	str	r3, [fp, #-48]	; 0x30
/media/D/linux-share/projects/trustzone/client/src/lib/vsprintf.c:191
70009418:	e51b3024 	ldr	r3, [fp, #-36]	; 0x24
7000941c:	e2833001 	add	r3, r3, #1
70009420:	e50b3024 	str	r3, [fp, #-36]	; 0x24
/media/D/linux-share/projects/trustzone/client/src/lib/vsprintf.c:189
70009424:	e51b3060 	ldr	r3, [fp, #-96]	; 0x60
70009428:	e2432001 	sub	r2, r3, #1
7000942c:	e51b3024 	ldr	r3, [fp, #-36]	; 0x24
70009430:	e1520003 	cmp	r2, r3
70009434:	cafffff1 	bgt	70009400 <sw_vsprintf+0x484>
/media/D/linux-share/projects/trustzone/client/src/lib/vsprintf.c:193
70009438:	e3a03000 	mov	r3, #0
7000943c:	e50b3034 	str	r3, [fp, #-52]	; 0x34
/media/D/linux-share/projects/trustzone/client/src/lib/vsprintf.c:194
70009440:	e51b3030 	ldr	r3, [fp, #-48]	; 0x30
70009444:	e50b302c 	str	r3, [fp, #-44]	; 0x2c
/media/D/linux-share/projects/trustzone/client/src/lib/vsprintf.c:195
70009448:	e3a03001 	mov	r3, #1
7000944c:	e50b3030 	str	r3, [fp, #-48]	; 0x30
/media/D/linux-share/projects/trustzone/client/src/lib/vsprintf.c:177
70009450:	e51b3020 	ldr	r3, [fp, #-32]
70009454:	e2833001 	add	r3, r3, #1
70009458:	e50b3020 	str	r3, [fp, #-32]
7000945c:	e51b2020 	ldr	r2, [fp, #-32]
70009460:	e51b3060 	ldr	r3, [fp, #-96]	; 0x60
70009464:	e1520003 	cmp	r2, r3
70009468:	baffffc3 	blt	7000937c <sw_vsprintf+0x400>
/media/D/linux-share/projects/trustzone/client/src/lib/vsprintf.c:197
7000946c:	e51b3028 	ldr	r3, [fp, #-40]	; 0x28
70009470:	e6ef3073 	uxtb	r3, r3
70009474:	e2833030 	add	r3, r3, #48	; 0x30
70009478:	e6ef2073 	uxtb	r2, r3
7000947c:	e51b3008 	ldr	r3, [fp, #-8]
70009480:	e5c32000 	strb	r2, [r3]
70009484:	e51b3008 	ldr	r3, [fp, #-8]
70009488:	e2833001 	add	r3, r3, #1
7000948c:	e50b3008 	str	r3, [fp, #-8]
/media/D/linux-share/projects/trustzone/client/src/lib/vsprintf.c:198
70009490:	ea0000b7 	b	70009774 <sw_vsprintf+0x7f8>
/media/D/linux-share/projects/trustzone/client/src/lib/vsprintf.c:202
70009494:	e3a0300a 	mov	r3, #10
70009498:	e50b3064 	str	r3, [fp, #-100]	; 0x64
7000949c:	e3a03020 	mov	r3, #32
700094a0:	e50b3068 	str	r3, [fp, #-104]	; 0x68
700094a4:	e3a03000 	mov	r3, #0
700094a8:	e50b306c 	str	r3, [fp, #-108]	; 0x6c
700094ac:	e3a03000 	mov	r3, #0
700094b0:	e50b3040 	str	r3, [fp, #-64]	; 0x40
/media/D/linux-share/projects/trustzone/client/src/lib/vsprintf.c:203
700094b4:	e3a03000 	mov	r3, #0
700094b8:	e50b3044 	str	r3, [fp, #-68]	; 0x44
/media/D/linux-share/projects/trustzone/client/src/lib/vsprintf.c:205
700094bc:	e51b3080 	ldr	r3, [fp, #-128]	; 0x80
700094c0:	e2832004 	add	r2, r3, #4
700094c4:	e50b2080 	str	r2, [fp, #-128]	; 0x80
700094c8:	e5933000 	ldr	r3, [r3]
700094cc:	e50b3070 	str	r3, [fp, #-112]	; 0x70
/media/D/linux-share/projects/trustzone/client/src/lib/vsprintf.c:206
700094d0:	e51b3070 	ldr	r3, [fp, #-112]	; 0x70
700094d4:	e1a03f43 	asr	r3, r3, #30
700094d8:	e50b306c 	str	r3, [fp, #-108]	; 0x6c
/media/D/linux-share/projects/trustzone/client/src/lib/vsprintf.c:207
700094dc:	e51b306c 	ldr	r3, [fp, #-108]	; 0x6c
700094e0:	e2033003 	and	r3, r3, #3
700094e4:	e50b306c 	str	r3, [fp, #-108]	; 0x6c
/media/D/linux-share/projects/trustzone/client/src/lib/vsprintf.c:208
700094e8:	e51b306c 	ldr	r3, [fp, #-108]	; 0x6c
700094ec:	e3530000 	cmp	r3, #0
700094f0:	0a000001 	beq	700094fc <sw_vsprintf+0x580>
/media/D/linux-share/projects/trustzone/client/src/lib/vsprintf.c:209
700094f4:	e3a03001 	mov	r3, #1
700094f8:	e50b3044 	str	r3, [fp, #-68]	; 0x44
/media/D/linux-share/projects/trustzone/client/src/lib/vsprintf.c:211
700094fc:	e51b3044 	ldr	r3, [fp, #-68]	; 0x44
70009500:	e3530000 	cmp	r3, #0
70009504:	1a000003 	bne	70009518 <sw_vsprintf+0x59c>
70009508:	e51b2010 	ldr	r2, [fp, #-16]
7000950c:	e51b3064 	ldr	r3, [fp, #-100]	; 0x64
70009510:	e1520003 	cmp	r2, r3
70009514:	da000009 	ble	70009540 <sw_vsprintf+0x5c4>
/media/D/linux-share/projects/trustzone/client/src/lib/vsprintf.c:212
70009518:	e51b306c 	ldr	r3, [fp, #-108]	; 0x6c
7000951c:	e2833030 	add	r3, r3, #48	; 0x30
70009520:	e50b306c 	str	r3, [fp, #-108]	; 0x6c
/media/D/linux-share/projects/trustzone/client/src/lib/vsprintf.c:213
70009524:	e51b306c 	ldr	r3, [fp, #-108]	; 0x6c
70009528:	e6ef2073 	uxtb	r2, r3
7000952c:	e51b3008 	ldr	r3, [fp, #-8]
70009530:	e5c32000 	strb	r2, [r3]
70009534:	e51b3008 	ldr	r3, [fp, #-8]
70009538:	e2833001 	add	r3, r3, #1
7000953c:	e50b3008 	str	r3, [fp, #-8]
/media/D/linux-share/projects/trustzone/client/src/lib/vsprintf.c:216
70009540:	e51b3070 	ldr	r3, [fp, #-112]	; 0x70
70009544:	e1a03103 	lsl	r3, r3, #2
70009548:	e50b3070 	str	r3, [fp, #-112]	; 0x70
/media/D/linux-share/projects/trustzone/client/src/lib/vsprintf.c:217
7000954c:	e3a03000 	mov	r3, #0
70009550:	e50b3040 	str	r3, [fp, #-64]	; 0x40
70009554:	ea000026 	b	700095f4 <sw_vsprintf+0x678>
/media/D/linux-share/projects/trustzone/client/src/lib/vsprintf.c:218
70009558:	e51b3040 	ldr	r3, [fp, #-64]	; 0x40
7000955c:	e1e02003 	mvn	r2, r3
70009560:	e1a03002 	mov	r3, r2
70009564:	e1a03083 	lsl	r3, r3, #1
70009568:	e0832002 	add	r2, r3, r2
7000956c:	e51b3068 	ldr	r3, [fp, #-104]	; 0x68
70009570:	e0823003 	add	r3, r2, r3
70009574:	e51b2070 	ldr	r2, [fp, #-112]	; 0x70
70009578:	e1a03352 	asr	r3, r2, r3
7000957c:	e50b306c 	str	r3, [fp, #-108]	; 0x6c
/media/D/linux-share/projects/trustzone/client/src/lib/vsprintf.c:219
70009580:	e51b306c 	ldr	r3, [fp, #-108]	; 0x6c
70009584:	e2033007 	and	r3, r3, #7
70009588:	e50b306c 	str	r3, [fp, #-108]	; 0x6c
/media/D/linux-share/projects/trustzone/client/src/lib/vsprintf.c:220
7000958c:	e51b306c 	ldr	r3, [fp, #-108]	; 0x6c
70009590:	e3530000 	cmp	r3, #0
70009594:	0a000001 	beq	700095a0 <sw_vsprintf+0x624>
/media/D/linux-share/projects/trustzone/client/src/lib/vsprintf.c:221
70009598:	e3a03001 	mov	r3, #1
7000959c:	e50b3044 	str	r3, [fp, #-68]	; 0x44
/media/D/linux-share/projects/trustzone/client/src/lib/vsprintf.c:223
700095a0:	e51b3044 	ldr	r3, [fp, #-68]	; 0x44
700095a4:	e3530000 	cmp	r3, #0
700095a8:	1a000004 	bne	700095c0 <sw_vsprintf+0x644>
700095ac:	e51b3010 	ldr	r3, [fp, #-16]
700095b0:	e263200a 	rsb	r2, r3, #10
700095b4:	e51b3040 	ldr	r3, [fp, #-64]	; 0x40
700095b8:	e1520003 	cmp	r2, r3
700095bc:	ca000009 	bgt	700095e8 <sw_vsprintf+0x66c>
/media/D/linux-share/projects/trustzone/client/src/lib/vsprintf.c:224
700095c0:	e51b306c 	ldr	r3, [fp, #-108]	; 0x6c
700095c4:	e2833030 	add	r3, r3, #48	; 0x30
700095c8:	e50b306c 	str	r3, [fp, #-108]	; 0x6c
/media/D/linux-share/projects/trustzone/client/src/lib/vsprintf.c:225
700095cc:	e51b306c 	ldr	r3, [fp, #-108]	; 0x6c
700095d0:	e6ef2073 	uxtb	r2, r3
700095d4:	e51b3008 	ldr	r3, [fp, #-8]
700095d8:	e5c32000 	strb	r2, [r3]
700095dc:	e51b3008 	ldr	r3, [fp, #-8]
700095e0:	e2833001 	add	r3, r3, #1
700095e4:	e50b3008 	str	r3, [fp, #-8]
/media/D/linux-share/projects/trustzone/client/src/lib/vsprintf.c:217
700095e8:	e51b3040 	ldr	r3, [fp, #-64]	; 0x40
700095ec:	e2833001 	add	r3, r3, #1
700095f0:	e50b3040 	str	r3, [fp, #-64]	; 0x40
700095f4:	e51b2040 	ldr	r2, [fp, #-64]	; 0x40
700095f8:	e51b3064 	ldr	r3, [fp, #-100]	; 0x64
700095fc:	e1520003 	cmp	r2, r3
70009600:	baffffd4 	blt	70009558 <sw_vsprintf+0x5dc>
/media/D/linux-share/projects/trustzone/client/src/lib/vsprintf.c:228
70009604:	ea00005a 	b	70009774 <sw_vsprintf+0x7f8>
/media/D/linux-share/projects/trustzone/client/src/lib/vsprintf.c:232
70009608:	e51b3080 	ldr	r3, [fp, #-128]	; 0x80
7000960c:	e2832004 	add	r2, r3, #4
70009610:	e50b2080 	str	r2, [fp, #-128]	; 0x80
70009614:	e5933000 	ldr	r3, [r3]
70009618:	e50b3048 	str	r3, [fp, #-72]	; 0x48
/media/D/linux-share/projects/trustzone/client/src/lib/vsprintf.c:233
7000961c:	ea000002 	b	7000962c <sw_vsprintf+0x6b0>
/media/D/linux-share/projects/trustzone/client/src/lib/vsprintf.c:234
70009620:	e51b3008 	ldr	r3, [fp, #-8]
70009624:	e2833001 	add	r3, r3, #1
70009628:	e50b3008 	str	r3, [fp, #-8]
/media/D/linux-share/projects/trustzone/client/src/lib/vsprintf.c:233
7000962c:	e51b3048 	ldr	r3, [fp, #-72]	; 0x48
70009630:	e5d32000 	ldrb	r2, [r3]
70009634:	e51b3008 	ldr	r3, [fp, #-8]
70009638:	e5c32000 	strb	r2, [r3]
7000963c:	e51b3008 	ldr	r3, [fp, #-8]
70009640:	e5d33000 	ldrb	r3, [r3]
70009644:	e3530000 	cmp	r3, #0
70009648:	03a03000 	moveq	r3, #0
7000964c:	13a03001 	movne	r3, #1
70009650:	e6ef3073 	uxtb	r3, r3
70009654:	e51b2048 	ldr	r2, [fp, #-72]	; 0x48
70009658:	e2822001 	add	r2, r2, #1
7000965c:	e50b2048 	str	r2, [fp, #-72]	; 0x48
70009660:	e3530000 	cmp	r3, #0
70009664:	1affffed 	bne	70009620 <sw_vsprintf+0x6a4>
/media/D/linux-share/projects/trustzone/client/src/lib/vsprintf.c:236
70009668:	ea000041 	b	70009774 <sw_vsprintf+0x7f8>
/media/D/linux-share/projects/trustzone/client/src/lib/vsprintf.c:241
7000966c:	e51b3080 	ldr	r3, [fp, #-128]	; 0x80
70009670:	e2832004 	add	r2, r3, #4
70009674:	e50b2080 	str	r2, [fp, #-128]	; 0x80
70009678:	e5933000 	ldr	r3, [r3]
7000967c:	e54b3071 	strb	r3, [fp, #-113]	; 0x71
/media/D/linux-share/projects/trustzone/client/src/lib/vsprintf.c:243
70009680:	e51b3008 	ldr	r3, [fp, #-8]
70009684:	e55b2071 	ldrb	r2, [fp, #-113]	; 0x71
70009688:	e5c32000 	strb	r2, [r3]
7000968c:	e51b3008 	ldr	r3, [fp, #-8]
70009690:	e2833001 	add	r3, r3, #1
70009694:	e50b3008 	str	r3, [fp, #-8]
/media/D/linux-share/projects/trustzone/client/src/lib/vsprintf.c:244
70009698:	ea000035 	b	70009774 <sw_vsprintf+0x7f8>
/media/D/linux-share/projects/trustzone/client/src/lib/vsprintf.c:248
7000969c:	e51b307c 	ldr	r3, [fp, #-124]	; 0x7c
700096a0:	e5d32000 	ldrb	r2, [r3]
700096a4:	e51b3008 	ldr	r3, [fp, #-8]
700096a8:	e5c32000 	strb	r2, [r3]
700096ac:	e51b3008 	ldr	r3, [fp, #-8]
700096b0:	e2833001 	add	r3, r3, #1
700096b4:	e50b3008 	str	r3, [fp, #-8]
/media/D/linux-share/projects/trustzone/client/src/lib/vsprintf.c:249
700096b8:	ea00002d 	b	70009774 <sw_vsprintf+0x7f8>
/media/D/linux-share/projects/trustzone/client/src/lib/vsprintf.c:253
700096bc:	e51b3008 	ldr	r3, [fp, #-8]
700096c0:	e3a02025 	mov	r2, #37	; 0x25
700096c4:	e5c32000 	strb	r2, [r3]
700096c8:	e51b3008 	ldr	r3, [fp, #-8]
700096cc:	e2833001 	add	r3, r3, #1
700096d0:	e50b3008 	str	r3, [fp, #-8]
/media/D/linux-share/projects/trustzone/client/src/lib/vsprintf.c:254
700096d4:	e51b307c 	ldr	r3, [fp, #-124]	; 0x7c
700096d8:	e5d32000 	ldrb	r2, [r3]
700096dc:	e51b3008 	ldr	r3, [fp, #-8]
700096e0:	e5c32000 	strb	r2, [r3]
700096e4:	e51b3008 	ldr	r3, [fp, #-8]
700096e8:	e2833001 	add	r3, r3, #1
700096ec:	e50b3008 	str	r3, [fp, #-8]
/media/D/linux-share/projects/trustzone/client/src/lib/vsprintf.c:255
700096f0:	ea00001f 	b	70009774 <sw_vsprintf+0x7f8>
/media/D/linux-share/projects/trustzone/client/src/lib/vsprintf.c:259
700096f4:	e51b3008 	ldr	r3, [fp, #-8]
700096f8:	e3a02025 	mov	r2, #37	; 0x25
700096fc:	e5c32000 	strb	r2, [r3]
70009700:	e51b3008 	ldr	r3, [fp, #-8]
70009704:	e2833001 	add	r3, r3, #1
70009708:	e50b3008 	str	r3, [fp, #-8]
/media/D/linux-share/projects/trustzone/client/src/lib/vsprintf.c:260
7000970c:	e51b3008 	ldr	r3, [fp, #-8]
70009710:	e3a0200d 	mov	r2, #13
70009714:	e5c32000 	strb	r2, [r3]
70009718:	e51b3008 	ldr	r3, [fp, #-8]
7000971c:	e2833001 	add	r3, r3, #1
70009720:	e50b3008 	str	r3, [fp, #-8]
/media/D/linux-share/projects/trustzone/client/src/lib/vsprintf.c:261
70009724:	e51b3008 	ldr	r3, [fp, #-8]
70009728:	e3a0200a 	mov	r2, #10
7000972c:	e5c32000 	strb	r2, [r3]
70009730:	e51b3008 	ldr	r3, [fp, #-8]
70009734:	e2833001 	add	r3, r3, #1
70009738:	e50b3008 	str	r3, [fp, #-8]
/media/D/linux-share/projects/trustzone/client/src/lib/vsprintf.c:262
7000973c:	ea00000c 	b	70009774 <sw_vsprintf+0x7f8>
/media/D/linux-share/projects/trustzone/client/src/lib/vsprintf.c:266
70009740:	e30a011c 	movw	r0, #41244	; 0xa11c
70009744:	e3470000 	movt	r0, #28672	; 0x7000
70009748:	ebfffb82 	bl	70008558 <pl011_uart_puts>
/media/D/linux-share/projects/trustzone/client/src/lib/vsprintf.c:267
7000974c:	e51b307c 	ldr	r3, [fp, #-124]	; 0x7c
70009750:	e5d33000 	ldrb	r3, [r3]
70009754:	e1a00003 	mov	r0, r3
70009758:	ebfffb6a 	bl	70008508 <pl011_uart_putc>
/media/D/linux-share/projects/trustzone/client/src/lib/vsprintf.c:268
7000975c:	e30a0130 	movw	r0, #41264	; 0xa130
70009760:	e3470000 	movt	r0, #28672	; 0x7000
70009764:	ebfffb7b 	bl	70008558 <pl011_uart_puts>
/media/D/linux-share/projects/trustzone/client/src/lib/vsprintf.c:269
70009768:	e30a0134 	movw	r0, #41268	; 0xa134
7000976c:	e3470000 	movt	r0, #28672	; 0x7000
70009770:	ebfffb78 	bl	70008558 <pl011_uart_puts>
/media/D/linux-share/projects/trustzone/client/src/lib/vsprintf.c:274
70009774:	e51b307c 	ldr	r3, [fp, #-124]	; 0x7c
70009778:	e5d33000 	ldrb	r3, [r3]
7000977c:	e353000a 	cmp	r3, #10
70009780:	1a00000b 	bne	700097b4 <sw_vsprintf+0x838>
/media/D/linux-share/projects/trustzone/client/src/lib/vsprintf.c:275
70009784:	e51b3008 	ldr	r3, [fp, #-8]
70009788:	e3a0200d 	mov	r2, #13
7000978c:	e5c32000 	strb	r2, [r3]
70009790:	e51b3008 	ldr	r3, [fp, #-8]
70009794:	e2833001 	add	r3, r3, #1
70009798:	e50b3008 	str	r3, [fp, #-8]
/media/D/linux-share/projects/trustzone/client/src/lib/vsprintf.c:276
7000979c:	e51b3008 	ldr	r3, [fp, #-8]
700097a0:	e3a0200a 	mov	r2, #10
700097a4:	e5c32000 	strb	r2, [r3]
700097a8:	e51b3008 	ldr	r3, [fp, #-8]
700097ac:	e2833001 	add	r3, r3, #1
700097b0:	e50b3008 	str	r3, [fp, #-8]
/media/D/linux-share/projects/trustzone/client/src/lib/vsprintf.c:278
700097b4:	e51b307c 	ldr	r3, [fp, #-124]	; 0x7c
700097b8:	e5d33000 	ldrb	r3, [r3]
700097bc:	e3530009 	cmp	r3, #9
700097c0:	1a000006 	bne	700097e0 <sw_vsprintf+0x864>
/media/D/linux-share/projects/trustzone/client/src/lib/vsprintf.c:279
700097c4:	e51b307c 	ldr	r3, [fp, #-124]	; 0x7c
700097c8:	e5d32000 	ldrb	r2, [r3]
700097cc:	e51b3008 	ldr	r3, [fp, #-8]
700097d0:	e5c32000 	strb	r2, [r3]
700097d4:	e51b3008 	ldr	r3, [fp, #-8]
700097d8:	e2833001 	add	r3, r3, #1
700097dc:	e50b3008 	str	r3, [fp, #-8]
/media/D/linux-share/projects/trustzone/client/src/lib/vsprintf.c:73
700097e0:	e51b307c 	ldr	r3, [fp, #-124]	; 0x7c
700097e4:	e2833001 	add	r3, r3, #1
700097e8:	e50b307c 	str	r3, [fp, #-124]	; 0x7c
700097ec:	e51b307c 	ldr	r3, [fp, #-124]	; 0x7c
700097f0:	e5d33000 	ldrb	r3, [r3]
700097f4:	e3530000 	cmp	r3, #0
700097f8:	1afffde8 	bne	70008fa0 <sw_vsprintf+0x24>
/media/D/linux-share/projects/trustzone/client/src/lib/vsprintf.c:281
700097fc:	e51b3008 	ldr	r3, [fp, #-8]
70009800:	e3a02000 	mov	r2, #0
70009804:	e5c32000 	strb	r2, [r3]
/media/D/linux-share/projects/trustzone/client/src/lib/vsprintf.c:282
70009808:	e51b0008 	ldr	r0, [fp, #-8]
7000980c:	ebfffd93 	bl	70008e60 <TEE_StrLen>
70009810:	e1a03000 	mov	r3, r0
/media/D/linux-share/projects/trustzone/client/src/lib/vsprintf.c:283
70009814:	e1a00003 	mov	r0, r3
70009818:	e24bd004 	sub	sp, fp, #4
7000981c:	e8bd8800 	pop	{fp, pc}

70009820 <is_power_of2>:
is_power_of2():
/media/D/linux-share/projects/trustzone/client/src/lib/div.c:58
70009820:	e52db004 	push	{fp}		; (str fp, [sp, #-4]!)
70009824:	e28db000 	add	fp, sp, #0
70009828:	e24dd00c 	sub	sp, sp, #12
7000982c:	e50b0008 	str	r0, [fp, #-8]
/media/D/linux-share/projects/trustzone/client/src/lib/div.c:59
70009830:	e51b3008 	ldr	r3, [fp, #-8]
70009834:	e3530000 	cmp	r3, #0
70009838:	0a000007 	beq	7000985c <is_power_of2+0x3c>
7000983c:	e51b3008 	ldr	r3, [fp, #-8]
70009840:	e2432001 	sub	r2, r3, #1
70009844:	e51b3008 	ldr	r3, [fp, #-8]
70009848:	e0023003 	and	r3, r2, r3
7000984c:	e3530000 	cmp	r3, #0
70009850:	1a000001 	bne	7000985c <is_power_of2+0x3c>
70009854:	e3a03001 	mov	r3, #1
70009858:	ea000000 	b	70009860 <is_power_of2+0x40>
7000985c:	e3a03000 	mov	r3, #0
/media/D/linux-share/projects/trustzone/client/src/lib/div.c:60
70009860:	e1a00003 	mov	r0, r3
70009864:	e28bd000 	add	sp, fp, #0
70009868:	e8bd0800 	pop	{fp}
7000986c:	e12fff1e 	bx	lr

70009870 <get_power_of2>:
get_power_of2():
/media/D/linux-share/projects/trustzone/client/src/lib/div.c:71
70009870:	e52db004 	push	{fp}		; (str fp, [sp, #-4]!)
70009874:	e28db000 	add	fp, sp, #0
70009878:	e24dd014 	sub	sp, sp, #20
7000987c:	e50b0010 	str	r0, [fp, #-16]
/media/D/linux-share/projects/trustzone/client/src/lib/div.c:73
70009880:	e3a03000 	mov	r3, #0
70009884:	e50b3008 	str	r3, [fp, #-8]
70009888:	ea00000c 	b	700098c0 <get_power_of2+0x50>
/media/D/linux-share/projects/trustzone/client/src/lib/div.c:75
7000988c:	e51b3010 	ldr	r3, [fp, #-16]
70009890:	e2033001 	and	r3, r3, #1
70009894:	e6ef3073 	uxtb	r3, r3
70009898:	e3530000 	cmp	r3, #0
7000989c:	0a000001 	beq	700098a8 <get_power_of2+0x38>
/media/D/linux-share/projects/trustzone/client/src/lib/div.c:77
700098a0:	e51b3008 	ldr	r3, [fp, #-8]
700098a4:	ea000009 	b	700098d0 <get_power_of2+0x60>
/media/D/linux-share/projects/trustzone/client/src/lib/div.c:81
700098a8:	e51b3010 	ldr	r3, [fp, #-16]
700098ac:	e1a030a3 	lsr	r3, r3, #1
700098b0:	e50b3010 	str	r3, [fp, #-16]
/media/D/linux-share/projects/trustzone/client/src/lib/div.c:73
700098b4:	e51b3008 	ldr	r3, [fp, #-8]
700098b8:	e2833001 	add	r3, r3, #1
700098bc:	e50b3008 	str	r3, [fp, #-8]
700098c0:	e51b3008 	ldr	r3, [fp, #-8]
700098c4:	e353001f 	cmp	r3, #31
700098c8:	9affffef 	bls	7000988c <get_power_of2+0x1c>
/media/D/linux-share/projects/trustzone/client/src/lib/div.c:86
700098cc:	e3e03000 	mvn	r3, #0
/media/D/linux-share/projects/trustzone/client/src/lib/div.c:87
700098d0:	e1a00003 	mov	r0, r3
700098d4:	e28bd000 	add	sp, fp, #0
700098d8:	e8bd0800 	pop	{fp}
700098dc:	e12fff1e 	bx	lr

700098e0 <__aeabi_uidiv>:
__aeabi_uidiv():
/media/D/linux-share/projects/trustzone/client/src/lib/div.c:137
700098e0:	e92d4800 	push	{fp, lr}
700098e4:	e28db004 	add	fp, sp, #4
700098e8:	e24dd008 	sub	sp, sp, #8
700098ec:	e50b0008 	str	r0, [fp, #-8]
700098f0:	e50b100c 	str	r1, [fp, #-12]
/media/D/linux-share/projects/trustzone/client/src/lib/div.c:138
700098f4:	e51b300c 	ldr	r3, [fp, #-12]
700098f8:	e3530000 	cmp	r3, #0
700098fc:	1a000001 	bne	70009908 <__aeabi_uidiv+0x28>
/media/D/linux-share/projects/trustzone/client/src/lib/div.c:140
70009900:	e3a03000 	mov	r3, #0
70009904:	ea000015 	b	70009960 <__aeabi_uidiv+0x80>
/media/D/linux-share/projects/trustzone/client/src/lib/div.c:144
70009908:	e51b2008 	ldr	r2, [fp, #-8]
7000990c:	e51b300c 	ldr	r3, [fp, #-12]
70009910:	e1520003 	cmp	r2, r3
70009914:	2a000001 	bcs	70009920 <__aeabi_uidiv+0x40>
/media/D/linux-share/projects/trustzone/client/src/lib/div.c:146
70009918:	e3a03000 	mov	r3, #0
7000991c:	ea00000f 	b	70009960 <__aeabi_uidiv+0x80>
/media/D/linux-share/projects/trustzone/client/src/lib/div.c:150
70009920:	e51b000c 	ldr	r0, [fp, #-12]
70009924:	ebffffbd 	bl	70009820 <is_power_of2>
70009928:	e1a03000 	mov	r3, r0
7000992c:	e3530000 	cmp	r3, #0
70009930:	0a000005 	beq	7000994c <__aeabi_uidiv+0x6c>
/media/D/linux-share/projects/trustzone/client/src/lib/div.c:152
70009934:	e51b000c 	ldr	r0, [fp, #-12]
70009938:	ebffffcc 	bl	70009870 <get_power_of2>
7000993c:	e1a03000 	mov	r3, r0
70009940:	e51b2008 	ldr	r2, [fp, #-8]
70009944:	e1a03332 	lsr	r3, r2, r3
70009948:	ea000004 	b	70009960 <__aeabi_uidiv+0x80>
/media/D/linux-share/projects/trustzone/client/src/lib/div.c:154
7000994c:	e51b0008 	ldr	r0, [fp, #-8]
70009950:	e51b100c 	ldr	r1, [fp, #-12]
70009954:	e3a02000 	mov	r2, #0
70009958:	eb000003 	bl	7000996c <__aeabi_uidiv_recursive>
7000995c:	e1a03000 	mov	r3, r0
/media/D/linux-share/projects/trustzone/client/src/lib/div.c:155
70009960:	e1a00003 	mov	r0, r3
70009964:	e24bd004 	sub	sp, fp, #4
70009968:	e8bd8800 	pop	{fp, pc}

7000996c <__aeabi_uidiv_recursive>:
__aeabi_uidiv_recursive():
/media/D/linux-share/projects/trustzone/client/src/lib/div.c:168
7000996c:	e92d4800 	push	{fp, lr}
70009970:	e28db004 	add	fp, sp, #4
70009974:	e24dd018 	sub	sp, sp, #24
70009978:	e50b0010 	str	r0, [fp, #-16]
7000997c:	e50b1014 	str	r1, [fp, #-20]
70009980:	e50b2018 	str	r2, [fp, #-24]
/media/D/linux-share/projects/trustzone/client/src/lib/div.c:169
70009984:	e51b2010 	ldr	r2, [fp, #-16]
70009988:	e51b3014 	ldr	r3, [fp, #-20]
7000998c:	e1520003 	cmp	r2, r3
70009990:	2a000001 	bcs	7000999c <__aeabi_uidiv_recursive+0x30>
/media/D/linux-share/projects/trustzone/client/src/lib/div.c:171
70009994:	e51b3018 	ldr	r3, [fp, #-24]
70009998:	ea000026 	b	70009a38 <__aeabi_uidiv_recursive+0xcc>
/media/D/linux-share/projects/trustzone/client/src/lib/div.c:174
7000999c:	e3a03001 	mov	r3, #1
700099a0:	e50b3008 	str	r3, [fp, #-8]
700099a4:	e51b3014 	ldr	r3, [fp, #-20]
700099a8:	e50b300c 	str	r3, [fp, #-12]
/media/D/linux-share/projects/trustzone/client/src/lib/div.c:176
700099ac:	ea000010 	b	700099f4 <__aeabi_uidiv_recursive+0x88>
/media/D/linux-share/projects/trustzone/client/src/lib/div.c:179
700099b0:	e51b300c 	ldr	r3, [fp, #-12]
700099b4:	e3530000 	cmp	r3, #0
700099b8:	ba000012 	blt	70009a08 <__aeabi_uidiv_recursive+0x9c>
/media/D/linux-share/projects/trustzone/client/src/lib/div.c:184
700099bc:	e51b300c 	ldr	r3, [fp, #-12]
700099c0:	e1a03083 	lsl	r3, r3, #1
700099c4:	e50b300c 	str	r3, [fp, #-12]
/media/D/linux-share/projects/trustzone/client/src/lib/div.c:185
700099c8:	e51b200c 	ldr	r2, [fp, #-12]
700099cc:	e51b3010 	ldr	r3, [fp, #-16]
700099d0:	e1520003 	cmp	r2, r3
700099d4:	9a000003 	bls	700099e8 <__aeabi_uidiv_recursive+0x7c>
/media/D/linux-share/projects/trustzone/client/src/lib/div.c:187
700099d8:	e51b300c 	ldr	r3, [fp, #-12]
700099dc:	e1a030a3 	lsr	r3, r3, #1
700099e0:	e50b300c 	str	r3, [fp, #-12]
/media/D/linux-share/projects/trustzone/client/src/lib/div.c:188
700099e4:	ea000008 	b	70009a0c <__aeabi_uidiv_recursive+0xa0>
/media/D/linux-share/projects/trustzone/client/src/lib/div.c:190
700099e8:	e51b3008 	ldr	r3, [fp, #-8]
700099ec:	e1a03083 	lsl	r3, r3, #1
700099f0:	e50b3008 	str	r3, [fp, #-8]
/media/D/linux-share/projects/trustzone/client/src/lib/div.c:176
700099f4:	e51b2010 	ldr	r2, [fp, #-16]
700099f8:	e51b300c 	ldr	r3, [fp, #-12]
700099fc:	e1520003 	cmp	r2, r3
70009a00:	8affffea 	bhi	700099b0 <__aeabi_uidiv_recursive+0x44>
70009a04:	ea000000 	b	70009a0c <__aeabi_uidiv_recursive+0xa0>
/media/D/linux-share/projects/trustzone/client/src/lib/div.c:181
70009a08:	e1a00000 	nop			; (mov r0, r0)
/media/D/linux-share/projects/trustzone/client/src/lib/div.c:193
70009a0c:	e51b2010 	ldr	r2, [fp, #-16]
70009a10:	e51b300c 	ldr	r3, [fp, #-12]
70009a14:	e0632002 	rsb	r2, r3, r2
70009a18:	e51b1018 	ldr	r1, [fp, #-24]
70009a1c:	e51b3008 	ldr	r3, [fp, #-8]
70009a20:	e0813003 	add	r3, r1, r3
70009a24:	e1a00002 	mov	r0, r2
70009a28:	e51b1014 	ldr	r1, [fp, #-20]
70009a2c:	e1a02003 	mov	r2, r3
70009a30:	ebffffcd 	bl	7000996c <__aeabi_uidiv_recursive>
70009a34:	e1a03000 	mov	r3, r0
/media/D/linux-share/projects/trustzone/client/src/lib/div.c:194
70009a38:	e1a00003 	mov	r0, r3
70009a3c:	e24bd004 	sub	sp, fp, #4
70009a40:	e8bd8800 	pop	{fp, pc}

70009a44 <__aeabi_uldivmod>:
__aeabi_uldivmod():
/media/D/linux-share/projects/trustzone/client/src/lib/div.c:219
70009a44:	e92d4870 	push	{r4, r5, r6, fp, lr}
70009a48:	e28db010 	add	fp, sp, #16
70009a4c:	e24dd024 	sub	sp, sp, #36	; 0x24
70009a50:	e1a06000 	mov	r6, r0
70009a54:	e14b22fc 	strd	r2, [fp, #-44]	; 0xffffffd4
/media/D/linux-share/projects/trustzone/client/src/lib/div.c:222
70009a58:	e59b3004 	ldr	r3, [fp, #4]
70009a5c:	e59b2008 	ldr	r2, [fp, #8]
70009a60:	e1833002 	orr	r3, r3, r2
70009a64:	e3530000 	cmp	r3, #0
70009a68:	1a000000 	bne	70009a70 <__aeabi_uldivmod+0x2c>
/media/D/linux-share/projects/trustzone/client/src/lib/div.c:224
70009a6c:	eafffffe 	b	70009a6c <__aeabi_uldivmod+0x28>
/media/D/linux-share/projects/trustzone/client/src/lib/div.c:228
70009a70:	e59b2008 	ldr	r2, [fp, #8]
70009a74:	e51b3028 	ldr	r3, [fp, #-40]	; 0x28
70009a78:	e1520003 	cmp	r2, r3
70009a7c:	8a00000b 	bhi	70009ab0 <__aeabi_uldivmod+0x6c>
70009a80:	e59b2008 	ldr	r2, [fp, #8]
70009a84:	e51b3028 	ldr	r3, [fp, #-40]	; 0x28
70009a88:	e1520003 	cmp	r2, r3
70009a8c:	1a000011 	bne	70009ad8 <__aeabi_uldivmod+0x94>
70009a90:	e59b2004 	ldr	r2, [fp, #4]
70009a94:	e51b302c 	ldr	r3, [fp, #-44]	; 0x2c
70009a98:	e1520003 	cmp	r2, r3
70009a9c:	8a000003 	bhi	70009ab0 <__aeabi_uldivmod+0x6c>
70009aa0:	e59b2004 	ldr	r2, [fp, #4]
70009aa4:	e51b302c 	ldr	r3, [fp, #-44]	; 0x2c
70009aa8:	e1520003 	cmp	r2, r3
70009aac:	ea000009 	b	70009ad8 <__aeabi_uldivmod+0x94>
/media/D/linux-share/projects/trustzone/client/src/lib/div.c:230
70009ab0:	e3a02000 	mov	r2, #0
70009ab4:	e3a03000 	mov	r3, #0
70009ab8:	e14b22f4 	strd	r2, [fp, #-36]	; 0xffffffdc
/media/D/linux-share/projects/trustzone/client/src/lib/div.c:231
70009abc:	e14b22dc 	ldrd	r2, [fp, #-44]	; 0xffffffd4
70009ac0:	e14b21fc 	strd	r2, [fp, #-28]	; 0xffffffe4
/media/D/linux-share/projects/trustzone/client/src/lib/div.c:232
70009ac4:	e1a0c006 	mov	ip, r6
70009ac8:	e24b3024 	sub	r3, fp, #36	; 0x24
70009acc:	e893000f 	ldm	r3, {r0, r1, r2, r3}
70009ad0:	e88c000f 	stm	ip, {r0, r1, r2, r3}
70009ad4:	ea000045 	b	70009bf0 <__aeabi_uldivmod+0x1ac>
/media/D/linux-share/projects/trustzone/client/src/lib/div.c:236
70009ad8:	e59b3004 	ldr	r3, [fp, #4]
70009adc:	e1a00003 	mov	r0, r3
70009ae0:	ebffff4e 	bl	70009820 <is_power_of2>
70009ae4:	e1a03000 	mov	r3, r0
70009ae8:	e3530000 	cmp	r3, #0
70009aec:	0a000024 	beq	70009b84 <__aeabi_uldivmod+0x140>
/media/D/linux-share/projects/trustzone/client/src/lib/div.c:239
70009af0:	e59b3004 	ldr	r3, [fp, #4]
70009af4:	e1a00003 	mov	r0, r3
70009af8:	ebffff5c 	bl	70009870 <get_power_of2>
70009afc:	e1a03000 	mov	r3, r0
70009b00:	e2432020 	sub	r2, r3, #32
70009b04:	e51b1028 	ldr	r1, [fp, #-40]	; 0x28
70009b08:	e1a01231 	lsr	r1, r1, r2
70009b0c:	e2630020 	rsb	r0, r3, #32
70009b10:	e51bc028 	ldr	ip, [fp, #-40]	; 0x28
70009b14:	e1a0001c 	lsl	r0, ip, r0
70009b18:	e51bc02c 	ldr	ip, [fp, #-44]	; 0x2c
70009b1c:	e1a0433c 	lsr	r4, ip, r3
70009b20:	e1804004 	orr	r4, r0, r4
70009b24:	e3520000 	cmp	r2, #0
70009b28:	a1a04001 	movge	r4, r1
70009b2c:	e51b2028 	ldr	r2, [fp, #-40]	; 0x28
70009b30:	e1a05332 	lsr	r5, r2, r3
70009b34:	e14b42f4 	strd	r4, [fp, #-36]	; 0xffffffdc
/media/D/linux-share/projects/trustzone/client/src/lib/div.c:240
70009b38:	e14b22d4 	ldrd	r2, [fp, #-36]	; 0xffffffdc
70009b3c:	e59b1004 	ldr	r1, [fp, #4]
70009b40:	e0010193 	mul	r1, r3, r1
70009b44:	e59b0008 	ldr	r0, [fp, #8]
70009b48:	e0000092 	mul	r0, r2, r0
70009b4c:	e0811000 	add	r1, r1, r0
70009b50:	e59b0004 	ldr	r0, [fp, #4]
70009b54:	e0832290 	umull	r2, r3, r0, r2
70009b58:	e0811003 	add	r1, r1, r3
70009b5c:	e1a03001 	mov	r3, r1
70009b60:	e14b02dc 	ldrd	r0, [fp, #-44]	; 0xffffffd4
70009b64:	e0502002 	subs	r2, r0, r2
70009b68:	e0c13003 	sbc	r3, r1, r3
70009b6c:	e14b21fc 	strd	r2, [fp, #-28]	; 0xffffffe4
/media/D/linux-share/projects/trustzone/client/src/lib/div.c:241
70009b70:	e1a0c006 	mov	ip, r6
70009b74:	e24b3024 	sub	r3, fp, #36	; 0x24
70009b78:	e893000f 	ldm	r3, {r0, r1, r2, r3}
70009b7c:	e88c000f 	stm	ip, {r0, r1, r2, r3}
70009b80:	ea00001a 	b	70009bf0 <__aeabi_uldivmod+0x1ac>
/media/D/linux-share/projects/trustzone/client/src/lib/div.c:244
70009b84:	e3a02000 	mov	r2, #0
70009b88:	e3a03000 	mov	r3, #0
70009b8c:	e1cd20f0 	strd	r2, [sp]
70009b90:	e14b02dc 	ldrd	r0, [fp, #-44]	; 0xffffffd4
70009b94:	e1cb20d4 	ldrd	r2, [fp, #4]
70009b98:	eb000017 	bl	70009bfc <__aeabi_uldivmod_recursive>
70009b9c:	e1a02000 	mov	r2, r0
70009ba0:	e1a03001 	mov	r3, r1
70009ba4:	e14b22f4 	strd	r2, [fp, #-36]	; 0xffffffdc
/media/D/linux-share/projects/trustzone/client/src/lib/div.c:245
70009ba8:	e14b22d4 	ldrd	r2, [fp, #-36]	; 0xffffffdc
70009bac:	e59b1004 	ldr	r1, [fp, #4]
70009bb0:	e0010193 	mul	r1, r3, r1
70009bb4:	e59b0008 	ldr	r0, [fp, #8]
70009bb8:	e0000092 	mul	r0, r2, r0
70009bbc:	e0811000 	add	r1, r1, r0
70009bc0:	e59b0004 	ldr	r0, [fp, #4]
70009bc4:	e0832290 	umull	r2, r3, r0, r2
70009bc8:	e0811003 	add	r1, r1, r3
70009bcc:	e1a03001 	mov	r3, r1
70009bd0:	e14b02dc 	ldrd	r0, [fp, #-44]	; 0xffffffd4
70009bd4:	e0502002 	subs	r2, r0, r2
70009bd8:	e0c13003 	sbc	r3, r1, r3
70009bdc:	e14b21fc 	strd	r2, [fp, #-28]	; 0xffffffe4
/media/D/linux-share/projects/trustzone/client/src/lib/div.c:246
70009be0:	e1a0c006 	mov	ip, r6
70009be4:	e24b3024 	sub	r3, fp, #36	; 0x24
70009be8:	e893000f 	ldm	r3, {r0, r1, r2, r3}
70009bec:	e88c000f 	stm	ip, {r0, r1, r2, r3}
/media/D/linux-share/projects/trustzone/client/src/lib/div.c:247
70009bf0:	e1a00006 	mov	r0, r6
70009bf4:	e24bd010 	sub	sp, fp, #16
70009bf8:	e8bd8870 	pop	{r4, r5, r6, fp, pc}

70009bfc <__aeabi_uldivmod_recursive>:
__aeabi_uldivmod_recursive():
/media/D/linux-share/projects/trustzone/client/src/lib/div.c:260
70009bfc:	e92d4830 	push	{r4, r5, fp, lr}
70009c00:	e28db00c 	add	fp, sp, #12
70009c04:	e24dd028 	sub	sp, sp, #40	; 0x28
70009c08:	e14b02f4 	strd	r0, [fp, #-36]	; 0xffffffdc
70009c0c:	e14b22fc 	strd	r2, [fp, #-44]	; 0xffffffd4
/media/D/linux-share/projects/trustzone/client/src/lib/div.c:261
70009c10:	e51b2028 	ldr	r2, [fp, #-40]	; 0x28
70009c14:	e51b3020 	ldr	r3, [fp, #-32]
70009c18:	e1520003 	cmp	r2, r3
70009c1c:	8a00000b 	bhi	70009c50 <__aeabi_uldivmod_recursive+0x54>
70009c20:	e51b2028 	ldr	r2, [fp, #-40]	; 0x28
70009c24:	e51b3020 	ldr	r3, [fp, #-32]
70009c28:	e1520003 	cmp	r2, r3
70009c2c:	1a000009 	bne	70009c58 <__aeabi_uldivmod_recursive+0x5c>
70009c30:	e51b202c 	ldr	r2, [fp, #-44]	; 0x2c
70009c34:	e51b3024 	ldr	r3, [fp, #-36]	; 0x24
70009c38:	e1520003 	cmp	r2, r3
70009c3c:	8a000003 	bhi	70009c50 <__aeabi_uldivmod_recursive+0x54>
70009c40:	e51b202c 	ldr	r2, [fp, #-44]	; 0x2c
70009c44:	e51b3024 	ldr	r3, [fp, #-36]	; 0x24
70009c48:	e1520003 	cmp	r2, r3
70009c4c:	ea000001 	b	70009c58 <__aeabi_uldivmod_recursive+0x5c>
/media/D/linux-share/projects/trustzone/client/src/lib/div.c:263
70009c50:	e1cb20d4 	ldrd	r2, [fp, #4]
70009c54:	ea000048 	b	70009d7c <__aeabi_uldivmod_recursive+0x180>
/media/D/linux-share/projects/trustzone/client/src/lib/div.c:266
70009c58:	e3a02001 	mov	r2, #1
70009c5c:	e3a03000 	mov	r3, #0
70009c60:	e14b21f4 	strd	r2, [fp, #-20]	; 0xffffffec
70009c64:	e14b22dc 	ldrd	r2, [fp, #-44]	; 0xffffffd4
70009c68:	e14b21fc 	strd	r2, [fp, #-28]	; 0xffffffe4
/media/D/linux-share/projects/trustzone/client/src/lib/div.c:268
70009c6c:	ea000022 	b	70009cfc <__aeabi_uldivmod_recursive+0x100>
/media/D/linux-share/projects/trustzone/client/src/lib/div.c:271
70009c70:	e14b21dc 	ldrd	r2, [fp, #-28]	; 0xffffffe4
70009c74:	e3530000 	cmp	r3, #0
70009c78:	ba00002f 	blt	70009d3c <__aeabi_uldivmod_recursive+0x140>
70009c7c:	e3530000 	cmp	r3, #0
70009c80:	1a000000 	bne	70009c88 <__aeabi_uldivmod_recursive+0x8c>
70009c84:	e3520000 	cmp	r2, #0
/media/D/linux-share/projects/trustzone/client/src/lib/div.c:276
70009c88:	e14b21dc 	ldrd	r2, [fp, #-28]	; 0xffffffe4
70009c8c:	e0922002 	adds	r2, r2, r2
70009c90:	e0a33003 	adc	r3, r3, r3
70009c94:	e14b21fc 	strd	r2, [fp, #-28]	; 0xffffffe4
/media/D/linux-share/projects/trustzone/client/src/lib/div.c:277
70009c98:	e51b2018 	ldr	r2, [fp, #-24]
70009c9c:	e51b3020 	ldr	r3, [fp, #-32]
70009ca0:	e1520003 	cmp	r2, r3
70009ca4:	8a00000b 	bhi	70009cd8 <__aeabi_uldivmod_recursive+0xdc>
70009ca8:	e51b2018 	ldr	r2, [fp, #-24]
70009cac:	e51b3020 	ldr	r3, [fp, #-32]
70009cb0:	e1520003 	cmp	r2, r3
70009cb4:	1a00000c 	bne	70009cec <__aeabi_uldivmod_recursive+0xf0>
70009cb8:	e51b201c 	ldr	r2, [fp, #-28]
70009cbc:	e51b3024 	ldr	r3, [fp, #-36]	; 0x24
70009cc0:	e1520003 	cmp	r2, r3
70009cc4:	8a000003 	bhi	70009cd8 <__aeabi_uldivmod_recursive+0xdc>
70009cc8:	e51b201c 	ldr	r2, [fp, #-28]
70009ccc:	e51b3024 	ldr	r3, [fp, #-36]	; 0x24
70009cd0:	e1520003 	cmp	r2, r3
70009cd4:	ea000004 	b	70009cec <__aeabi_uldivmod_recursive+0xf0>
/media/D/linux-share/projects/trustzone/client/src/lib/div.c:279
70009cd8:	e14b21dc 	ldrd	r2, [fp, #-28]	; 0xffffffe4
70009cdc:	e1b030a3 	lsrs	r3, r3, #1
70009ce0:	e1a02062 	rrx	r2, r2
70009ce4:	e14b21fc 	strd	r2, [fp, #-28]	; 0xffffffe4
/media/D/linux-share/projects/trustzone/client/src/lib/div.c:280
70009ce8:	ea000014 	b	70009d40 <__aeabi_uldivmod_recursive+0x144>
/media/D/linux-share/projects/trustzone/client/src/lib/div.c:282
70009cec:	e14b21d4 	ldrd	r2, [fp, #-20]	; 0xffffffec
70009cf0:	e0922002 	adds	r2, r2, r2
70009cf4:	e0a33003 	adc	r3, r3, r3
70009cf8:	e14b21f4 	strd	r2, [fp, #-20]	; 0xffffffec
/media/D/linux-share/projects/trustzone/client/src/lib/div.c:268
70009cfc:	e51b2020 	ldr	r2, [fp, #-32]
70009d00:	e51b3018 	ldr	r3, [fp, #-24]
70009d04:	e1520003 	cmp	r2, r3
70009d08:	8affffd8 	bhi	70009c70 <__aeabi_uldivmod_recursive+0x74>
70009d0c:	e51b2020 	ldr	r2, [fp, #-32]
70009d10:	e51b3018 	ldr	r3, [fp, #-24]
70009d14:	e1520003 	cmp	r2, r3
70009d18:	1a000008 	bne	70009d40 <__aeabi_uldivmod_recursive+0x144>
70009d1c:	e51b2024 	ldr	r2, [fp, #-36]	; 0x24
70009d20:	e51b301c 	ldr	r3, [fp, #-28]
70009d24:	e1520003 	cmp	r2, r3
70009d28:	8affffd0 	bhi	70009c70 <__aeabi_uldivmod_recursive+0x74>
70009d2c:	e51b2024 	ldr	r2, [fp, #-36]	; 0x24
70009d30:	e51b301c 	ldr	r3, [fp, #-28]
70009d34:	e1520003 	cmp	r2, r3
70009d38:	ea000000 	b	70009d40 <__aeabi_uldivmod_recursive+0x144>
/media/D/linux-share/projects/trustzone/client/src/lib/div.c:273
70009d3c:	e1a00000 	nop			; (mov r0, r0)
/media/D/linux-share/projects/trustzone/client/src/lib/div.c:285
70009d40:	e14b02d4 	ldrd	r0, [fp, #-36]	; 0xffffffdc
70009d44:	e14b21dc 	ldrd	r2, [fp, #-28]	; 0xffffffe4
70009d48:	e0502002 	subs	r2, r0, r2
70009d4c:	e0c13003 	sbc	r3, r1, r3
70009d50:	e1cb40d4 	ldrd	r4, [fp, #4]
70009d54:	e14b01d4 	ldrd	r0, [fp, #-20]	; 0xffffffec
70009d58:	e0900004 	adds	r0, r0, r4
70009d5c:	e0a11005 	adc	r1, r1, r5
70009d60:	e1cd00f0 	strd	r0, [sp]
70009d64:	e1a00002 	mov	r0, r2
70009d68:	e1a01003 	mov	r1, r3
70009d6c:	e14b22dc 	ldrd	r2, [fp, #-44]	; 0xffffffd4
70009d70:	ebffffa1 	bl	70009bfc <__aeabi_uldivmod_recursive>
70009d74:	e1a02000 	mov	r2, r0
70009d78:	e1a03001 	mov	r3, r1
/media/D/linux-share/projects/trustzone/client/src/lib/div.c:286
70009d7c:	e1a00002 	mov	r0, r2
70009d80:	e1a01003 	mov	r1, r3
70009d84:	e24bd00c 	sub	sp, fp, #12
70009d88:	e8bd8830 	pop	{r4, r5, fp, pc}

70009d8c <__aeabi_idivmod_recursive>:
__aeabi_idivmod_recursive():
/media/D/linux-share/projects/trustzone/client/src/lib/div.c:299
70009d8c:	e92d4800 	push	{fp, lr}
70009d90:	e28db004 	add	fp, sp, #4
70009d94:	e24dd018 	sub	sp, sp, #24
70009d98:	e50b0010 	str	r0, [fp, #-16]
70009d9c:	e50b1014 	str	r1, [fp, #-20]
70009da0:	e50b2018 	str	r2, [fp, #-24]
/media/D/linux-share/projects/trustzone/client/src/lib/div.c:301
70009da4:	e51b2010 	ldr	r2, [fp, #-16]
70009da8:	e51b3014 	ldr	r3, [fp, #-20]
70009dac:	e1520003 	cmp	r2, r3
70009db0:	2a000001 	bcs	70009dbc <__aeabi_idivmod_recursive+0x30>
/media/D/linux-share/projects/trustzone/client/src/lib/div.c:302
70009db4:	e51b3010 	ldr	r3, [fp, #-16]
70009db8:	ea000026 	b	70009e58 <__aeabi_idivmod_recursive+0xcc>
/media/D/linux-share/projects/trustzone/client/src/lib/div.c:304
70009dbc:	e3a03001 	mov	r3, #1
70009dc0:	e50b3008 	str	r3, [fp, #-8]
/media/D/linux-share/projects/trustzone/client/src/lib/div.c:305
70009dc4:	e51b3014 	ldr	r3, [fp, #-20]
70009dc8:	e50b300c 	str	r3, [fp, #-12]
/media/D/linux-share/projects/trustzone/client/src/lib/div.c:306
70009dcc:	ea000010 	b	70009e14 <__aeabi_idivmod_recursive+0x88>
/media/D/linux-share/projects/trustzone/client/src/lib/div.c:308
70009dd0:	e51b300c 	ldr	r3, [fp, #-12]
70009dd4:	e3530000 	cmp	r3, #0
70009dd8:	ba000012 	blt	70009e28 <__aeabi_idivmod_recursive+0x9c>
/media/D/linux-share/projects/trustzone/client/src/lib/div.c:311
70009ddc:	e51b300c 	ldr	r3, [fp, #-12]
70009de0:	e1a03083 	lsl	r3, r3, #1
70009de4:	e50b300c 	str	r3, [fp, #-12]
/media/D/linux-share/projects/trustzone/client/src/lib/div.c:312
70009de8:	e51b200c 	ldr	r2, [fp, #-12]
70009dec:	e51b3010 	ldr	r3, [fp, #-16]
70009df0:	e1520003 	cmp	r2, r3
70009df4:	9a000003 	bls	70009e08 <__aeabi_idivmod_recursive+0x7c>
/media/D/linux-share/projects/trustzone/client/src/lib/div.c:313
70009df8:	e51b300c 	ldr	r3, [fp, #-12]
70009dfc:	e1a030a3 	lsr	r3, r3, #1
70009e00:	e50b300c 	str	r3, [fp, #-12]
/media/D/linux-share/projects/trustzone/client/src/lib/div.c:314
70009e04:	ea000008 	b	70009e2c <__aeabi_idivmod_recursive+0xa0>
/media/D/linux-share/projects/trustzone/client/src/lib/div.c:316
70009e08:	e51b3008 	ldr	r3, [fp, #-8]
70009e0c:	e1a03083 	lsl	r3, r3, #1
70009e10:	e50b3008 	str	r3, [fp, #-8]
/media/D/linux-share/projects/trustzone/client/src/lib/div.c:306
70009e14:	e51b2010 	ldr	r2, [fp, #-16]
70009e18:	e51b300c 	ldr	r3, [fp, #-12]
70009e1c:	e1520003 	cmp	r2, r3
70009e20:	8affffea 	bhi	70009dd0 <__aeabi_idivmod_recursive+0x44>
70009e24:	ea000000 	b	70009e2c <__aeabi_idivmod_recursive+0xa0>
/media/D/linux-share/projects/trustzone/client/src/lib/div.c:309
70009e28:	e1a00000 	nop			; (mov r0, r0)
/media/D/linux-share/projects/trustzone/client/src/lib/div.c:318
70009e2c:	e51b2010 	ldr	r2, [fp, #-16]
70009e30:	e51b300c 	ldr	r3, [fp, #-12]
70009e34:	e0632002 	rsb	r2, r3, r2
70009e38:	e51b1018 	ldr	r1, [fp, #-24]
70009e3c:	e51b3008 	ldr	r3, [fp, #-8]
70009e40:	e0813003 	add	r3, r1, r3
70009e44:	e1a00002 	mov	r0, r2
70009e48:	e51b1014 	ldr	r1, [fp, #-20]
70009e4c:	e1a02003 	mov	r2, r3
70009e50:	ebffffcd 	bl	70009d8c <__aeabi_idivmod_recursive>
70009e54:	e1a03000 	mov	r3, r0
/media/D/linux-share/projects/trustzone/client/src/lib/div.c:319
70009e58:	e1a00003 	mov	r0, r3
70009e5c:	e24bd004 	sub	sp, fp, #4
70009e60:	e8bd8800 	pop	{fp, pc}

70009e64 <__aeabi_idivmod>:
__aeabi_idivmod():
/media/D/linux-share/projects/trustzone/client/src/lib/div.c:330
70009e64:	e92d4800 	push	{fp, lr}
70009e68:	e28db004 	add	fp, sp, #4
70009e6c:	e24dd008 	sub	sp, sp, #8
70009e70:	e50b0008 	str	r0, [fp, #-8]
70009e74:	e50b100c 	str	r1, [fp, #-12]
/media/D/linux-share/projects/trustzone/client/src/lib/div.c:331
70009e78:	e51b300c 	ldr	r3, [fp, #-12]
70009e7c:	e3530000 	cmp	r3, #0
70009e80:	1a000000 	bne	70009e88 <__aeabi_idivmod+0x24>
/media/D/linux-share/projects/trustzone/client/src/lib/div.c:332
70009e84:	eafffffe 	b	70009e84 <__aeabi_idivmod+0x20>
/media/D/linux-share/projects/trustzone/client/src/lib/div.c:335
70009e88:	e51b2008 	ldr	r2, [fp, #-8]
70009e8c:	e51b300c 	ldr	r3, [fp, #-12]
70009e90:	e1520003 	cmp	r2, r3
70009e94:	2a000001 	bcs	70009ea0 <__aeabi_idivmod+0x3c>
/media/D/linux-share/projects/trustzone/client/src/lib/div.c:336
70009e98:	e51b3008 	ldr	r3, [fp, #-8]
70009e9c:	ea00000e 	b	70009edc <__aeabi_idivmod+0x78>
/media/D/linux-share/projects/trustzone/client/src/lib/div.c:338
70009ea0:	e51b000c 	ldr	r0, [fp, #-12]
70009ea4:	ebfffe5d 	bl	70009820 <is_power_of2>
70009ea8:	e1a03000 	mov	r3, r0
70009eac:	e3530000 	cmp	r3, #0
70009eb0:	0a000004 	beq	70009ec8 <__aeabi_idivmod+0x64>
/media/D/linux-share/projects/trustzone/client/src/lib/div.c:339
70009eb4:	e51b300c 	ldr	r3, [fp, #-12]
70009eb8:	e2432001 	sub	r2, r3, #1
70009ebc:	e51b3008 	ldr	r3, [fp, #-8]
70009ec0:	e0023003 	and	r3, r2, r3
70009ec4:	ea000004 	b	70009edc <__aeabi_idivmod+0x78>
/media/D/linux-share/projects/trustzone/client/src/lib/div.c:341
70009ec8:	e51b0008 	ldr	r0, [fp, #-8]
70009ecc:	e51b100c 	ldr	r1, [fp, #-12]
70009ed0:	e3a02000 	mov	r2, #0
70009ed4:	ebffffac 	bl	70009d8c <__aeabi_idivmod_recursive>
70009ed8:	e1a03000 	mov	r3, r0
/media/D/linux-share/projects/trustzone/client/src/lib/div.c:342
70009edc:	e1a00003 	mov	r0, r3
70009ee0:	e24bd004 	sub	sp, fp, #4
70009ee4:	e8bd8800 	pop	{fp, pc}

70009ee8 <__aeabi_uidivmod>:
__aeabi_uidivmod():
/media/D/linux-share/projects/trustzone/client/src/lib/div.c:345
70009ee8:	e92d4800 	push	{fp, lr}
70009eec:	e28db004 	add	fp, sp, #4
70009ef0:	e24dd008 	sub	sp, sp, #8
70009ef4:	e50b0008 	str	r0, [fp, #-8]
70009ef8:	e50b100c 	str	r1, [fp, #-12]
/media/D/linux-share/projects/trustzone/client/src/lib/div.c:347
70009efc:	e51b300c 	ldr	r3, [fp, #-12]
70009f00:	e3530000 	cmp	r3, #0
70009f04:	1a000000 	bne	70009f0c <__aeabi_uidivmod+0x24>
/media/D/linux-share/projects/trustzone/client/src/lib/div.c:348
70009f08:	eafffffe 	b	70009f08 <__aeabi_uidivmod+0x20>
/media/D/linux-share/projects/trustzone/client/src/lib/div.c:351
70009f0c:	e51b2008 	ldr	r2, [fp, #-8]
70009f10:	e51b300c 	ldr	r3, [fp, #-12]
70009f14:	e1520003 	cmp	r2, r3
70009f18:	2a000001 	bcs	70009f24 <__aeabi_uidivmod+0x3c>
/media/D/linux-share/projects/trustzone/client/src/lib/div.c:352
70009f1c:	e51b3008 	ldr	r3, [fp, #-8]
70009f20:	ea00000e 	b	70009f60 <__aeabi_uidivmod+0x78>
/media/D/linux-share/projects/trustzone/client/src/lib/div.c:354
70009f24:	e51b000c 	ldr	r0, [fp, #-12]
70009f28:	ebfffe3c 	bl	70009820 <is_power_of2>
70009f2c:	e1a03000 	mov	r3, r0
70009f30:	e3530000 	cmp	r3, #0
70009f34:	0a000004 	beq	70009f4c <__aeabi_uidivmod+0x64>
/media/D/linux-share/projects/trustzone/client/src/lib/div.c:355
70009f38:	e51b300c 	ldr	r3, [fp, #-12]
70009f3c:	e2432001 	sub	r2, r3, #1
70009f40:	e51b3008 	ldr	r3, [fp, #-8]
70009f44:	e0023003 	and	r3, r2, r3
70009f48:	ea000004 	b	70009f60 <__aeabi_uidivmod+0x78>
/media/D/linux-share/projects/trustzone/client/src/lib/div.c:357
70009f4c:	e51b0008 	ldr	r0, [fp, #-8]
70009f50:	e51b100c 	ldr	r1, [fp, #-12]
70009f54:	e3a02000 	mov	r2, #0
70009f58:	ebffff8b 	bl	70009d8c <__aeabi_idivmod_recursive>
70009f5c:	e1a03000 	mov	r3, r0
/media/D/linux-share/projects/trustzone/client/src/lib/div.c:360
70009f60:	e1a00003 	mov	r0, r3
70009f64:	e24bd004 	sub	sp, fp, #4
70009f68:	e8bd8800 	pop	{fp, pc}
70009f6c:	252d7825 	strcs	r7, [sp, #-2085]!	; 0x825
70009f70:	78252d78 	stmdavc	r5!, {r3, r4, r5, r6, r8, sl, fp, sp}
70009f74:	2578252d 	ldrbcs	r2, [r8, #-1325]!	; 0x52d
70009f78:	25782578 	ldrbcs	r2, [r8, #-1400]!	; 0x578
70009f7c:	25782578 	ldrbcs	r2, [r8, #-1400]!	; 0x578
70009f80:	25782578 	ldrbcs	r2, [r8, #-1400]!	; 0x578
70009f84:	00000a78 	andeq	r0, r0, r8, ror sl
70009f88:	65696c63 	strbvs	r6, [r9, #-3171]!	; 0xc63
70009f8c:	6c20746e 	cfstrsvs	mvf7, [r0], #-440	; 0xfffffe48
70009f90:	20706f6f 	rsbscs	r6, r0, pc, ror #30
70009f94:	000a6425 	andeq	r6, sl, r5, lsr #8
70009f98:	6e65704f 	cdpvs	0, 6, cr7, cr5, cr15, {2}
70009f9c:	73655320 	cmnvc	r5, #-2147483648	; 0x80000000
70009fa0:	6e6f6973 	mcrvs	9, 3, r6, cr15, cr3, {3}
70009fa4:	69616620 	stmdbvs	r1!, {r5, r9, sl, sp, lr}^
70009fa8:	2164656c 	cmncs	r4, ip, ror #10
70009fac:	0000000a 	andeq	r0, r0, sl
70009fb0:	6e65704f 	cdpvs	0, 6, cr7, cr5, cr15, {2}
70009fb4:	73655320 	cmnvc	r5, #-2147483648	; 0x80000000
70009fb8:	6e6f6973 	mcrvs	9, 3, r6, cr15, cr3, {3}
70009fbc:	63757320 	cmnvs	r5, #-2147483648	; 0x80000000
70009fc0:	73736563 	cmnvc	r3, #415236096	; 0x18c00000
70009fc4:	6c6c7566 	cfstr64vs	mvdx7, [ip], #-408	; 0xfffffe68
70009fc8:	000a2179 	andeq	r2, sl, r9, ror r1
70009fcc:	2e2e2e2e 	cdpcs	14, 2, cr2, cr14, cr14, {1}
70009fd0:	696c432e 	stmdbvs	ip!, {r1, r2, r3, r5, r8, r9, lr}^
70009fd4:	20746e65 	rsbscs	r6, r4, r5, ror #28
70009fd8:	44495555 	strbmi	r5, [r9], #-1365	; 0x555
70009fdc:	00000a3a 	andeq	r0, r0, sl, lsr sl
70009fe0:	2e2e2e2e 	cdpcs	14, 2, cr2, cr14, cr14, {1}
70009fe4:	7365732e 	cmnvc	r5, #-1207959552	; 0xb8000000
70009fe8:	6e6f6973 	mcrvs	9, 3, r6, cr15, cr3, {3}
70009fec:	3a64695f 	bcc	71924570 <_CLIENT_END+0x18e4570>
70009ff0:	78257830 	stmdavc	r5!, {r4, r5, fp, ip, sp, lr}
70009ff4:	0000000a 	andeq	r0, r0, sl
70009ff8:	4c4c4548 	cfstr64mi	mvdx4, [ip], {72}	; 0x48
70009ffc:	2d54204f 	ldclcs	0, cr2, [r4, #-316]	; 0xfffffec4
7000a000:	0000534f 	andeq	r5, r0, pc, asr #6
7000a004:	65696c63 	strbvs	r6, [r9, #-3171]!	; 0xc63
7000a008:	7320746e 	teqvc	r0, #1845493760	; 0x6e000000
7000a00c:	6e697274 	mcrvs	2, 3, r7, cr9, cr4, {3}
7000a010:	73253a67 	teqvc	r5, #421888	; 0x67000
7000a014:	0000000a 	andeq	r0, r0, sl
7000a018:	6c6c6163 	stfvse	f6, [ip], #-396	; 0xfffffe74
7000a01c:	6d6f6320 	stclvs	3, cr6, [pc, #-128]!	; 0xffffff80
7000a020:	646e616d 	strbtvs	r6, [lr], #-365	; 0x16d
7000a024:	69616620 	stmdbvs	r1!, {r5, r9, sl, sp, lr}^
7000a028:	2164656c 	cmncs	r4, ip, ror #10
7000a02c:	0000000a 	andeq	r0, r0, sl
7000a030:	65696c63 	strbvs	r6, [r9, #-3171]!	; 0xc63
7000a034:	6c20746e 	cfstrsvs	mvf7, [r0], #-440	; 0xfffffe48
7000a038:	7265776f 	rsbvc	r7, r5, #29097984	; 0x1bc0000
7000a03c:	72747320 	rsbsvc	r7, r4, #-2147483648	; 0x80000000
7000a040:	3a676e69 	bcc	719e59ec <_CLIENT_END+0x19a59ec>
7000a044:	000a7325 	andeq	r7, sl, r5, lsr #6
7000a048:	736f6c43 	cmnvc	pc, #17152	; 0x4300
7000a04c:	65732065 	ldrbvs	r2, [r3, #-101]!	; 0x65
7000a050:	6f697373 	svcvs	0x00697373
7000a054:	7573206e 	ldrbvc	r2, [r3, #-110]!	; 0x6e
7000a058:	73656363 	cmnvc	r5, #-1946157055	; 0x8c000001
7000a05c:	6c756673 	ldclvs	6, cr6, [r5], #-460	; 0xfffffe34
7000a060:	000a796c 	andeq	r7, sl, ip, ror #18
7000a064:	736f6c43 	cmnvc	pc, #17152	; 0x4300
7000a068:	65732065 	ldrbvs	r2, [r3, #-101]!	; 0x65
7000a06c:	6f697373 	svcvs	0x00697373
7000a070:	6166206e 	cmnvs	r6, lr, rrx
7000a074:	64656c69 	strbtvs	r6, [r5], #-3177	; 0xc69
7000a078:	00000a21 	andeq	r0, r0, r1, lsr #20
7000a07c:	74616877 	strbtvc	r6, [r1], #-2167	; 0x877
7000a080:	79207327 	stmdbvc	r0!, {r0, r1, r2, r5, r8, r9, ip, sp, lr}
7000a084:	2072756f 	rsbscs	r7, r2, pc, ror #10
7000a088:	656d616e 	strbvs	r6, [sp, #-366]!	; 0x16e
7000a08c:	0000003f 	andeq	r0, r0, pc, lsr r0
7000a090:	73696854 	cmnvc	r9, #5505024	; 0x540000
7000a094:	20736920 	rsbscs	r6, r3, r0, lsr #18
7000a098:	72702061 	rsbsvc	r2, r0, #97	; 0x61
7000a09c:	6172676f 	cmnvs	r2, pc, ror #14
7000a0a0:	72656d6d 	rsbvc	r6, r5, #6976	; 0x1b40
7000a0a4:	72726520 	rsbsvc	r6, r2, #134217728	; 0x8000000
7000a0a8:	2021726f 	eorcs	r7, r1, pc, ror #4
7000a0ac:	454c4946 	strbmi	r4, [ip, #-2374]	; 0x946
7000a0b0:	2073253a 	rsbscs	r2, r3, sl, lsr r5
7000a0b4:	454e494c 	strbmi	r4, [lr, #-2380]	; 0x94c
7000a0b8:	0a64253a 	beq	719135a8 <_CLIENT_END+0x18d35a8>
7000a0bc:	00000000 	andeq	r0, r0, r0
7000a0c0:	64656d2f 	strbtvs	r6, [r5], #-3375	; 0xd2f
7000a0c4:	442f6169 	strtmi	r6, [pc], #361	; 7000a0cc <__aeabi_uidivmod+0x1e4>
7000a0c8:	6e696c2f 	cdpvs	12, 6, cr6, cr9, cr15, {1}
7000a0cc:	732d7875 	teqvc	sp, #7667712	; 0x750000
7000a0d0:	65726168 	ldrbvs	r6, [r2, #-360]!	; 0x168
7000a0d4:	6f72702f 	svcvs	0x0072702f
7000a0d8:	7463656a 	strbtvc	r6, [r3], #-1386	; 0x56a
7000a0dc:	72742f73 	rsbsvc	r2, r4, #460	; 0x1cc
7000a0e0:	7a747375 	bvc	71d26ebc <_CLIENT_END+0x1ce6ebc>
7000a0e4:	2f656e6f 	svccs	0x00656e6f
7000a0e8:	65696c63 	strbvs	r6, [r9, #-3171]!	; 0xc63
7000a0ec:	732f746e 	teqvc	pc, #1845493760	; 0x6e000000
7000a0f0:	622f6372 	eorvs	r6, pc, #-939524095	; 0xc8000001
7000a0f4:	6472616f 	ldrbtvs	r6, [r2], #-367	; 0x16f
7000a0f8:	6d656d2f 	stclvs	13, cr6, [r5, #-188]!	; 0xffffff44
7000a0fc:	676e6d5f 	undefined instruction 0x676e6d5f
7000a100:	0000632e 	andeq	r6, r0, lr, lsr #6
7000a104:	61766e69 	cmnvs	r6, r9, ror #28
7000a108:	2064696c 	rsbcs	r6, r4, ip, ror #18
7000a10c:	64646170 	strbtvs	r6, [r4], #-368	; 0x170
7000a110:	20676e69 	rsbcs	r6, r7, r9, ror #28
7000a114:	73746962 	cmnvc	r4, #1605632	; 0x188000
7000a118:	0000002e 	andeq	r0, r0, lr, lsr #32
7000a11c:	6974706f 	ldmdbvs	r4!, {r0, r1, r2, r3, r5, r6, ip, sp, lr}^
7000a120:	61206e6f 	teqvs	r0, pc, ror #28
7000a124:	72657466 	rsbvc	r7, r5, #1711276032	; 0x66000000
7000a128:	203a2520 	eorscs	r2, sl, r0, lsr #10
7000a12c:	00000000 	andeq	r0, r0, r0
7000a130:	00000a0d 	andeq	r0, r0, sp, lsl #20
7000a134:	6e6b6e55 	mcrvs	14, 3, r6, cr11, cr5, {2}
7000a138:	206e776f 	rsbcs	r7, lr, pc, ror #14
7000a13c:	6974706f 	ldmdbvs	r4!, {r0, r1, r2, r3, r5, r6, ip, sp, lr}^
7000a140:	61206e6f 	teqvs	r0, pc, ror #28
7000a144:	72657466 	rsbvc	r7, r5, #1711276032	; 0x66000000
7000a148:	00002520 	andeq	r2, r0, r0, lsr #10

Disassembly of section .data:

7000a14c <task_string_uuid>:
7000a14c:	d1059173 	tstle	r5, r3, ror r1
7000a150:	ed7797a7 	ldcl	7, cr9, [r7, #-668]!	; 0xfffffd64
7000a154:	32ab9d61 	adccc	r9, fp, #6208	; 0x1840
7000a158:	4b89ba6d 	blmi	6e278b14 <PHY_OFFSET-0x1d8f4ec>

7000a15c <client_uuid>:
7000a15c:	e3dd2d2c 	bics	r2, sp, #2816	; 0xb00
7000a160:	2f28e392 	svccs	0x0028e392
7000a164:	eb5279ce 	bl	714a88a4 <_CLIENT_END+0x14688a4>
7000a168:	0025de78 	eoreq	sp, r5, r8, ror lr

7000a16c <_ctype>:
7000a16c:	08080808 	stmdaeq	r8, {r3, fp}
7000a170:	08080808 	stmdaeq	r8, {r3, fp}
7000a174:	28282808 	stmdacs	r8!, {r3, fp, sp}
7000a178:	08082828 	stmdaeq	r8, {r3, r5, fp, sp}
7000a17c:	08080808 	stmdaeq	r8, {r3, fp}
7000a180:	08080808 	stmdaeq	r8, {r3, fp}
7000a184:	08080808 	stmdaeq	r8, {r3, fp}
7000a188:	08080808 	stmdaeq	r8, {r3, fp}
7000a18c:	101010a0 	andsne	r1, r0, r0, lsr #1
7000a190:	10101010 	andsne	r1, r0, r0, lsl r0
7000a194:	10101010 	andsne	r1, r0, r0, lsl r0
7000a198:	10101010 	andsne	r1, r0, r0, lsl r0
7000a19c:	04040404 	streq	r0, [r4], #-1028	; 0x404
7000a1a0:	04040404 	streq	r0, [r4], #-1028	; 0x404
7000a1a4:	10100404 	andsne	r0, r0, r4, lsl #8
7000a1a8:	10101010 	andsne	r1, r0, r0, lsl r0
7000a1ac:	41414110 	cmpmi	r1, r0, lsl r1
7000a1b0:	01414141 	cmpeq	r1, r1, asr #2
7000a1b4:	01010101 	tsteq	r1, r1, lsl #2
7000a1b8:	01010101 	tsteq	r1, r1, lsl #2
7000a1bc:	01010101 	tsteq	r1, r1, lsl #2
7000a1c0:	01010101 	tsteq	r1, r1, lsl #2
7000a1c4:	10010101 	andne	r0, r1, r1, lsl #2
7000a1c8:	10101010 	andsne	r1, r0, r0, lsl r0
7000a1cc:	42424210 	submi	r4, r2, #1
7000a1d0:	02424242 	subeq	r4, r2, #536870916	; 0x20000004
7000a1d4:	02020202 	andeq	r0, r2, #536870912	; 0x20000000
7000a1d8:	02020202 	andeq	r0, r2, #536870912	; 0x20000000
7000a1dc:	02020202 	andeq	r0, r2, #536870912	; 0x20000000
7000a1e0:	02020202 	andeq	r0, r2, #536870912	; 0x20000000
7000a1e4:	10020202 	andne	r0, r2, r2, lsl #4
7000a1e8:	08101010 	ldmdaeq	r0, {r4, ip}
	...
7000a20c:	101010a0 	andsne	r1, r0, r0, lsr #1
7000a210:	10101010 	andsne	r1, r0, r0, lsl r0
7000a214:	10101010 	andsne	r1, r0, r0, lsl r0
7000a218:	10101010 	andsne	r1, r0, r0, lsl r0
7000a21c:	10101010 	andsne	r1, r0, r0, lsl r0
7000a220:	10101010 	andsne	r1, r0, r0, lsl r0
7000a224:	10101010 	andsne	r1, r0, r0, lsl r0
7000a228:	10101010 	andsne	r1, r0, r0, lsl r0
7000a22c:	01010101 	tsteq	r1, r1, lsl #2
7000a230:	01010101 	tsteq	r1, r1, lsl #2
7000a234:	01010101 	tsteq	r1, r1, lsl #2
7000a238:	01010101 	tsteq	r1, r1, lsl #2
7000a23c:	01010101 	tsteq	r1, r1, lsl #2
7000a240:	10010101 	andne	r0, r1, r1, lsl #2
7000a244:	01010101 	tsteq	r1, r1, lsl #2
7000a248:	02010101 	andeq	r0, r1, #1073741824	; 0x40000000
7000a24c:	02020202 	andeq	r0, r2, #536870912	; 0x20000000
7000a250:	02020202 	andeq	r0, r2, #536870912	; 0x20000000
7000a254:	02020202 	andeq	r0, r2, #536870912	; 0x20000000
7000a258:	02020202 	andeq	r0, r2, #536870912	; 0x20000000
7000a25c:	02020202 	andeq	r0, r2, #536870912	; 0x20000000
7000a260:	10020202 	andne	r0, r2, r2, lsl #4
7000a264:	02020202 	andeq	r0, r2, #536870912	; 0x20000000
7000a268:	02020202 	andeq	r0, r2, #536870912	; 0x20000000

Disassembly of section .bss:

7000a26c <g_stack_abt>:
	...

7000b26c <g_stack_svc>:
	...

7000c26c <g_stack_fiq>:
	...

7000d26c <g_stack_undef>:
	...

7000e26c <g_stack_irq>:
	...

7000f26c <g_stack_sys>:
	...

7001026c <kernel_mem>:
	...

7002026c <user_mem_flag>:
	...

7002036c <kernel_mem_flag>:
	...

7002046c <user_mem>:
	...

Disassembly of section .ARM.attributes:

00000000 <.ARM.attributes>:
   0:	00003241 	andeq	r3, r0, r1, asr #4
   4:	61656100 	cmnvs	r5, r0, lsl #2
   8:	01006962 	tsteq	r0, r2, ror #18
   c:	00000028 	andeq	r0, r0, r8, lsr #32
  10:	524f4305 	subpl	r4, pc, #335544320	; 0x14000000
  14:	2d584554 	cfldr64cs	mvdx4, [r8, #-336]	; 0xfffffeb0
  18:	06003841 	streq	r3, [r0], -r1, asr #16
  1c:	0841070a 	stmdaeq	r1, {r1, r3, r8, r9, sl}^
  20:	0a020901 	beq	8242c <PHY_OFFSET-0x6ff85bd4>
  24:	14041202 	strne	r1, [r4], #-514	; 0x202
  28:	17011501 	strne	r1, [r1, -r1, lsl #10]
  2c:	1a011803 	bne	46040 <PHY_OFFSET-0x6ffc1fc0>
  30:	Address 0x00000030 is out of bounds.


Disassembly of section .comment:

00000000 <.comment>:
   0:	3a434347 	bcc	10d0d24 <PHY_OFFSET-0x6ef372dc>
   4:	74632820 	strbtvc	r2, [r3], #-2080	; 0x820
   8:	312d676e 	teqcc	sp, lr, ror #14
   c:	312e382e 	teqcc	lr, lr, lsr #16
  10:	2941462d 	stmdbcs	r1, {r0, r2, r3, r5, r9, sl, lr}^
  14:	352e3420 	strcc	r3, [lr, #-1056]!	; 0x420
  18:	Address 0x00000018 is out of bounds.


Disassembly of section .debug_line:

00000000 <.debug_line>:
   0:	00000077 	andeq	r0, r0, r7, ror r0
   4:	00560002 	subseq	r0, r6, r2
   8:	01020000 	tsteq	r2, r0
   c:	000d0efb 	strdeq	r0, [sp], -fp
  10:	01010101 	tsteq	r1, r1, lsl #2
  14:	01000000 	tsteq	r0, r0
  18:	2f010000 	svccs	0x00010000
  1c:	6964656d 	stmdbvs	r4!, {r0, r2, r3, r5, r6, r8, sl, sp, lr}^
  20:	2f442f61 	svccs	0x00442f61
  24:	756e696c 	strbvc	r6, [lr, #-2412]!	; 0x96c
  28:	68732d78 	ldmdavs	r3!, {r3, r4, r5, r6, r8, sl, fp, sp}^
  2c:	2f657261 	svccs	0x00657261
  30:	6a6f7270 	bvs	1bdc9f8 <PHY_OFFSET-0x6e42b608>
  34:	73746365 	cmnvc	r4, #-1811939327	; 0x94000001
  38:	7572742f 	ldrbvc	r7, [r2, #-1071]!	; 0x42f
  3c:	6f7a7473 	svcvs	0x007a7473
  40:	632f656e 	teqvs	pc, #461373440	; 0x1b800000
  44:	6e65696c 	cdpvs	9, 6, cr6, cr5, cr12, {3}
  48:	72732f74 	rsbsvc	r2, r3, #464	; 0x1d0
  4c:	72612f63 	rsbvc	r2, r1, #396	; 0x18c
  50:	00006863 	andeq	r6, r0, r3, ror #16
  54:	72617473 	rsbvc	r7, r1, #1929379840	; 0x73000000
  58:	00532e74 	subseq	r2, r3, r4, ror lr
  5c:	00000001 	andeq	r0, r0, r1
  60:	00020500 	andeq	r0, r2, r0, lsl #10
  64:	19700080 	ldmdbne	r0!, {r7}^
  68:	2f302f31 	svccs	0x00302f31
  6c:	2f302f30 	svccs	0x00302f30
  70:	2f312f31 	svccs	0x00312f31
  74:	0e023030 	mcreq	0, 0, r3, cr2, cr0, {1}
  78:	3c010100 	stfccs	f0, [r1], {0}
  7c:	02000001 	andeq	r0, r0, #1
  80:	0000ab00 	andeq	sl, r0, r0, lsl #22
  84:	fb010200 	blx	4088e <PHY_OFFSET-0x6ffc7772>
  88:	01000d0e 	tsteq	r0, lr, lsl #26
  8c:	00010101 	andeq	r0, r1, r1, lsl #2
  90:	00010000 	andeq	r0, r1, r0
  94:	6d2f0100 	stfvss	f0, [pc]
  98:	61696465 	cmnvs	r9, r5, ror #8
  9c:	6c2f442f 	cfstrsvs	mvf4, [pc], #-188	; 0xffffff44
  a0:	78756e69 	ldmdavc	r5!, {r0, r3, r5, r6, r9, sl, fp, sp, lr}^
  a4:	6168732d 	cmnvs	r8, sp, lsr #6
  a8:	702f6572 	eorvc	r6, pc, r2, ror r5
  ac:	656a6f72 	strbvs	r6, [sl, #-3954]!	; 0xf72
  b0:	2f737463 	svccs	0x00737463
  b4:	73757274 	cmnvc	r5, #1073741831	; 0x40000007
  b8:	6e6f7a74 	mcrvs	10, 3, r7, cr15, cr4, {3}
  bc:	6c632f65 	stclvs	15, cr2, [r3], #-404	; 0xfffffe6c
  c0:	746e6569 	strbtvc	r6, [lr], #-1385	; 0x569
  c4:	6372732f 	cmnvs	r2, #-1140850688	; 0xbc000000
  c8:	616f622f 	cmnvs	pc, pc, lsr #4
  cc:	2f006472 	svccs	0x00006472
  d0:	6964656d 	stmdbvs	r4!, {r0, r2, r3, r5, r6, r8, sl, sp, lr}^
  d4:	2f442f61 	svccs	0x00442f61
  d8:	756e696c 	strbvc	r6, [lr, #-2412]!	; 0x96c
  dc:	68732d78 	ldmdavs	r3!, {r3, r4, r5, r6, r8, sl, fp, sp}^
  e0:	2f657261 	svccs	0x00657261
  e4:	6a6f7270 	bvs	1bdcaac <PHY_OFFSET-0x6e42b554>
  e8:	73746365 	cmnvc	r4, #-1811939327	; 0x94000001
  ec:	7572742f 	ldrbvc	r7, [r2, #-1071]!	; 0x42f
  f0:	6f7a7473 	svcvs	0x007a7473
  f4:	632f656e 	teqvs	pc, #461373440	; 0x1b800000
  f8:	6e65696c 	cdpvs	9, 6, cr6, cr5, cr12, {3}
  fc:	72732f74 	rsbsvc	r2, r3, #464	; 0x1d0
 100:	6f622f63 	svcvs	0x00622f63
 104:	2f647261 	svccs	0x00647261
 108:	6c636e69 	stclvs	14, cr6, [r3], #-420	; 0xfffffe5c
 10c:	00656475 	rsbeq	r6, r5, r5, ror r4
 110:	69616d00 	stmdbvs	r1!, {r8, sl, fp, sp, lr}^
 114:	00632e6e 	rsbeq	r2, r3, lr, ror #28
 118:	63000001 	movwvs	r0, #1
 11c:	6e65696c 	cdpvs	9, 6, cr6, cr5, cr12, {3}
 120:	6e695f74 	mcrvs	15, 3, r5, cr9, cr4, {3}
 124:	64756c63 	ldrbtvs	r6, [r5], #-3171	; 0xc63
 128:	00682e65 	rsbeq	r2, r8, r5, ror #28
 12c:	00000002 	andeq	r0, r0, r2
 130:	60020500 	andvs	r0, r2, r0, lsl #10
 134:	03700080 	cmneq	r0, #128	; 0x80
 138:	67840118 	usada8vs	r4, r8, r1, r0
 13c:	04020067 	streq	r0, [r2], #-103	; 0x67
 140:	00660602 	rsbeq	r0, r6, r2, lsl #12
 144:	66010402 	strvs	r0, [r1], -r2, lsl #8
 148:	02008106 	andeq	r8, r0, #-2147483647	; 0x80000001
 14c:	66060104 	strvs	r0, [r6], -r4, lsl #2
 150:	02008106 	andeq	r8, r0, #-2147483647	; 0x80000001
 154:	66060104 	strvs	r0, [r6], -r4, lsl #2
 158:	84698806 	strbthi	r8, [r9], #-2054	; 0x806
 15c:	3148302d 	cmpcc	r8, sp, lsr #32
 160:	4533464b 	ldrmi	r4, [r3, #-1611]!	; 0x64b
 164:	4a7a0334 	bmi	1e80e3c <PHY_OFFSET-0x6e1871c4>
 168:	4a790335 	bmi	1e40e44 <PHY_OFFSET-0x6e1c71bc>
 16c:	4a780336 	bmi	1e00e4c <PHY_OFFSET-0x6e2071b4>
 170:	032e0903 	teqeq	lr, #49152	; 0xc000
 174:	0a034a77 	beq	d2b58 <PHY_OFFSET-0x6ff354a8>
 178:	4a76032e 	bmi	1d80e38 <PHY_OFFSET-0x6e2871c8>
 17c:	032e0b03 	teqeq	lr, #3072	; 0xc00
 180:	0c034a75 	stceq	10, cr4, [r3], {117}	; 0x75
 184:	674e5808 	strbvs	r5, [lr, -r8, lsl #16]
 188:	4c2f4c4d 	stcmi	12, cr4, [pc], #-308	; 0xfffffecc
 18c:	83834b8a 	orrhi	r4, r3, #141312	; 0x22800
 190:	d74ebb4b 	strble	fp, [lr, -fp, asr #22]
 194:	04020067 	streq	r0, [r2], #-103	; 0x67
 198:	67316701 	ldrvs	r6, [r1, -r1, lsl #14]!
 19c:	9fa16767 	svcls	0x00a16767
 1a0:	9f4b8383 	svcls	0x004b8383
 1a4:	6867f44e 	stmdavs	r7!, {r1, r2, r3, r6, sl, ip, sp, lr, pc}^
 1a8:	85678384 	strbhi	r8, [r7, #-900]!	; 0x384
 1ac:	4b838369 	blmi	fe0e0f58 <_CLIENT_END+0x8e0a0f58>
 1b0:	67f44e9f 	undefined instruction 0x67f44e9f
 1b4:	02028468 	andeq	r8, r2, #1744830464	; 0x68000000
 1b8:	9c010100 	stflss	f0, [r1], {0}
 1bc:	02000000 	andeq	r0, r0, #0
 1c0:	00005600 	andeq	r5, r0, r0, lsl #12
 1c4:	fb010200 	blx	409ce <PHY_OFFSET-0x6ffc7632>
 1c8:	01000d0e 	tsteq	r0, lr, lsl #26
 1cc:	00010101 	andeq	r0, r1, r1, lsl #2
 1d0:	00010000 	andeq	r0, r1, r0
 1d4:	6d2f0100 	stfvss	f0, [pc]
 1d8:	61696465 	cmnvs	r9, r5, ror #8
 1dc:	6c2f442f 	cfstrsvs	mvf4, [pc], #-188	; 0xffffff44
 1e0:	78756e69 	ldmdavc	r5!, {r0, r3, r5, r6, r9, sl, fp, sp, lr}^
 1e4:	6168732d 	cmnvs	r8, sp, lsr #6
 1e8:	702f6572 	eorvc	r6, pc, r2, ror r5
 1ec:	656a6f72 	strbvs	r6, [sl, #-3954]!	; 0xf72
 1f0:	2f737463 	svccs	0x00737463
 1f4:	73757274 	cmnvc	r5, #1073741831	; 0x40000007
 1f8:	6e6f7a74 	mcrvs	10, 3, r7, cr15, cr4, {3}
 1fc:	6c632f65 	stclvs	15, cr2, [r3], #-404	; 0xfffffe6c
 200:	746e6569 	strbtvc	r6, [lr], #-1385	; 0x569
 204:	6372732f 	cmnvs	r2, #-1140850688	; 0xbc000000
 208:	616f622f 	cmnvs	pc, pc, lsr #4
 20c:	00006472 	andeq	r6, r0, r2, ror r4
 210:	74726175 	ldrbtvc	r6, [r2], #-373	; 0x175
 214:	0100632e 	tsteq	r0, lr, lsr #6
 218:	00000000 	andeq	r0, r0, r0
 21c:	84100205 	ldrhi	r0, [r0], #-517	; 0x205
 220:	e3037000 	movw	r7, #12288	; 0x3000
 224:	bb9f0100 	bllt	fe7c062c <_CLIENT_END+0x8e78062c>
 228:	bbbb694b 	bllt	feeda75c <_CLIENT_END+0x8ee9a75c>
 22c:	f4834d67 	vst2.<illegal width 64>	{d4[0],d5[0]}, [r3], r7
 230:	6a686868 	bvs	1a1a3d8 <PHY_OFFSET-0x6e5edc28>
 234:	00a0852f 	adceq	r8, r0, pc, lsr #10
 238:	06010402 	streq	r0, [r1], -r2, lsl #8
 23c:	9fd9062e 	svcls	0x00d9062e
 240:	304c834d 	subcc	r8, ip, sp, asr #6
 244:	040200bb 	streq	r0, [r2], #-187	; 0xbb
 248:	4dbf6301 	ldcmi	3, cr6, [pc, #4]!
 24c:	679f8485 	ldrvs	r8, [pc, r5, lsl #9]
 250:	879e0c03 	ldrhi	r0, [lr, r3, lsl #24]
 254:	04028585 	streq	r8, [r2], #-1413	; 0x585
 258:	72010100 	andvc	r0, r1, #0
 25c:	02000001 	andeq	r0, r0, #1
 260:	0000ae00 	andeq	sl, r0, r0, lsl #28
 264:	fb010200 	blx	40a6e <PHY_OFFSET-0x6ffc7592>
 268:	01000d0e 	tsteq	r0, lr, lsl #26
 26c:	00010101 	andeq	r0, r1, r1, lsl #2
 270:	00010000 	andeq	r0, r1, r0
 274:	6d2f0100 	stfvss	f0, [pc]
 278:	61696465 	cmnvs	r9, r5, ror #8
 27c:	6c2f442f 	cfstrsvs	mvf4, [pc], #-188	; 0xffffff44
 280:	78756e69 	ldmdavc	r5!, {r0, r3, r5, r6, r9, sl, fp, sp, lr}^
 284:	6168732d 	cmnvs	r8, sp, lsr #6
 288:	702f6572 	eorvc	r6, pc, r2, ror r5
 28c:	656a6f72 	strbvs	r6, [sl, #-3954]!	; 0xf72
 290:	2f737463 	svccs	0x00737463
 294:	73757274 	cmnvc	r5, #1073741831	; 0x40000007
 298:	6e6f7a74 	mcrvs	10, 3, r7, cr15, cr4, {3}
 29c:	6c632f65 	stclvs	15, cr2, [r3], #-404	; 0xfffffe6c
 2a0:	746e6569 	strbtvc	r6, [lr], #-1385	; 0x569
 2a4:	6372732f 	cmnvs	r2, #-1140850688	; 0xbc000000
 2a8:	616f622f 	cmnvs	pc, pc, lsr #4
 2ac:	2f006472 	svccs	0x00006472
 2b0:	6964656d 	stmdbvs	r4!, {r0, r2, r3, r5, r6, r8, sl, sp, lr}^
 2b4:	2f442f61 	svccs	0x00442f61
 2b8:	756e696c 	strbvc	r6, [lr, #-2412]!	; 0x96c
 2bc:	68732d78 	ldmdavs	r3!, {r3, r4, r5, r6, r8, sl, fp, sp}^
 2c0:	2f657261 	svccs	0x00657261
 2c4:	6a6f7270 	bvs	1bdcc8c <PHY_OFFSET-0x6e42b374>
 2c8:	73746365 	cmnvc	r4, #-1811939327	; 0x94000001
 2cc:	7572742f 	ldrbvc	r7, [r2, #-1071]!	; 0x42f
 2d0:	6f7a7473 	svcvs	0x007a7473
 2d4:	632f656e 	teqvs	pc, #461373440	; 0x1b800000
 2d8:	6e65696c 	cdpvs	9, 6, cr6, cr5, cr12, {3}
 2dc:	72732f74 	rsbsvc	r2, r3, #464	; 0x1d0
 2e0:	6f622f63 	svcvs	0x00622f63
 2e4:	2f647261 	svccs	0x00647261
 2e8:	6c636e69 	stclvs	14, cr6, [r3], #-420	; 0xfffffe5c
 2ec:	00656475 	rsbeq	r6, r5, r5, ror r4
 2f0:	6d656d00 	stclvs	13, cr6, [r5]
 2f4:	676e6d5f 	undefined instruction 0x676e6d5f
 2f8:	0100632e 	tsteq	r0, lr, lsr #6
 2fc:	6c630000 	stclvs	0, cr0, [r3]
 300:	746e6569 	strbtvc	r6, [lr], #-1385	; 0x569
 304:	636e695f 	cmnvs	lr, #1556480	; 0x17c000
 308:	6564756c 	strbvs	r7, [r4, #-1388]!	; 0x56c
 30c:	0200682e 	andeq	r6, r0, #3014656	; 0x2e0000
 310:	00000000 	andeq	r0, r0, r0
 314:	86440205 	strbhi	r0, [r4], -r5, lsl #4
 318:	0a037000 	beq	dc320 <PHY_OFFSET-0x6ff2bce0>
 31c:	02006801 	andeq	r6, r0, #65536	; 0x10000
 320:	00670204 	rsbeq	r0, r7, r4, lsl #4
 324:	9f020402 	svcls	0x00020402
 328:	02040200 	andeq	r0, r4, #0
 32c:	0402009c 	streq	r0, [r2], #-156	; 0x9c
 330:	06660601 	strbteq	r0, [r6], -r1, lsl #12
 334:	6784696a 	strvs	r6, [r4, sl, ror #18]
 338:	9fbb674c 	svcls	0x00bb674c
 33c:	040200b7 	streq	r0, [r2], #-183	; 0xb7
 340:	06660601 	strbteq	r0, [r6], -r1, lsl #12
 344:	84852f6d 	strhi	r2, [r5], #3949	; 0xf6d
 348:	bb674c67 	bllt	19d34ec <PHY_OFFSET-0x6e634b14>
 34c:	0200b79f 	andeq	fp, r0, #41680896	; 0x27c0000
 350:	66060104 	strvs	r0, [r6], -r4, lsl #2
 354:	84868806 	strhi	r8, [r6], #2054	; 0x806
 358:	2b9ff367 	blcs	fe7fd0fc <_CLIENT_END+0x8e7bd0fc>
 35c:	01040200 	tsteq	r4, r0, lsl #4
 360:	6c066606 	stcvs	6, cr6, [r6], {6}
 364:	f3678469 	vshl.u32	q12, <illegal reg q12.5>, <illegal reg q3.5>
 368:	02002b9f 	andeq	r2, r0, #162816	; 0x27c00
 36c:	66060104 	strvs	r0, [r6], -r4, lsl #2
 370:	bb6a6c06 	bllt	1a9b390 <PHY_OFFSET-0x6e56cc70>
 374:	02004b4b 	andeq	r4, r0, #76800	; 0x12c00
 378:	66060104 	strvs	r0, [r6], -r4, lsl #2
 37c:	02006706 	andeq	r6, r0, #1572864	; 0x180000
 380:	32bc0104 	adcscc	r0, ip, #1
 384:	02005708 	andeq	r5, r0, #2097152	; 0x200000
 388:	2e060104 	adfcss	f0, f6, f4
 38c:	4e3f0806 	cdpmi	8, 3, cr0, cr15, cr6, {0}
 390:	4e674b83 	vmulmi.f64	d20, d23, d3
 394:	04020081 	streq	r0, [r2], #-129	; 0x81
 398:	062e0601 	strteq	r0, [lr], -r1, lsl #12
 39c:	852f5b08 	strhi	r5, [pc, #-2824]!	; fffff89c <_CLIENT_END+0x8ffbf89c>
 3a0:	02004b9f 	andeq	r4, r0, #162816	; 0x27c00
 3a4:	66060104 	strvs	r0, [r6], -r4, lsl #2
 3a8:	084e6706 	stmdaeq	lr, {r1, r2, r8, r9, sl, sp, lr}^
 3ac:	04020057 	streq	r0, [r2], #-87	; 0x57
 3b0:	062e0601 	strteq	r0, [lr], -r1, lsl #12
 3b4:	862f6785 	strthi	r6, [pc], -r5, lsl #15
 3b8:	02004bbc 	andeq	r4, r0, #192512	; 0x2f000
 3bc:	00670204 	rsbeq	r0, r7, r4, lsl #4
 3c0:	b9020402 	stmdblt	r2, {r1, sl}
 3c4:	01040200 	tsteq	r4, r0, lsl #4
 3c8:	85066606 	strhi	r6, [r6, #-1542]	; 0x606
 3cc:	01000602 	tsteq	r0, r2, lsl #12
 3d0:	00010901 	andeq	r0, r1, r1, lsl #18
 3d4:	b3000200 	movwlt	r0, #512	; 0x200
 3d8:	02000000 	andeq	r0, r0, #0
 3dc:	0d0efb01 	vstreq	d15, [lr, #-4]
 3e0:	01010100 	tsteq	r1, r0, lsl #2
 3e4:	00000001 	andeq	r0, r0, r1
 3e8:	01000001 	tsteq	r0, r1
 3ec:	64656d2f 	strbtvs	r6, [r5], #-3375	; 0xd2f
 3f0:	442f6169 	strtmi	r6, [pc], #361	; 3f8 <PHY_OFFSET-0x70007c08>
 3f4:	6e696c2f 	cdpvs	12, 6, cr6, cr9, cr15, {1}
 3f8:	732d7875 	teqvc	sp, #7667712	; 0x750000
 3fc:	65726168 	ldrbvs	r6, [r2, #-360]!	; 0x168
 400:	6f72702f 	svcvs	0x0072702f
 404:	7463656a 	strbtvc	r6, [r3], #-1386	; 0x56a
 408:	72742f73 	rsbsvc	r2, r4, #460	; 0x1cc
 40c:	7a747375 	bvc	1d1d1e8 <PHY_OFFSET-0x6e2eae18>
 410:	2f656e6f 	svccs	0x00656e6f
 414:	65696c63 	strbvs	r6, [r9, #-3171]!	; 0xc63
 418:	732f746e 	teqvc	pc, #1845493760	; 0x6e000000
 41c:	622f6372 	eorvs	r6, pc, #-939524095	; 0xc8000001
 420:	6472616f 	ldrbtvs	r6, [r2], #-367	; 0x16f
 424:	656d2f00 	strbvs	r2, [sp, #-3840]!	; 0xf00
 428:	2f616964 	svccs	0x00616964
 42c:	696c2f44 	stmdbvs	ip!, {r2, r6, r8, r9, sl, fp, sp}^
 430:	2d78756e 	cfldr64cs	mvdx7, [r8, #-440]!	; 0xfffffe48
 434:	72616873 	rsbvc	r6, r1, #7536640	; 0x730000
 438:	72702f65 	rsbsvc	r2, r0, #404	; 0x194
 43c:	63656a6f 	cmnvs	r5, #454656	; 0x6f000
 440:	742f7374 	strtvc	r7, [pc], #884	; 448 <PHY_OFFSET-0x70007bb8>
 444:	74737572 	ldrbtvc	r7, [r3], #-1394	; 0x572
 448:	656e6f7a 	strbvs	r6, [lr, #-3962]!	; 0xf7a
 44c:	696c632f 	stmdbvs	ip!, {r0, r1, r2, r3, r5, r8, r9, sp, lr}^
 450:	2f746e65 	svccs	0x00746e65
 454:	2f637273 	svccs	0x00637273
 458:	72616f62 	rsbvc	r6, r1, #392	; 0x188
 45c:	6e692f64 	cdpvs	15, 6, cr2, cr9, cr4, {3}
 460:	64756c63 	ldrbtvs	r6, [r5], #-3171	; 0xc63
 464:	6b000065 	blvs	600 <PHY_OFFSET-0x70007a00>
 468:	656e7265 	strbvs	r7, [lr, #-613]!	; 0x265
 46c:	616c5f6c 	cmnvs	ip, ip, ror #30
 470:	2e726579 	mrccs	5, 3, r6, cr2, cr9, {3}
 474:	00010063 	andeq	r0, r1, r3, rrx
 478:	696c6300 	stmdbvs	ip!, {r8, r9, sp, lr}^
 47c:	5f746e65 	svcpl	0x00746e65
 480:	6c636e69 	stclvs	14, cr6, [r3], #-420	; 0xfffffe5c
 484:	2e656475 	mcrcs	4, 3, r6, cr5, cr5, {3}
 488:	00020068 	andeq	r0, r2, r8, rrx
 48c:	05000000 	streq	r0, [r0]
 490:	008b1c02 	addeq	r1, fp, r2, lsl #24
 494:	010f0370 	tsteq	pc, r0, ror r3
 498:	4f821e03 	svcmi	0x00821e03
 49c:	4b4b4b2f 	blmi	12d3160 <PHY_OFFSET-0x6ed34ea0>
 4a0:	892f4b30 	stmdbhi	pc!, {r4, r5, r8, r9, fp, lr}
 4a4:	6a4c4bbb 	bvs	1313398 <PHY_OFFSET-0x6ecf4c68>
 4a8:	9fa08468 	svcls	0x00a08468
 4ac:	6867d867 	stmdavs	r7!, {r0, r1, r2, r5, r6, fp, ip, lr, pc}^
 4b0:	8383674e 	orrhi	r6, r3, #20447232	; 0x1380000
 4b4:	2f4bbb67 	svccs	0x004bbb67
 4b8:	4c4b8369 	mcrrmi	3, 6, r8, fp, cr9
 4bc:	bb678383 	bllt	19e12d0 <PHY_OFFSET-0x6e626d30>
 4c0:	d76c2f67 	strble	r2, [ip, -r7, ror #30]!
 4c4:	8583524b 	strhi	r5, [r3, #587]	; 0x24b
 4c8:	a02d83d7 	ldrdge	r8, [sp], -r7
 4cc:	bc686884 	stcllt	8, cr6, [r8], #-528	; 0xfffffdf0
 4d0:	68838368 	stmvs	r3, {r3, r5, r6, r8, r9, pc}
 4d4:	4da12d83 	stcmi	13, cr2, [r1, #524]!	; 0x20c
 4d8:	0006022f 	andeq	r0, r6, pc, lsr #4
 4dc:	00a50101 	adceq	r0, r5, r1, lsl #2
 4e0:	00020000 	andeq	r0, r2, r0
 4e4:	0000009f 	muleq	r0, pc, r0
 4e8:	0efb0102 	cdpeq	1, 15, cr0, cr11, cr2, {0}
 4ec:	0101000d 	tsteq	r1, sp
 4f0:	00000101 	andeq	r0, r0, r1, lsl #2
 4f4:	00000100 	andeq	r0, r0, r0, lsl #2
 4f8:	656d2f01 	strbvs	r2, [sp, #-3841]!	; 0xf01
 4fc:	2f616964 	svccs	0x00616964
 500:	696c2f44 	stmdbvs	ip!, {r2, r6, r8, r9, sl, fp, sp}^
 504:	2d78756e 	cfldr64cs	mvdx7, [r8, #-440]!	; 0xfffffe48
 508:	72616873 	rsbvc	r6, r1, #7536640	; 0x730000
 50c:	72702f65 	rsbsvc	r2, r0, #404	; 0x194
 510:	63656a6f 	cmnvs	r5, #454656	; 0x6f000
 514:	742f7374 	strtvc	r7, [pc], #884	; 51c <PHY_OFFSET-0x70007ae4>
 518:	74737572 	ldrbtvc	r7, [r3], #-1394	; 0x572
 51c:	656e6f7a 	strbvs	r6, [lr, #-3962]!	; 0xf7a
 520:	696c632f 	stmdbvs	ip!, {r0, r1, r2, r3, r5, r8, r9, sp, lr}^
 524:	2f746e65 	svccs	0x00746e65
 528:	2f637273 	svccs	0x00637273
 52c:	2f62696c 	svccs	0x0062696c
 530:	6c636e69 	stclvs	14, cr6, [r3], #-420	; 0xfffffe5c
 534:	00656475 	rsbeq	r6, r5, r5, ror r4
 538:	64656d2f 	strbtvs	r6, [r5], #-3375	; 0xd2f
 53c:	442f6169 	strtmi	r6, [pc], #361	; 544 <PHY_OFFSET-0x70007abc>
 540:	6e696c2f 	cdpvs	12, 6, cr6, cr9, cr15, {1}
 544:	732d7875 	teqvc	sp, #7667712	; 0x750000
 548:	65726168 	ldrbvs	r6, [r2, #-360]!	; 0x168
 54c:	6f72702f 	svcvs	0x0072702f
 550:	7463656a 	strbtvc	r6, [r3], #-1386	; 0x56a
 554:	72742f73 	rsbsvc	r2, r4, #460	; 0x1cc
 558:	7a747375 	bvc	1d1d334 <PHY_OFFSET-0x6e2eaccc>
 55c:	2f656e6f 	svccs	0x00656e6f
 560:	65696c63 	strbvs	r6, [r9, #-3171]!	; 0xc63
 564:	732f746e 	teqvc	pc, #1845493760	; 0x6e000000
 568:	6c2f6372 	stcvs	3, cr6, [pc], #-456	; 0xfffffe38
 56c:	00006269 	andeq	r6, r0, r9, ror #4
 570:	70797463 	rsbsvc	r7, r9, r3, ror #8
 574:	00682e65 	rsbeq	r2, r8, r5, ror #28
 578:	63000001 	movwvs	r0, #1
 57c:	65707974 	ldrbvs	r7, [r0, #-2420]!	; 0x974
 580:	0200632e 	andeq	r6, r0, #-1207959552	; 0xb8000000
 584:	24000000 	strcs	r0, [r0]
 588:	02000002 	andeq	r0, r0, #2
 58c:	0000f700 	andeq	pc, r0, r0, lsl #14
 590:	fb010200 	blx	40d9a <PHY_OFFSET-0x6ffc7266>
 594:	01000d0e 	tsteq	r0, lr, lsl #26
 598:	00010101 	andeq	r0, r1, r1, lsl #2
 59c:	00010000 	andeq	r0, r1, r0
 5a0:	6d2f0100 	stfvss	f0, [pc]
 5a4:	61696465 	cmnvs	r9, r5, ror #8
 5a8:	6c2f442f 	cfstrsvs	mvf4, [pc], #-188	; 0xffffff44
 5ac:	78756e69 	ldmdavc	r5!, {r0, r3, r5, r6, r9, sl, fp, sp, lr}^
 5b0:	6168732d 	cmnvs	r8, sp, lsr #6
 5b4:	702f6572 	eorvc	r6, pc, r2, ror r5
 5b8:	656a6f72 	strbvs	r6, [sl, #-3954]!	; 0xf72
 5bc:	2f737463 	svccs	0x00737463
 5c0:	73757274 	cmnvc	r5, #1073741831	; 0x40000007
 5c4:	6e6f7a74 	mcrvs	10, 3, r7, cr15, cr4, {3}
 5c8:	6c632f65 	stclvs	15, cr2, [r3], #-404	; 0xfffffe6c
 5cc:	746e6569 	strbtvc	r6, [lr], #-1385	; 0x569
 5d0:	6372732f 	cmnvs	r2, #-1140850688	; 0xbc000000
 5d4:	62696c2f 	rsbvs	r6, r9, #12032	; 0x2f00
 5d8:	73752f00 	cmnvc	r5, #0
 5dc:	6f6c2f72 	svcvs	0x006c2f72
 5e0:	2f6c6163 	svccs	0x006c6163
 5e4:	2f6d7261 	svccs	0x006d7261
 5e8:	2e352e34 	mrccs	14, 1, r2, cr5, cr4, {1}
 5ec:	69622f31 	stmdbvs	r2!, {r0, r4, r5, r8, r9, sl, fp, sp}^
 5f0:	2e2e2f6e 	cdpcs	15, 2, cr2, cr14, cr14, {3}
 5f4:	62696c2f 	rsbvs	r6, r9, #12032	; 0x2f00
 5f8:	6363672f 	cmnvs	r3, #12320768	; 0xbc0000
 5fc:	6d72612f 	ldfvse	f6, [r2, #-188]!	; 0xffffff44
 600:	6e6f6e2d 	cdpvs	14, 6, cr6, cr15, cr13, {1}
 604:	696c2d65 	stmdbvs	ip!, {r0, r2, r5, r6, r8, sl, fp, sp}^
 608:	2d78756e 	cfldr64cs	mvdx7, [r8, #-440]!	; 0xfffffe48
 60c:	65756e67 	ldrbvs	r6, [r5, #-3687]!	; 0xe67
 610:	2f696261 	svccs	0x00696261
 614:	2e352e34 	mrccs	14, 1, r2, cr5, cr4, {1}
 618:	6e692f31 	mcrvs	15, 3, r2, cr9, cr1, {1}
 61c:	64756c63 	ldrbtvs	r6, [r5], #-3171	; 0xc63
 620:	6d2f0065 	stcvs	0, cr0, [pc, #-404]!	; 0xfffffe6c
 624:	61696465 	cmnvs	r9, r5, ror #8
 628:	6c2f442f 	cfstrsvs	mvf4, [pc], #-188	; 0xffffff44
 62c:	78756e69 	ldmdavc	r5!, {r0, r3, r5, r6, r9, sl, fp, sp, lr}^
 630:	6168732d 	cmnvs	r8, sp, lsr #6
 634:	702f6572 	eorvc	r6, pc, r2, ror r5
 638:	656a6f72 	strbvs	r6, [sl, #-3954]!	; 0xf72
 63c:	2f737463 	svccs	0x00737463
 640:	73757274 	cmnvc	r5, #1073741831	; 0x40000007
 644:	6e6f7a74 	mcrvs	10, 3, r7, cr15, cr4, {3}
 648:	6c632f65 	stclvs	15, cr2, [r3], #-404	; 0xfffffe6c
 64c:	746e6569 	strbtvc	r6, [lr], #-1385	; 0x569
 650:	6372732f 	cmnvs	r2, #-1140850688	; 0xbc000000
 654:	62696c2f 	rsbvs	r6, r9, #12032	; 0x2f00
 658:	636e692f 	cmnvs	lr, #770048	; 0xbc000
 65c:	6564756c 	strbvs	r7, [r4, #-1388]!	; 0x56c
 660:	73760000 	cmnvc	r6, #0
 664:	6e697270 	mcrvs	2, 3, r7, cr9, cr0, {3}
 668:	632e6674 	teqvs	lr, #121634816	; 0x7400000
 66c:	00000100 	andeq	r0, r0, r0, lsl #2
 670:	61647473 	smcvs	18243	; 0x4743
 674:	682e6772 	stmdavs	lr!, {r1, r4, r5, r6, r8, r9, sl, sp, lr}
 678:	00000200 	andeq	r0, r0, r0, lsl #4
 67c:	70797463 	rsbsvc	r7, r9, r3, ror #8
 680:	00682e65 	rsbeq	r2, r8, r5, ror #28
 684:	00000003 	andeq	r0, r0, r3
 688:	60020500 	andvs	r0, r2, r0, lsl #10
 68c:	0370008e 	cmneq	r0, #142	; 0x8e
 690:	4b830121 	blmi	fe0c0b1c <_CLIENT_END+0x8e080b1c>
 694:	00814e67 	addeq	r4, r1, r7, ror #28
 698:	06010402 	streq	r0, [r1], -r2, lsl #8
 69c:	5b08062e 	blpl	201f5c <PHY_OFFSET-0x6fe060a4>
 6a0:	4c87852f 	cfstr32mi	mvfx8, [r7], {47}	; 0x2f
 6a4:	4b8367d9 	blmi	fe0da610 <_CLIENT_END+0x8e09a610>
 6a8:	0402007f 	streq	r0, [r2], #-127	; 0x7f
 6ac:	06660601 	strbteq	r0, [r6], -r1, lsl #12
 6b0:	bca12f8a 	stclt	15, cr2, [r1], #552	; 0x228
 6b4:	02002f4c 	andeq	r2, r0, #304	; 0x130
 6b8:	82060104 	andhi	r0, r6, #1
 6bc:	31d7f306 	bicscc	pc, r7, r6, lsl #6
 6c0:	4c4b6784 	mcrrmi	7, 8, r6, fp, cr4
 6c4:	00bb6785 	adcseq	r6, fp, r5, lsl #15
 6c8:	06010402 	streq	r0, [r1], -r2, lsl #8
 6cc:	68670666 	stmdavs	r7!, {r1, r2, r5, r6, r9, sl}^
 6d0:	32678569 	rsbcc	r8, r7, #440401920	; 0x1a400000
 6d4:	9f153e02 	svcls	0x00153e02
 6d8:	4b4b4b4b 	blmi	12d340c <PHY_OFFSET-0x6ed34bf4>
 6dc:	67f3674c 	ldrbvs	r6, [r3, ip, asr #14]!
 6e0:	02004c67 	andeq	r4, r0, #26368	; 0x6700
 6e4:	66060104 	strvs	r0, [r6], -r4, lsl #2
 6e8:	02009f06 	andeq	r9, r0, #24
 6ec:	66060104 	strvs	r0, [r6], -r4, lsl #2
 6f0:	08856706 	stmeq	r5, {r1, r2, r8, r9, sl, sp, lr}
 6f4:	4b304b5a 	blmi	c13464 <PHY_OFFSET-0x6f3f4b9c>
 6f8:	4b304b30 	blmi	c133c0 <PHY_OFFSET-0x6f3f4c40>
 6fc:	4b304b30 	blmi	c133c4 <PHY_OFFSET-0x6f3f4c3c>
 700:	d6600331 	undefined instruction 0xd6600331
 704:	01040200 	tsteq	r4, r0, lsl #4
 708:	03066606 	movweq	r6, #26118	; 0x6606
 70c:	4f318223 	svcmi	0x00318223
 710:	9f674c83 	svcls	0x00674c83
 714:	6968bb67 	stmdbvs	r8!, {r0, r1, r2, r5, r6, r8, r9, fp, ip, sp, pc}^
 718:	4b674d9f 	blmi	19d3d9c <PHY_OFFSET-0x6e634264>
 71c:	00836868 	addeq	r6, r3, r8, ror #16
 720:	64010402 	strvs	r0, [r1], #-1026	; 0x402
 724:	004b6786 	subeq	r6, fp, r6, lsl #15
 728:	06010402 	streq	r0, [r1], -r2, lsl #8
 72c:	67f30666 	ldrbvs	r0, [r3, r6, ror #12]!
 730:	bb2f4bd8 	bllt	bd3698 <PHY_OFFSET-0x6f434968>
 734:	01040200 	tsteq	r4, r0, lsl #4
 738:	4b4ba264 	blmi	12e90d0 <PHY_OFFSET-0x6ed1ef30>
 73c:	004a6e03 	subeq	r6, sl, r3, lsl #28
 740:	06010402 	streq	r0, [r1], -r2, lsl #8
 744:	14030666 	strne	r0, [r3], #-1638	; 0x666
 748:	32210882 	eorcc	r0, r1, #8519680	; 0x820000
 74c:	679f4cf3 	undefined instruction 0x679f4cf3
 750:	004c6767 	subeq	r6, ip, r7, ror #14
 754:	06010402 	streq	r0, [r1], -r2, lsl #8
 758:	67830666 	strvs	r0, [r3, r6, ror #12]
 75c:	086767d9 	stmdaeq	r7!, {r0, r3, r4, r6, r7, r8, r9, sl, sp, lr}^
 760:	4c67673d 	stclmi	7, cr6, [r7], #-244	; 0xffffff0c
 764:	01040200 	tsteq	r4, r0, lsl #4
 768:	9f066606 	svcls	0x00066606
 76c:	d6780367 	ldrbtle	r0, [r8], -r7, ror #6
 770:	01040200 	tsteq	r4, r0, lsl #4
 774:	03066606 	movweq	r6, #26118	; 0x6606
 778:	9f32820b 	svcls	0x0032820b
 77c:	0402002f 	streq	r0, [r2], #-47	; 0x2f
 780:	cb086501 	blgt	219b8c <PHY_OFFSET-0x6fdee474>
 784:	32bba033 	adcscc	sl, fp, #51	; 0x33
 788:	d7bb32d7 	sbfxle	r3, r7, #5, #28
 78c:	bbbbbb32 	bllt	feeef45c <_CLIENT_END+0x8eeaf45c>
 790:	67836732 	undefined instruction 0x67836732
 794:	bcbb836b 	ldclt	3, cr8, [fp], #428	; 0x1ac
 798:	7eb20383 	cdpvc	3, 11, cr0, cr2, cr3, {4}
 79c:	040200d6 	streq	r0, [r2], #-214	; 0xd6
 7a0:	06660601 	strbteq	r0, [r6], -r1, lsl #12
 7a4:	8201d003 	andhi	sp, r1, #3
 7a8:	06026767 	streq	r6, [r2], -r7, ror #14
 7ac:	23010100 	movwcs	r0, #4352	; 0x1100
 7b0:	02000001 	andeq	r0, r0, #1
 7b4:	00005300 	andeq	r5, r0, r0, lsl #6
 7b8:	fb010200 	blx	40fc2 <PHY_OFFSET-0x6ffc703e>
 7bc:	01000d0e 	tsteq	r0, lr, lsl #26
 7c0:	00010101 	andeq	r0, r1, r1, lsl #2
 7c4:	00010000 	andeq	r0, r1, r0
 7c8:	6d2f0100 	stfvss	f0, [pc]
 7cc:	61696465 	cmnvs	r9, r5, ror #8
 7d0:	6c2f442f 	cfstrsvs	mvf4, [pc], #-188	; 0xffffff44
 7d4:	78756e69 	ldmdavc	r5!, {r0, r3, r5, r6, r9, sl, fp, sp, lr}^
 7d8:	6168732d 	cmnvs	r8, sp, lsr #6
 7dc:	702f6572 	eorvc	r6, pc, r2, ror r5
 7e0:	656a6f72 	strbvs	r6, [sl, #-3954]!	; 0xf72
 7e4:	2f737463 	svccs	0x00737463
 7e8:	73757274 	cmnvc	r5, #1073741831	; 0x40000007
 7ec:	6e6f7a74 	mcrvs	10, 3, r7, cr15, cr4, {3}
 7f0:	6c632f65 	stclvs	15, cr2, [r3], #-404	; 0xfffffe6c
 7f4:	746e6569 	strbtvc	r6, [lr], #-1385	; 0x569
 7f8:	6372732f 	cmnvs	r2, #-1140850688	; 0xbc000000
 7fc:	62696c2f 	rsbvs	r6, r9, #12032	; 0x2f00
 800:	69640000 	stmdbvs	r4!, {}^
 804:	00632e76 	rsbeq	r2, r3, r6, ror lr
 808:	00000001 	andeq	r0, r0, r1
 80c:	20020500 	andcs	r0, r2, r0, lsl #10
 810:	03700098 	cmneq	r0, #152	; 0x98
 814:	00830139 	addeq	r0, r3, r9, lsr r1
 818:	06010402 	streq	r0, [r1], -r2, lsl #8
 81c:	04020066 	streq	r0, [r2], #-102	; 0x66
 820:	0200f202 	andeq	pc, r0, #536870912	; 0x20000000
 824:	2f060304 	svccs	0x00060304
 828:	84820b03 	strhi	r0, [r2], #2819	; 0xb03
 82c:	034ea068 	movteq	sl, #57448	; 0xe068
 830:	02006678 	andeq	r6, r0, #125829120	; 0x7800000
 834:	66060104 	strvs	r0, [r6], -r4, lsl #2
 838:	660d0306 	strvs	r0, [sp], -r6, lsl #6
 83c:	8232032f 	eorshi	r0, r2, #-1140850688	; 0xbc000000
 840:	844e689f 	strbhi	r6, [lr], #-2207	; 0x89f
 844:	9fbca04e 	svcls	0x00bca04e
 848:	bb660d03 	bllt	1983c5c <PHY_OFFSET-0x6e6843a4>
 84c:	31844d84 	orrcc	r4, r4, r4, lsl #27
 850:	6784676b 	strvs	r6, [r4, fp, ror #14]
 854:	04020030 	streq	r0, [r2], #-48	; 0x30
 858:	66720301 	ldrbtvs	r0, [r2], -r1, lsl #6
 85c:	2e0c03a3 	cdpcs	3, 0, cr0, cr12, cr3, {5}
 860:	19035908 	stmdbne	r3, {r3, r8, fp, ip, lr}
 864:	0200a166 	andeq	sl, r0, #-2147483623	; 0x80000019
 868:	32a00104 	adccc	r0, r0, #1
 86c:	4b67e608 	blmi	19fa094 <PHY_OFFSET-0x6e60df6c>
 870:	2402bda2 	strcs	fp, [r2], #-3490	; 0xda2
 874:	a1ad0813 	undefined instruction 0xa1ad0813
 878:	ad082108 	stfges	f2, [r8, #-32]	; 0xffffffe0
 87c:	660d0383 	strvs	r0, [sp], -r3, lsl #7
 880:	4de6089f 	stclmi	8, cr0, [r6, #636]!	; 0x27c
 884:	83bf31a0 	undefined instruction 0x83bf31a0
 888:	3083e608 	addcc	lr, r3, r8, lsl #12
 88c:	01040200 	tsteq	r4, r0, lsl #4
 890:	08827203 	stmeq	r2, {r0, r1, r9, ip, sp, lr}
 894:	2e0c03e9 	cdpcs	3, 0, cr0, cr12, cr9, {7}
 898:	0d03c908 	stceq	9, cr12, [r3, #-32]	; 0xffffffe0
 89c:	4c83bc82 	stcmi	12, cr11, [r3], {130}	; 0x82
 8a0:	69304b4b 	ldmdbvs	r0!, {r0, r1, r3, r6, r8, r9, fp, lr}
 8a4:	30678367 	rsbcc	r8, r7, r7, ror #6
 8a8:	01040200 	tsteq	r4, r0, lsl #4
 8ac:	a1667603 	cmnge	r6, r3, lsl #12
 8b0:	082e0903 	stmdaeq	lr!, {r0, r1, r8, fp}
 8b4:	660b0359 	undefined instruction 0x660b0359
 8b8:	0402009f 	streq	r0, [r2], #-159	; 0x9f
 8bc:	83316701 	teqhi	r1, #262144	; 0x40000
 8c0:	9fa09f4c 	svcls	0x00a09f4c
 8c4:	0200a069 	andeq	sl, r0, #105	; 0x69
 8c8:	31670104 	cmncc	r7, r4, lsl #2
 8cc:	a09f4c83 	addsge	r4, pc, r3, lsl #25
 8d0:	000602a1 	andeq	r0, r6, r1, lsr #5
 8d4:	Address 0x000008d4 is out of bounds.


Disassembly of section .debug_info:

00000000 <.debug_info>:
       0:	00000093 	muleq	r0, r3, r0
       4:	00000002 	andeq	r0, r0, r2
       8:	01040000 	tsteq	r4, r0
       c:	00000000 	andeq	r0, r0, r0
      10:	70008000 	andvc	r8, r0, r0
      14:	70008054 	andvc	r8, r0, r4, asr r0
      18:	64656d2f 	strbtvs	r6, [r5], #-3375	; 0xd2f
      1c:	442f6169 	strtmi	r6, [pc], #361	; 24 <PHY_OFFSET-0x70007fdc>
      20:	6e696c2f 	cdpvs	12, 6, cr6, cr9, cr15, {1}
      24:	732d7875 	teqvc	sp, #7667712	; 0x750000
      28:	65726168 	ldrbvs	r6, [r2, #-360]!	; 0x168
      2c:	6f72702f 	svcvs	0x0072702f
      30:	7463656a 	strbtvc	r6, [r3], #-1386	; 0x56a
      34:	72742f73 	rsbsvc	r2, r4, #460	; 0x1cc
      38:	7a747375 	bvc	1d1ce14 <PHY_OFFSET-0x6e2eb1ec>
      3c:	2f656e6f 	svccs	0x00656e6f
      40:	65696c63 	strbvs	r6, [r9, #-3171]!	; 0xc63
      44:	732f746e 	teqvc	pc, #1845493760	; 0x6e000000
      48:	612f6372 	teqvs	pc, r2, ror r3
      4c:	2f686372 	svccs	0x00686372
      50:	72617473 	rsbvc	r7, r1, #1929379840	; 0x73000000
      54:	00532e74 	subseq	r2, r3, r4, ror lr
      58:	64656d2f 	strbtvs	r6, [r5], #-3375	; 0xd2f
      5c:	442f6169 	strtmi	r6, [pc], #361	; 64 <PHY_OFFSET-0x70007f9c>
      60:	6e696c2f 	cdpvs	12, 6, cr6, cr9, cr15, {1}
      64:	732d7875 	teqvc	sp, #7667712	; 0x750000
      68:	65726168 	ldrbvs	r6, [r2, #-360]!	; 0x168
      6c:	6f72702f 	svcvs	0x0072702f
      70:	7463656a 	strbtvc	r6, [r3], #-1386	; 0x56a
      74:	72742f73 	rsbsvc	r2, r4, #460	; 0x1cc
      78:	7a747375 	bvc	1d1ce54 <PHY_OFFSET-0x6e2eb1ac>
      7c:	2f656e6f 	svccs	0x00656e6f
      80:	65696c63 	strbvs	r6, [r9, #-3171]!	; 0xc63
      84:	4700746e 	strmi	r7, [r0, -lr, ror #8]
      88:	4120554e 	teqmi	r0, lr, asr #10
      8c:	2e322053 	mrccs	0, 1, r2, cr2, cr3, {2}
      90:	312e3032 	teqcc	lr, r2, lsr r0
      94:	ab800100 	blge	fe00049c <_CLIENT_END+0x8dfc049c>
      98:	02000003 	andeq	r0, r0, #3
      9c:	00001400 	andeq	r1, r0, r0, lsl #8
      a0:	38010400 	stmdacc	r1, {sl}
      a4:	01000000 	tsteq	r0, r0
      a8:	000000d0 	ldrdeq	r0, [r0], -r0
      ac:	70008060 	andvc	r8, r0, r0, rrx
      b0:	70008410 	andvc	r8, r0, r0, lsl r4
      b4:	0000007b 	andeq	r0, r0, fp, ror r0
      b8:	0002a802 	andeq	sl, r2, r2, lsl #16
      bc:	2c0c0200 	sfmcs	f0, 4, [ip], {0}	; (stccs 2, cr0, [ip], {0})
      c0:	03000000 	movweq	r0, #0
      c4:	00c30704 	sbceq	r0, r3, r4, lsl #14
      c8:	a9020000 	stmdbge	r2, {}
      cc:	02000002 	andeq	r0, r0, #2
      d0:	00003e0d 	andeq	r3, r0, sp, lsl #28
      d4:	05040400 	streq	r0, [r4, #-1024]	; 0x400
      d8:	00746e69 	rsbseq	r6, r4, r9, ror #28
      dc:	00029302 	andeq	r9, r2, r2, lsl #6
      e0:	500e0200 	andpl	r0, lr, r0, lsl #4
      e4:	03000000 	movweq	r0, #0
      e8:	01100702 	tsteq	r0, r2, lsl #14
      ec:	02030000 	andeq	r0, r3, #0
      f0:	00027d05 	andeq	r7, r2, r5, lsl #26
      f4:	01e80200 	mvneq	r0, r0, lsl #4
      f8:	10020000 	andne	r0, r2, r0
      fc:	00000069 	andeq	r0, r0, r9, rrx
     100:	73080103 	movwvc	r0, #33027	; 0x8103
     104:	03000001 	movweq	r0, #1
     108:	017c0801 	cmneq	ip, r1, lsl #16
     10c:	08030000 	stmdaeq	r3, {}
     110:	0000b907 	andeq	fp, r0, r7, lsl #18
     114:	05080300 	streq	r0, [r8, #-768]	; 0x300
     118:	00000254 	andeq	r0, r0, r4, asr r2
     11c:	00012305 	andeq	r2, r1, r5, lsl #6
     120:	25020400 	strcs	r0, [r2, #-1024]	; 0x400
     124:	000000bc 	strheq	r0, [r0], -ip
     128:	0001bf06 	andeq	fp, r1, r6, lsl #30
     12c:	43060000 	movwmi	r0, #24576	; 0x6000
     130:	01000001 	tsteq	r0, r1
     134:	00004e06 	andeq	r4, r0, r6, lsl #28
     138:	1d060200 	sfmne	f0, 4, [r6]	; (stcne 2, cr0, [r6])
     13c:	03000000 	movweq	r0, #0
     140:	00021c06 	andeq	r1, r2, r6, lsl #24
     144:	00060500 	andeq	r0, r6, r0, lsl #10
     148:	06000000 	streq	r0, [r0], -r0
     14c:	0002c206 	andeq	ip, r2, r6, lsl #4
     150:	07000700 	streq	r0, [r0, -r0, lsl #14]
     154:	fd2f0210 	stc2	2, cr0, [pc, #-64]!	; 0xffffffc0
     158:	08000000 	stmdaeq	r0, {}
     15c:	00000198 	muleq	r0, r8, r1
     160:	00213102 	eoreq	r3, r1, r2, lsl #2
     164:	23020000 	movwcs	r0, #8192	; 0x2000
     168:	01b70800 	undefined instruction 0x01b70800
     16c:	32020000 	andcc	r0, r2, #0
     170:	00000045 	andeq	r0, r0, r5, asr #32
     174:	08042302 	stmdaeq	r4, {r1, r8, r9, sp}
     178:	00000132 	andeq	r0, r0, r2, lsr r1
     17c:	00453302 	subeq	r3, r5, r2, lsl #6
     180:	23020000 	movwcs	r0, #8192	; 0x2000
     184:	02620806 	rsbeq	r0, r2, #393216	; 0x60000
     188:	34020000 	strcc	r0, [r2]
     18c:	000000fd 	strdeq	r0, [r0], -sp
     190:	00082302 	andeq	r2, r8, r2, lsl #6
     194:	00005e09 	andeq	r5, r0, r9, lsl #28
     198:	00010d00 	andeq	r0, r1, r0, lsl #26
     19c:	002c0a00 	eoreq	r0, ip, r0, lsl #20
     1a0:	00070000 	andeq	r0, r7, r0
     1a4:	00016a02 	andeq	r6, r1, r2, lsl #20
     1a8:	bc350200 	lfmlt	f0, 4, [r5]	; (ldclt 2, cr0, [r5])
     1ac:	07000000 	streq	r0, [r0, -r0]
     1b0:	3d420208 	sfmcc	f0, 2, [r2, #-32]	; (stclcc 2, cr0, [r2, #-32])	; 0xffffffe0
     1b4:	08000001 	stmdaeq	r0, {r0}
     1b8:	00000844 	andeq	r0, r0, r4, asr #16
     1bc:	013d4402 	teqeq	sp, r2, lsl #8
     1c0:	23020000 	movwcs	r0, #8192	; 0x2000
     1c4:	02bd0800 	adcseq	r0, sp, #0
     1c8:	45020000 	strmi	r0, [r2]
     1cc:	00000021 	andeq	r0, r0, r1, lsr #32
     1d0:	00042302 	andeq	r2, r4, r2, lsl #6
     1d4:	0807040b 	stmdaeq	r7, {r0, r1, r3, sl}
     1d8:	01604702 	cmneq	r0, r2, lsl #14
     1dc:	610c0000 	tstvs	ip, r0
     1e0:	21490200 	cmpcs	r9, r0, lsl #4
     1e4:	02000000 	andeq	r0, r0, #0
     1e8:	620c0023 	andvs	r0, ip, #35	; 0x23
     1ec:	214a0200 	cmpcs	sl, r0, lsl #4
     1f0:	02000000 	andeq	r0, r0, #0
     1f4:	0d000423 	cfstrseq	mvf0, [r0, #-140]	; 0xffffff74
     1f8:	7f400208 	svcvc	0x00400208
     1fc:	0e000001 	cdpeq	0, 0, cr0, cr0, cr1, {0}
     200:	000002de 	ldrdeq	r0, [r0], -lr
     204:	01184602 	tsteq	r8, r2, lsl #12
     208:	900e0000 	andls	r0, lr, r0
     20c:	02000007 	andeq	r0, r0, #7
     210:	00013f4b 	andeq	r3, r1, fp, asr #30
     214:	44020000 	strmi	r0, [r2]
     218:	02000000 	andeq	r0, r0, #0
     21c:	0001604c 	andeq	r6, r1, ip, asr #32
     220:	00a80f00 	adceq	r0, r8, r0, lsl #30
     224:	02140000 	andseq	r0, r4, #0
     228:	0001b34e 	andeq	fp, r1, lr, asr #6
     22c:	02b10800 	adcseq	r0, r1, #0
     230:	4f020000 	svcmi	0x00020000
     234:	0000010d 	andeq	r0, r0, sp, lsl #2
     238:	08002302 	stmdaeq	r0, {r1, r8, r9, sp}
     23c:	00000272 	andeq	r0, r0, r2, ror r2
     240:	00335002 	eorseq	r5, r3, r2
     244:	23020000 	movwcs	r0, #8192	; 0x2000
     248:	a9020010 	stmdbge	r2, {r4}
     24c:	02000000 	andeq	r0, r0, #0
     250:	00018a51 	andeq	r8, r1, r1, asr sl
     254:	017f0900 	cmneq	pc, r0, lsl #18
     258:	01ce0000 	biceq	r0, lr, r0
     25c:	2c0a0000 	stccs	0, cr0, [sl], {0}
     260:	03000000 	movweq	r0, #0
     264:	02080500 	andeq	r0, r8, #0
     268:	02040000 	andeq	r0, r4, #0
     26c:	0001ef70 	andeq	lr, r1, r0, ror pc
     270:	01d30600 	bicseq	r0, r3, r0, lsl #12
     274:	80800000 	addhi	r0, r0, r0
     278:	06088080 	streq	r8, [r8], -r0, lsl #1
     27c:	00000093 	muleq	r0, r3, r0
     280:	80808081 	addhi	r8, r0, r1, lsl #1
     284:	01100008 	tsteq	r0, r8
     288:	000001a0 	andeq	r0, r0, r0, lsr #3
     28c:	80601801 	rsbhi	r1, r0, r1, lsl #16
     290:	80f47000 	rscshi	r7, r4, r0
     294:	00007000 	andeq	r7, r0, r0
     298:	023a0000 	eorseq	r0, sl, #0
     29c:	f0110000 	undefined instruction 0xf0110000
     2a0:	01000001 	tsteq	r0, r1
     2a4:	00003e18 	andeq	r3, r0, r8, lsl lr
     2a8:	64910200 	ldrvs	r0, [r1], #512	; 0x200
     2ac:	01006912 	tsteq	r0, r2, lsl r9
     2b0:	00023a1a 	andeq	r3, r2, sl, lsl sl
     2b4:	74910200 	ldrvc	r0, [r1], #512	; 0x200
     2b8:	01006a12 	tsteq	r0, r2, lsl sl
     2bc:	00023a1a 	andeq	r3, r2, sl, lsl sl
     2c0:	70910200 	addsvc	r0, r1, r0, lsl #4
     2c4:	01006b12 	tsteq	r0, r2, lsl fp
     2c8:	00023a1a 	andeq	r3, r2, sl, lsl sl
     2cc:	6c910200 	lfmvs	f0, 4, [r1], {0}	; (ldcvs 2, cr0, [r1], {0})
     2d0:	00211300 	eoreq	r1, r1, r0, lsl #6
     2d4:	01140000 	tsteq	r4, r0
     2d8:	0000007b 	andeq	r0, r0, fp, ror r0
     2dc:	f4012301 	vst2.8	{d2-d5}, [r1], r1
     2e0:	b0700080 	rsbslt	r0, r0, r0, lsl #1
     2e4:	2c700081 	ldclcs	0, cr0, [r0], #-516	; 0xfffffdfc
     2e8:	76000000 	strvc	r0, [r0], -r0
     2ec:	11000002 	tstne	r0, r2
     2f0:	00000076 	andeq	r0, r0, r6, ror r0
     2f4:	02762301 	rsbseq	r2, r6, #67108864	; 0x4000000
     2f8:	91020000 	tstls	r2, r0
     2fc:	8501155c 	strhi	r1, [r1, #-1372]	; 0x55c
     300:	01000000 	tsteq	r0, r0
     304:	00003e25 	andeq	r3, r0, r5, lsr #28
     308:	00160100 	andseq	r0, r6, r0, lsl #2
     30c:	0d041700 	stceq	7, cr1, [r4]
     310:	18000001 	stmdane	r0, {r0}
     314:	0001a601 	andeq	sl, r1, r1, lsl #12
     318:	3e340100 	rsfccs	f0, f4, f0
     31c:	b0000000 	andlt	r0, r0, r0
     320:	10700081 	rsbsne	r0, r0, r1, lsl #1
     324:	58700084 	ldmdapl	r0!, {r2, r7}^
     328:	0c000000 	stceq	0, cr0, [r0], {0}
     32c:	12000003 	andne	r0, r0, #3
     330:	00746572 	rsbseq	r6, r4, r2, ror r5
     334:	003e3601 	eorseq	r3, lr, r1, lsl #12
     338:	91020000 	tstls	r2, r0
     33c:	01811974 	orreq	r1, r1, r4, ror r9
     340:	37010000 	strcc	r0, [r1, -r0]
     344:	000001be 	undefined instruction 0x000001be
     348:	194c9102 	stmdbne	ip, {r1, r8, ip, pc}^
     34c:	00000188 	andeq	r0, r0, r8, lsl #3
     350:	01b33801 	undefined instruction 0x01b33801
     354:	91030000 	tstls	r3, r0
     358:	73127fb8 	tstvc	r2, #736	; 0x2e0
     35c:	01007274 	tsteq	r0, r4, ror r2
     360:	00030c39 	andeq	r0, r3, r9, lsr ip
     364:	70910200 	addsvc	r0, r1, r0, lsl #4
     368:	0244011a 	subeq	r0, r4, #-2147483642	; 0x80000006
     36c:	3c010000 	stccc	0, cr0, [r1], {0}
     370:	0000003e 	andeq	r0, r0, lr, lsr r0
     374:	0002e401 	andeq	lr, r2, r1, lsl #8
     378:	19001600 	stmdbne	r0, {r9, sl, ip}
     37c:	000001fd 	strdeq	r0, [r0], -sp
     380:	00214101 	eoreq	r4, r1, r1, lsl #2
     384:	91020000 	tstls	r2, r0
     388:	81e81b6c 	mvnhi	r1, ip, ror #22
     38c:	840c7000 	strhi	r7, [ip]
     390:	01157000 	tsteq	r5, r0
     394:	00000085 	andeq	r0, r0, r5, lsl #1
     398:	003e2501 	eorseq	r2, lr, r1, lsl #10
     39c:	16010000 	strne	r0, [r1], -r0
     3a0:	17000000 	strne	r0, [r0, -r0]
     3a4:	00007004 	andeq	r7, r0, r4
     3a8:	006a1c00 	rsbeq	r1, sl, r0, lsl #24
     3ac:	0d010000 	stceq	0, cr0, [r1]
     3b0:	0000010d 	andeq	r0, r0, sp, lsl #2
     3b4:	70090101 	andvc	r0, r9, r1, lsl #2
     3b8:	30000000 	andcc	r0, r0, r0
     3bc:	1d000003 	stcne	0, cr0, [r0, #-12]
     3c0:	0000002c 	andeq	r0, r0, ip, lsr #32
     3c4:	1e000fff 	mcrne	15, 0, r0, cr0, cr15, {7}
     3c8:	00000238 	andeq	r0, r0, r8, lsr r2
     3cc:	031f0301 	tsteq	pc, #67108864	; 0x4000000
     3d0:	05010000 	streq	r0, [r1]
     3d4:	00f26c03 	rscseq	r6, r2, r3, lsl #24
     3d8:	029c1e70 	addseq	r1, ip, #1792	; 0x700
     3dc:	04010000 	streq	r0, [r1]
     3e0:	0000031f 	andeq	r0, r0, pc, lsl r3
     3e4:	6c030501 	cfstr32vs	mvfx0, [r3], {1}
     3e8:	1e7000c2 	cdpne	0, 7, cr0, cr0, cr2, {6}
     3ec:	000001ab 	andeq	r0, r0, fp, lsr #3
     3f0:	031f0501 	tsteq	pc, #4194304	; 0x400000
     3f4:	05010000 	streq	r0, [r1]
     3f8:	00e26c03 	rsceq	r6, r2, r3, lsl #24
     3fc:	02871e70 	addeq	r1, r7, #1792	; 0x700
     400:	06010000 	streq	r0, [r1], -r0
     404:	0000031f 	andeq	r0, r0, pc, lsl r3
     408:	6c030501 	cfstr32vs	mvfx0, [r3], {1}
     40c:	1e7000b2 	mrcne	0, 3, r0, cr0, cr2, {5}
     410:	0000015e 	andeq	r0, r0, lr, asr r1
     414:	031f0701 	tsteq	pc, #262144	; 0x40000
     418:	05010000 	streq	r0, [r1]
     41c:	00a26c03 	adceq	r6, r2, r3, lsl #24
     420:	02e51e70 	rsceq	r1, r5, #1792	; 0x700
     424:	08010000 	stmdaeq	r1, {}
     428:	0000031f 	andeq	r0, r0, pc, lsl r3
     42c:	6c030501 	cfstr32vs	mvfx0, [r3], {1}
     430:	1e7000d2 	mrcne	0, 3, r0, cr0, cr2, {6}
     434:	0000006a 	andeq	r0, r0, sl, rrx
     438:	010d0d01 	tsteq	sp, r1, lsl #26
     43c:	05010000 	streq	r0, [r1]
     440:	00a14c03 	adceq	r4, r1, r3, lsl #24
     444:	01940070 	orrseq	r0, r4, r0, ror r0
     448:	00020000 	andeq	r0, r2, r0
     44c:	000001ab 	andeq	r0, r0, fp, lsr #3
     450:	00380104 	eorseq	r0, r8, r4, lsl #2
     454:	1b010000 	blne	4045c <PHY_OFFSET-0x6ffc7ba4>
     458:	10000003 	andne	r0, r0, r3
     45c:	44700084 	ldrbtmi	r0, [r0], #-132	; 0x84
     460:	bb700086 	bllt	1c00680 <PHY_OFFSET-0x6e407980>
     464:	02000001 	andeq	r0, r0, #1
     468:	00030401 	andeq	r0, r3, r1, lsl #8
     46c:	01630100 	cmneq	r3, r0, lsl #2
     470:	00000069 	andeq	r0, r0, r9, rrx
     474:	70008410 	andvc	r8, r0, r0, lsl r4
     478:	70008450 	andvc	r8, r0, r0, asr r4
     47c:	00000084 	andeq	r0, r0, r4, lsl #1
     480:	00000069 	andeq	r0, r0, r9, rrx
     484:	00038303 	andeq	r8, r3, r3, lsl #6
     488:	69630100 	stmdbvs	r3!, {r8}^
     48c:	02000000 	andeq	r0, r0, #0
     490:	0e036c91 	mcreq	12, 0, r6, cr3, cr1, {4}
     494:	01000003 	tsteq	r0, r3
     498:	00006963 	andeq	r6, r0, r3, ror #18
     49c:	68910200 	ldmvs	r1, {r9}
     4a0:	0002fc04 	andeq	pc, r2, r4, lsl #24
     4a4:	70650100 	rsbvc	r0, r5, r0, lsl #2
     4a8:	02000000 	andeq	r0, r0, #0
     4ac:	05007491 	streq	r7, [r0, #-1169]	; 0x491
     4b0:	00c30704 	sbceq	r0, r3, r4, lsl #14
     4b4:	04060000 	streq	r0, [r6]
     4b8:	00000076 	andeq	r0, r0, r6, ror r0
     4bc:	00006907 	andeq	r6, r0, r7, lsl #18
     4c0:	9f010800 	svcls	0x00010800
     4c4:	01000003 	tsteq	r0, r3
     4c8:	84500169 	ldrbhi	r0, [r0], #-361	; 0x169
     4cc:	84947000 	ldrhi	r7, [r4]
     4d0:	00b07000 	adcseq	r7, r0, r0
     4d4:	00cd0000 	sbceq	r0, sp, r0
     4d8:	83030000 	movwhi	r0, #12288	; 0x3000
     4dc:	01000003 	tsteq	r0, r3
     4e0:	00006969 	andeq	r6, r0, r9, ror #18
     4e4:	6c910200 	lfmvs	f0, 4, [r1], {0}	; (ldcvs 2, cr0, [r1], {0})
     4e8:	00079003 	andeq	r9, r7, r3
     4ec:	69690100 	stmdbvs	r9!, {r8}^
     4f0:	02000000 	andeq	r0, r0, #0
     4f4:	0e036891 	mcreq	8, 0, r6, cr3, cr1, {4}
     4f8:	01000003 	tsteq	r0, r3
     4fc:	00006969 	andeq	r6, r0, r9, ror #18
     500:	64910200 	ldrvs	r0, [r1], #512	; 0x200
     504:	0002fc04 	andeq	pc, r2, r4, lsl #24
     508:	706b0100 	rsbvc	r0, fp, r0, lsl #2
     50c:	02000000 	andeq	r0, r0, #0
     510:	09007491 	stmdbeq	r0, {r0, r4, r7, sl, ip, sp, lr}
     514:	0000038c 	andeq	r0, r0, ip, lsl #7
     518:	69016f01 	stmdbvs	r1, {r0, r8, r9, sl, fp, sp, lr}
     51c:	94000000 	strls	r0, [r0]
     520:	08700084 	ldmdaeq	r0!, {r2, r7}^
     524:	dc700085 	ldclle	0, cr0, [r0], #-532	; 0xfffffdec
     528:	f7000000 	undefined instruction 0xf7000000
     52c:	0a000000 	beq	534 <PHY_OFFSET-0x70007acc>
     530:	01006469 	tsteq	r0, r9, ror #8
     534:	0000696f 	andeq	r6, r0, pc, ror #18
     538:	74910200 	ldrvc	r0, [r1], #512	; 0x200
     53c:	5b010800 	blpl	42544 <PHY_OFFSET-0x6ffc5abc>
     540:	01000003 	tsteq	r0, r3
     544:	85080180 	strhi	r0, [r8, #-384]	; 0x180
     548:	85587000 	ldrbhi	r7, [r8]
     54c:	01087000 	tsteq	r8, r0
     550:	011d0000 	tsteq	sp, r0
     554:	630a0000 	movwvs	r0, #40960	; 0xa000
     558:	1d800100 	stfnes	f0, [r0]
     55c:	02000001 	andeq	r0, r0, #1
     560:	05007791 	streq	r7, [r0, #-1937]	; 0x791
     564:	017c0801 	cmneq	ip, r1, lsl #16
     568:	01080000 	tsteq	r8, r0
     56c:	0000036b 	andeq	r0, r0, fp, ror #6
     570:	58018901 	stmdapl	r1, {r0, r8, fp, pc}
     574:	b8700085 	ldmdalt	r0!, {r0, r2, r7}^
     578:	34700085 	ldrbtcc	r0, [r0], #-133	; 0x85
     57c:	58000001 	stmdapl	r0, {r0}
     580:	0a000001 	beq	58c <PHY_OFFSET-0x70007a74>
     584:	89010063 	stmdbhi	r1, {r0, r1, r5, r6}
     588:	00000158 	andeq	r0, r0, r8, asr r1
     58c:	046c9102 	strbteq	r9, [ip], #-258	; 0x102
     590:	00000315 	andeq	r0, r0, r5, lsl r3
     594:	015e8b01 	cmpeq	lr, r1, lsl #22
     598:	91020000 	tstls	r2, r0
     59c:	04060074 	streq	r0, [r6], #-116	; 0x74
     5a0:	0000011d 	andeq	r0, r0, sp, lsl r1
     5a4:	6905040b 	stmdbvs	r5, {r0, r1, r3, sl}
     5a8:	0c00746e 	cfstrseq	mvf7, [r0], {110}	; 0x6e
     5ac:	00024401 	andeq	r4, r2, r1, lsl #8
     5b0:	01940100 	orrseq	r0, r4, r0, lsl #2
     5b4:	700085b8 	undefined instruction 0x700085b8
     5b8:	70008644 	andvc	r8, r0, r4, asr #12
     5bc:	00000160 	andeq	r0, r0, r0, ror #2
     5c0:	00037b03 	andeq	r7, r3, r3, lsl #22
     5c4:	69940100 	ldmibvs	r4, {r8}
     5c8:	02000000 	andeq	r0, r0, #0
     5cc:	f3046c91 	undefined instruction 0xf3046c91
     5d0:	01000002 	tsteq	r0, r2
     5d4:	00015e96 	muleq	r1, r6, lr
     5d8:	74910200 	ldrvc	r0, [r1], #512	; 0x200
     5dc:	039c0000 	orrseq	r0, ip, #0
     5e0:	00020000 	andeq	r0, r2, r0
     5e4:	0000026c 	andeq	r0, r0, ip, ror #4
     5e8:	00380104 	eorseq	r0, r8, r4, lsl #2
     5ec:	6b010000 	blvs	405f4 <PHY_OFFSET-0x6ffc7a0c>
     5f0:	44000004 	strmi	r0, [r0], #-4
     5f4:	1c700086 	ldclne	0, cr0, [r0], #-536	; 0xfffffde8
     5f8:	5b70008b 	blpl	1c0082c <PHY_OFFSET-0x6e4077d4>
     5fc:	02000002 	andeq	r0, r0, #2
     600:	000002a8 	andeq	r0, r0, r8, lsr #5
     604:	002c0c02 	eoreq	r0, ip, r2, lsl #24
     608:	04030000 	streq	r0, [r3]
     60c:	0000c307 	andeq	ip, r0, r7, lsl #6
     610:	05040400 	streq	r0, [r4, #-1024]	; 0x400
     614:	00746e69 	rsbseq	r6, r4, r9, ror #28
     618:	10070203 	andne	r0, r7, r3, lsl #4
     61c:	03000001 	movweq	r0, #1
     620:	027d0502 	rsbseq	r0, sp, #8388608	; 0x800000
     624:	e8020000 	stmda	r2, {}
     628:	02000001 	andeq	r0, r0, #1
     62c:	00005310 	andeq	r5, r0, r0, lsl r3
     630:	08010300 	stmdaeq	r1, {r8, r9}
     634:	00000173 	andeq	r0, r0, r3, ror r1
     638:	7c080103 	stfvcs	f0, [r8], {3}
     63c:	02000001 	andeq	r0, r0, #1
     640:	000003e1 	andeq	r0, r0, r1, ror #7
     644:	002c1202 	eoreq	r1, ip, r2, lsl #4
     648:	08030000 	stmdaeq	r3, {}
     64c:	0000b907 	andeq	fp, r0, r7, lsl #18
     650:	05080300 	streq	r0, [r8, #-768]	; 0x300
     654:	00000254 	andeq	r0, r0, r4, asr r2
     658:	0003da02 	andeq	sp, r3, r2, lsl #20
     65c:	21150200 	tstcs	r5, r0, lsl #4
     660:	05000000 	streq	r0, [r0]
     664:	aa010604 	bge	41e7c <PHY_OFFSET-0x6ffc6184>
     668:	01000003 	tsteq	r0, r3
     66c:	8644010a 	strbhi	r0, [r4], -sl, lsl #2
     670:	86a87000 	strthi	r7, [r8], r0
     674:	018c7000 	orreq	r7, ip, r0
     678:	00b60000 	adcseq	r0, r6, r0
     67c:	69070000 	stmdbvs	r7, {}
     680:	330c0100 	movwcc	r0, #49408	; 0xc100
     684:	02000000 	andeq	r0, r0, #0
     688:	6a087491 	bvs	21d8d4 <PHY_OFFSET-0x6fdea72c>
     68c:	330c0100 	movwcc	r0, #49408	; 0xc100
     690:	00000000 	andeq	r0, r0, r0
     694:	03cf0109 	biceq	r0, pc, #1073741826	; 0x40000002
     698:	13010000 	movwne	r0, #4096	; 0x1000
     69c:	00008501 	andeq	r8, r0, r1, lsl #10
     6a0:	0086a800 	addeq	sl, r6, r0, lsl #16
     6a4:	00874870 	addeq	r4, r7, r0, ror r8
     6a8:	0001b870 	andeq	fp, r1, r0, ror r8
     6ac:	0000ee00 	andeq	lr, r0, r0, lsl #28
     6b0:	02bd0a00 	adcseq	r0, sp, #0
     6b4:	13010000 	movwne	r0, #4096	; 0x1000
     6b8:	0000007a 	andeq	r0, r0, sl, ror r0
     6bc:	076c9102 	strbeq	r9, [ip, -r2, lsl #2]!
     6c0:	15010069 	strne	r0, [r1, #-105]	; 0x69
     6c4:	00000033 	andeq	r0, r0, r3, lsr r0
     6c8:	00749102 	rsbseq	r9, r4, r2, lsl #2
     6cc:	042f0109 	strteq	r0, [pc], #265	; 6d4 <PHY_OFFSET-0x7000792c>
     6d0:	23010000 	movwcs	r0, #4096	; 0x1000
     6d4:	00008501 	andeq	r8, r0, r1, lsl #10
     6d8:	00874800 	addeq	r4, r7, r0, lsl #16
     6dc:	0087e870 	addeq	lr, r7, r0, ror r8
     6e0:	0001e470 	andeq	lr, r1, r0, ror r4
     6e4:	00012600 	andeq	r2, r1, r0, lsl #12
     6e8:	02bd0a00 	adcseq	r0, sp, #0
     6ec:	23010000 	movwcs	r0, #4096	; 0x1000
     6f0:	0000007a 	andeq	r0, r0, sl, ror r0
     6f4:	076c9102 	strbeq	r9, [ip, -r2, lsl #2]!
     6f8:	25010069 	strcs	r0, [r1, #-105]	; 0x69
     6fc:	00000033 	andeq	r0, r0, r3, lsr r0
     700:	00749102 	rsbseq	r9, r4, r2, lsl #2
     704:	04ae0106 	strteq	r0, [lr], #262	; 0x106
     708:	32010000 	andcc	r0, r1, #0
     70c:	0087e801 	addeq	lr, r7, r1, lsl #16
     710:	00886070 	addeq	r6, r8, r0, ror r0
     714:	00021070 	andeq	r1, r2, r0, ror r0
     718:	00015a00 	andeq	r5, r1, r0, lsl #20
     71c:	039a0a00 	orrseq	r0, sl, #0
     720:	32010000 	andcc	r0, r1, #0
     724:	00000085 	andeq	r0, r0, r5, lsl #1
     728:	076c9102 	strbeq	r9, [ip, -r2, lsl #2]!
     72c:	34010069 	strcc	r0, [r1], #-105	; 0x69
     730:	00000033 	andeq	r0, r0, r3, lsr r0
     734:	00749102 	rsbseq	r9, r4, r2, lsl #2
     738:	03f40106 	mvnseq	r0, #-2147483647	; 0x80000001
     73c:	3d010000 	stccc	0, cr0, [r1]
     740:	00886001 	addeq	r6, r8, r1
     744:	0088d870 	addeq	sp, r8, r0, ror r8
     748:	00023c70 	andeq	r3, r2, r0, ror ip
     74c:	00018e00 	andeq	r8, r1, r0, lsl #28
     750:	039a0a00 	orrseq	r0, sl, #0
     754:	3d010000 	stccc	0, cr0, [r1]
     758:	00000085 	andeq	r0, r0, r5, lsl #1
     75c:	076c9102 	strbeq	r9, [ip, -r2, lsl #2]!
     760:	3f010069 	svccc	0x00010069
     764:	00000033 	andeq	r0, r0, r3, lsr r0
     768:	00749102 	rsbseq	r9, r4, r2, lsl #2
     76c:	04630106 	strbteq	r0, [r3], #-262	; 0x106
     770:	49010000 	stmdbmi	r1, {}
     774:	0088d801 	addeq	sp, r8, r1, lsl #16
     778:	00899470 	addeq	r9, r9, r0, ror r4
     77c:	00026870 	andeq	r6, r2, r0, ror r8
     780:	00020700 	andeq	r0, r2, r0, lsl #14
     784:	03ca0a00 	biceq	r0, sl, #0
     788:	49010000 	stmdbmi	r1, {}
     78c:	00000085 	andeq	r0, r0, r5, lsl #1
     790:	0b6c9102 	bleq	1b24ba0 <PHY_OFFSET-0x6e4e3460>
     794:	00637273 	rsbeq	r7, r3, r3, ror r2
     798:	00854901 	addeq	r4, r5, r1, lsl #18
     79c:	91020000 	tstls	r2, r0
     7a0:	02bd0a68 	adcseq	r0, sp, #425984	; 0x68000
     7a4:	49010000 	stmdbmi	r1, {}
     7a8:	00000021 	andeq	r0, r0, r1, lsr #32
     7ac:	0c649102 	stfeqp	f1, [r4], #-8
     7b0:	0000043c 	andeq	r0, r0, ip, lsr r4
     7b4:	02074b01 	andeq	r4, r7, #1024	; 0x400
     7b8:	91020000 	tstls	r2, r0
     7bc:	045c0c74 	ldrbeq	r0, [ip], #-3188	; 0xc74
     7c0:	4c010000 	stcmi	0, cr0, [r1], {0}
     7c4:	00000207 	andeq	r0, r0, r7, lsl #4
     7c8:	0d709102 	ldfeqp	f1, [r0, #-8]!
     7cc:	70008918 	andvc	r8, r0, r8, lsl r9
     7d0:	70008934 	andvc	r8, r0, r4, lsr r9
     7d4:	0085010e 	addeq	r0, r5, lr, lsl #2
     7d8:	4e010000 	cdpmi	0, 0, cr0, cr1, cr0, {0}
     7dc:	00000033 	andeq	r0, r0, r3, lsr r0
     7e0:	00000f01 	andeq	r0, r0, r1, lsl #30
     7e4:	5a041000 	bpl	1047ec <PHY_OFFSET-0x6ff03814>
     7e8:	09000000 	stmdbeq	r0, {}
     7ec:	00044301 	andeq	r4, r4, r1, lsl #6
     7f0:	01590100 	cmpeq	r9, r0, lsl #2
     7f4:	00000021 	andeq	r0, r0, r1, lsr #32
     7f8:	70008994 	mulvc	r0, r4, r9
     7fc:	70008a14 	andvc	r8, r0, r4, lsl sl
     800:	00000294 	muleq	r0, r4, r2
     804:	00000247 	andeq	r0, r0, r7, asr #4
     808:	0003c40a 	andeq	ip, r3, sl, lsl #8
     80c:	07590100 	ldrbeq	r0, [r9, -r0, lsl #2]
     810:	02000002 	andeq	r0, r0, #2
     814:	6c076c91 	stcvs	12, cr6, [r7], {145}	; 0x91
     818:	01006e65 	tsteq	r0, r5, ror #28
     81c:	0000215b 	andeq	r2, r0, fp, asr r1
     820:	74910200 	ldrvc	r0, [r1], #512	; 0x200
     824:	10010900 	andne	r0, r1, r0, lsl #18
     828:	01000004 	tsteq	r0, r4
     82c:	02070166 	andeq	r0, r7, #-2147483623	; 0x80000019
     830:	8a140000 	bhi	500838 <PHY_OFFSET-0x6fb077c8>
     834:	8ab07000 	bhi	fec1c83c <_CLIENT_END+0x8ebdc83c>
     838:	02c07000 	sbceq	r7, r0, #0
     83c:	028f0000 	addeq	r0, pc, #0
     840:	640b0000 	strvs	r0, [fp]
     844:	01007473 	tsteq	r0, r3, ror r4
     848:	00020766 	andeq	r0, r2, r6, ror #14
     84c:	6c910200 	lfmvs	f0, 4, [r1], {0}	; (ldcvs 2, cr0, [r1], {0})
     850:	6372730b 	cmnvs	r2, #738197504	; 0x2c000000
     854:	8f660100 	svchi	0x00660100
     858:	02000002 	andeq	r0, r0, #2
     85c:	ff0c6891 	undefined instruction 0xff0c6891
     860:	01000003 	tsteq	r0, r3
     864:	00020768 	andeq	r0, r2, r8, ror #14
     868:	74910200 	ldrvc	r0, [r1], #512	; 0x200
     86c:	95041000 	strls	r1, [r4]
     870:	11000002 	tstne	r0, r2
     874:	0000005a 	andeq	r0, r0, sl, asr r0
     878:	03b50106 	undefined instruction 0x03b50106
     87c:	74010000 	strvc	r0, [r1]
     880:	008ab001 	addeq	fp, sl, r1
     884:	008b1c70 	addeq	r1, fp, r0, ror ip
     888:	0002ec70 	andeq	lr, r2, r0, ror ip
     88c:	0002f600 	andeq	pc, r2, r0, lsl #12
     890:	08440a00 	stmdaeq	r4, {r9, fp}^
     894:	74010000 	strvc	r0, [r1]
     898:	00000085 	andeq	r0, r0, r5, lsl #1
     89c:	0b6c9102 	bleq	1b24cac <PHY_OFFSET-0x6e4e3354>
     8a0:	74010078 	strvc	r0, [r1], #-120	; 0x78
     8a4:	00000021 	andeq	r0, r0, r1, lsr #32
     8a8:	0a689102 	beq	1a24cb8 <PHY_OFFSET-0x6e5e3348>
     8ac:	000002bd 	undefined instruction 0x000002bd
     8b0:	00217501 	eoreq	r7, r1, r1, lsl #10
     8b4:	91020000 	tstls	r2, r0
     8b8:	00690764 	rsbeq	r0, r9, r4, ror #14
     8bc:	00337701 	eorseq	r7, r3, r1, lsl #14
     8c0:	91020000 	tstls	r2, r0
     8c4:	75620774 	strbvc	r0, [r2, #-1908]!	; 0x774
     8c8:	78010066 	stmdavc	r1, {r1, r2, r5, r6}
     8cc:	000002f6 	strdeq	r0, [r0], -r6
     8d0:	00709102 	rsbseq	r9, r0, r2, lsl #2
     8d4:	00480410 	subeq	r0, r8, r0, lsl r4
     8d8:	5a120000 	bpl	4808e0 <PHY_OFFSET-0x6fb87720>
     8dc:	13000000 	movwne	r0, #0
     8e0:	13000003 	movwne	r0, #3
     8e4:	0000002c 	andeq	r0, r0, ip, lsr #32
     8e8:	002c143f 	eoreq	r1, ip, pc, lsr r4
     8ec:	03ff0000 	mvnseq	r0, #0
     8f0:	04071500 	streq	r1, [r7], #-1280	; 0x500
     8f4:	03010000 	movweq	r0, #4096	; 0x1000
     8f8:	000002fc 	strdeq	r0, [r0], -ip
     8fc:	51150101 	tstpl	r5, r1, lsl #2
     900:	01000004 	tsteq	r0, r4
     904:	0002fc05 	andeq	pc, r2, r5, lsl #24
     908:	12010100 	andne	r0, r1, #0
     90c:	00000061 	andeq	r0, r0, r1, rrx
     910:	0000033d 	andeq	r0, r0, sp, lsr r3
     914:	00002c13 	andeq	r2, r0, r3, lsl ip
     918:	15003f00 	strne	r3, [r0, #-3840]	; 0xf00
     91c:	000003e6 	andeq	r0, r0, r6, ror #7
     920:	032d0701 	teqeq	sp, #262144	; 0x40000
     924:	01010000 	tsteq	r1, r0
     928:	00041f15 	andeq	r1, r4, r5, lsl pc
     92c:	2d080100 	stfcss	f0, [r8]
     930:	01000003 	tsteq	r0, r3
     934:	04071601 	streq	r1, [r7], #-1537	; 0x601
     938:	03010000 	movweq	r0, #4096	; 0x1000
     93c:	000002fc 	strdeq	r0, [r0], -ip
     940:	6c030501 	cfstr32vs	mvfx0, [r3], {1}
     944:	16700204 	ldrbtne	r0, [r0], -r4, lsl #4
     948:	00000451 	andeq	r0, r0, r1, asr r4
     94c:	02fc0501 	rscseq	r0, ip, #4194304	; 0x400000
     950:	05010000 	streq	r0, [r1]
     954:	01026c03 	tsteq	r2, r3, lsl #24
     958:	03e61670 	mvneq	r1, #117440512	; 0x7000000
     95c:	07010000 	streq	r0, [r1, -r0]
     960:	0000032d 	andeq	r0, r0, sp, lsr #6
     964:	6c030501 	cfstr32vs	mvfx0, [r3], {1}
     968:	16700202 	ldrbtne	r0, [r0], -r2, lsl #4
     96c:	0000041f 	andeq	r0, r0, pc, lsl r4
     970:	032d0801 	teqeq	sp, #65536	; 0x10000
     974:	05010000 	streq	r0, [r1]
     978:	02036c03 	andeq	r6, r3, #768	; 0x300
     97c:	04910070 	ldreq	r0, [r1], #112	; 0x70
     980:	00020000 	andeq	r0, r2, r0
     984:	0000038d 	andeq	r0, r0, sp, lsl #7
     988:	00380104 	eorseq	r0, r8, r4, lsl #2
     98c:	c1010000 	tstgt	r1, r0
     990:	1c000004 	stcne	0, cr0, [r0], {4}
     994:	6070008b 	rsbsvs	r0, r0, fp, lsl #1
     998:	d170008e 	cmnle	r0, lr, lsl #1
     99c:	02000003 	andeq	r0, r0, #3
     9a0:	000002a8 	andeq	r0, r0, r8, lsr #5
     9a4:	002c0c02 	eoreq	r0, ip, r2, lsl #24
     9a8:	04030000 	streq	r0, [r3]
     9ac:	0000c307 	andeq	ip, r0, r7, lsl #6
     9b0:	02a90200 	adceq	r0, r9, #0
     9b4:	0d020000 	stceq	0, cr0, [r2]
     9b8:	0000003e 	andeq	r0, r0, lr, lsr r0
     9bc:	69050404 	stmdbvs	r5, {r2, sl}
     9c0:	0200746e 	andeq	r7, r0, #1845493760	; 0x6e000000
     9c4:	00000293 	muleq	r0, r3, r2
     9c8:	00500e02 	subseq	r0, r0, r2, lsl #28
     9cc:	02030000 	andeq	r0, r3, #0
     9d0:	00011007 	andeq	r1, r1, r7
     9d4:	05020300 	streq	r0, [r2, #-768]	; 0x300
     9d8:	0000027d 	andeq	r0, r0, sp, ror r2
     9dc:	0001e802 	andeq	lr, r1, r2, lsl #16
     9e0:	69100200 	ldmdbvs	r0, {r9}
     9e4:	03000000 	movweq	r0, #0
     9e8:	01730801 	cmneq	r3, r1, lsl #16
     9ec:	01030000 	tsteq	r3, r0
     9f0:	00017c08 	andeq	r7, r1, r8, lsl #24
     9f4:	07080300 	streq	r0, [r8, -r0, lsl #6]
     9f8:	000000b9 	strheq	r0, [r0], -r9
     9fc:	54050803 	strpl	r0, [r5], #-2051	; 0x803
     a00:	02000002 	andeq	r0, r0, #2
     a04:	000003da 	ldrdeq	r0, [r0], -sl
     a08:	00211502 	eoreq	r1, r1, r2, lsl #10
     a0c:	16050000 	strne	r0, [r5], -r0
     a10:	04000006 	streq	r0, [r0], #-6
     a14:	00bb1e02 	adcseq	r1, fp, r2, lsl #28
     a18:	b9060000 	stmdblt	r6, {}
     a1c:	80000005 	andhi	r0, r0, r5
     a20:	08808080 	stmeq	r0, {r7, pc}
     a24:	00059d06 	andeq	r9, r5, r6, lsl #26
     a28:	80808100 	addhi	r8, r0, r0, lsl #2
     a2c:	41060880 	smlabbmi	r6, r0, r8, r0
     a30:	82000005 	andhi	r0, r0, #5
     a34:	08808080 	stmeq	r0, {r7, pc}
     a38:	01230500 	teqeq	r3, r0, lsl #10
     a3c:	02040000 	andeq	r0, r4, #0
     a40:	0000f225 	andeq	pc, r0, r5, lsr #4
     a44:	01bf0600 	undefined instruction 0x01bf0600
     a48:	06000000 	streq	r0, [r0], -r0
     a4c:	00000143 	andeq	r0, r0, r3, asr #2
     a50:	004e0601 	subeq	r0, lr, r1, lsl #12
     a54:	06020000 	streq	r0, [r2], -r0
     a58:	0000001d 	andeq	r0, r0, sp, lsl r0
     a5c:	021c0603 	andseq	r0, ip, #3145728	; 0x300000
     a60:	06050000 	streq	r0, [r5], -r0
     a64:	00000000 	andeq	r0, r0, r0
     a68:	02c20606 	sbceq	r0, r2, #6291456	; 0x600000
     a6c:	00070000 	andeq	r0, r7, r0
     a70:	2f021007 	svccs	0x00021007
     a74:	00000133 	andeq	r0, r0, r3, lsr r1
     a78:	00019808 	andeq	r9, r1, r8, lsl #16
     a7c:	21310200 	teqcs	r1, r0, lsl #4
     a80:	02000000 	andeq	r0, r0, #0
     a84:	b7080023 	strlt	r0, [r8, -r3, lsr #32]
     a88:	02000001 	andeq	r0, r0, #1
     a8c:	00004532 	andeq	r4, r0, r2, lsr r5
     a90:	04230200 	strteq	r0, [r3], #-512	; 0x200
     a94:	00013208 	andeq	r3, r1, r8, lsl #4
     a98:	45330200 	ldrmi	r0, [r3, #-512]!	; 0x200
     a9c:	02000000 	andeq	r0, r0, #0
     aa0:	62080623 	andvs	r0, r8, #36700160	; 0x2300000
     aa4:	02000002 	andeq	r0, r0, #2
     aa8:	00013334 	andeq	r3, r1, r4, lsr r3
     aac:	08230200 	stmdaeq	r3!, {r9}
     ab0:	005e0900 	subseq	r0, lr, r0, lsl #18
     ab4:	01430000 	cmpeq	r3, r0
     ab8:	2c0a0000 	stccs	0, cr0, [sl], {0}
     abc:	07000000 	streq	r0, [r0, -r0]
     ac0:	016a0200 	cmneq	sl, r0, lsl #4
     ac4:	35020000 	strcc	r0, [r2]
     ac8:	000000f2 	strdeq	r0, [r0], -r2
     acc:	42020807 	andmi	r0, r2, #458752	; 0x70000
     ad0:	00000173 	andeq	r0, r0, r3, ror r1
     ad4:	00084408 	andeq	r4, r8, r8, lsl #8
     ad8:	73440200 	movtvc	r0, #16896	; 0x4200
     adc:	02000001 	andeq	r0, r0, #1
     ae0:	bd080023 	stclt	0, cr0, [r8, #-140]	; 0xffffff74
     ae4:	02000002 	andeq	r0, r0, #2
     ae8:	00002145 	andeq	r2, r0, r5, asr #2
     aec:	04230200 	strteq	r0, [r3], #-512	; 0x200
     af0:	07040b00 	streq	r0, [r4, -r0, lsl #22]
     af4:	96470208 	strbls	r0, [r7], -r8, lsl #4
     af8:	0c000001 	stceq	0, cr0, [r0], {1}
     afc:	49020061 	stmdbmi	r2, {r0, r5, r6}
     b00:	00000021 	andeq	r0, r0, r1, lsr #32
     b04:	0c002302 	stceq	3, cr2, [r0], {2}
     b08:	4a020062 	bmi	80c98 <PHY_OFFSET-0x6ff87368>
     b0c:	00000021 	andeq	r0, r0, r1, lsr #32
     b10:	00042302 	andeq	r2, r4, r2, lsl #6
     b14:	4002080d 	andmi	r0, r2, sp, lsl #16
     b18:	000001b5 	undefined instruction 0x000001b5
     b1c:	0002de0e 	andeq	sp, r2, lr, lsl #28
     b20:	4e460200 	cdpmi	2, 4, cr0, cr6, cr0, {0}
     b24:	0e000001 	cdpeq	0, 0, cr0, cr0, cr1, {0}
     b28:	00000790 	muleq	r0, r0, r7
     b2c:	01754b02 	cmneq	r5, r2, lsl #22
     b30:	02000000 	andeq	r0, r0, #0
     b34:	00000044 	andeq	r0, r0, r4, asr #32
     b38:	01964c02 	orrseq	r4, r6, r2, lsl #24
     b3c:	a80f0000 	stmdage	pc, {}
     b40:	14000000 	strne	r0, [r0]
     b44:	01e94e02 	mvneq	r4, r2, lsl #28
     b48:	b1080000 	tstlt	r8, r0
     b4c:	02000002 	andeq	r0, r0, #2
     b50:	0001434f 	andeq	r4, r1, pc, asr #6
     b54:	00230200 	eoreq	r0, r3, r0, lsl #4
     b58:	00027208 	andeq	r7, r2, r8, lsl #4
     b5c:	33500200 	cmpcc	r0, #0
     b60:	02000000 	andeq	r0, r0, #0
     b64:	02001023 	andeq	r1, r0, #35	; 0x23
     b68:	000000a9 	andeq	r0, r0, r9, lsr #1
     b6c:	01c05102 	biceq	r5, r0, r2, lsl #2
     b70:	290f0000 	stmdbcs	pc, {}
     b74:	08000006 	stmdaeq	r0, {r1, r2}
     b78:	021d5302 	andseq	r5, sp, #134217728	; 0x8000000
     b7c:	22080000 	andcs	r0, r8, #0
     b80:	02000005 	andeq	r0, r0, #5
     b84:	00017354 	andeq	r7, r1, r4, asr r3
     b88:	00230200 	eoreq	r0, r3, r0, lsl #4
     b8c:	0002bd08 	andeq	fp, r2, r8, lsl #26
     b90:	85550200 	ldrbhi	r0, [r5, #-512]	; 0x200
     b94:	02000000 	andeq	r0, r0, #0
     b98:	02000423 	andeq	r0, r0, #587202560	; 0x23000000
     b9c:	0000062a 	andeq	r0, r0, sl, lsr #12
     ba0:	01f45602 	mvnseq	r5, r2, lsl #12
     ba4:	090f0000 	stmdbeq	pc, {}
     ba8:	64000006 	strvs	r0, [r0], #-6
     bac:	02975802 	addseq	r5, r7, #131072	; 0x20000
     bb0:	81080000 	tsthi	r8, r0
     bb4:	02000001 	andeq	r0, r0, #1
     bb8:	0002975a 	andeq	r9, r2, sl, asr r7
     bbc:	00230200 	eoreq	r0, r3, r0, lsl #4
     bc0:	0001fd08 	andeq	pc, r1, r8, lsl #26
     bc4:	215c0200 	cmpcs	ip, r0, lsl #4
     bc8:	02000000 	andeq	r0, r0, #0
     bcc:	46082023 	strmi	r2, [r8], -r3, lsr #32
     bd0:	02000006 	andeq	r0, r0, #6
     bd4:	00009063 	andeq	r9, r0, r3, rrx
     bd8:	24230200 	strtcs	r0, [r3], #-512	; 0x200
     bdc:	00018808 	andeq	r8, r1, r8, lsl #16
     be0:	e9670200 	stmdb	r7!, {r9}^
     be4:	02000001 	andeq	r0, r0, #1
     be8:	e2082823 	and	r2, r8, #2293760	; 0x230000
     bec:	02000005 	andeq	r0, r0, #5
     bf0:	00003369 	andeq	r3, r0, r9, ror #6
     bf4:	3c230200 	sfmcc	f0, 4, [r3]	; (stccc 2, cr0, [r3])
     bf8:	0005d408 	andeq	sp, r5, r8, lsl #8
     bfc:	336b0200 	cmncc	fp, #0
     c00:	02000000 	andeq	r0, r0, #0
     c04:	55084023 	strpl	r4, [r8, #-35]	; 0x23
     c08:	02000006 	andeq	r0, r0, #6
     c0c:	0002a76d 	andeq	sl, r2, sp, ror #14
     c10:	44230200 	strtmi	r0, [r3], #-512	; 0x200
     c14:	01b50900 	undefined instruction 0x01b50900
     c18:	02a70000 	adceq	r0, r7, #0
     c1c:	2c0a0000 	stccs	0, cr0, [sl], {0}
     c20:	03000000 	movweq	r0, #0
     c24:	021d0900 	andseq	r0, sp, #0
     c28:	02b70000 	adcseq	r0, r7, #0
     c2c:	2c0a0000 	stccs	0, cr0, [sl], {0}
     c30:	03000000 	movweq	r0, #0
     c34:	060a0200 	streq	r0, [sl], -r0, lsl #4
     c38:	6e020000 	cdpvs	0, 0, cr0, cr2, cr0, {0}
     c3c:	00000228 	andeq	r0, r0, r8, lsr #4
     c40:	0004b705 	andeq	fp, r4, r5, lsl #14
     c44:	cd020400 	cfstrsgt	mvf0, [r2]
     c48:	000002fd 	strdeq	r0, [r0], -sp
     c4c:	00051106 	andeq	r1, r5, r6, lsl #2
     c50:	73060000 	movwvc	r0, #24576	; 0x6000
     c54:	01000005 	tsteq	r0, r5
     c58:	00069d06 	andeq	r9, r6, r6, lsl #26
     c5c:	87060200 	strhi	r0, [r6, -r0, lsl #4]
     c60:	04000006 	streq	r0, [r0], #-6
     c64:	00058206 	andeq	r8, r5, r6, lsl #4
     c68:	ed060500 	cfstr32	mvfx0, [r6]
     c6c:	06000005 	streq	r0, [r0], -r5
     c70:	00052b06 	andeq	r2, r5, r6, lsl #22
     c74:	80808000 	addhi	r8, r0, r0
     c78:	10000f80 	andne	r0, r0, r0, lsl #31
     c7c:	0000065f 	andeq	r0, r0, pc, asr r6
     c80:	3e010f01 	cdpcc	15, 0, cr0, cr1, cr1, {0}
     c84:	1c000000 	stcne	0, cr0, [r0], {0}
     c88:	7070008b 	rsbsvc	r0, r0, fp, lsl #1
     c8c:	1870008b 	ldmdane	r0!, {r0, r1, r3, r7}^
     c90:	4e000003 	cdpmi	0, 0, cr0, cr0, cr3, {0}
     c94:	11000003 	tstne	r0, r3
     c98:	0000067b 	andeq	r0, r0, fp, ror r6
     c9c:	034e0f01 	movteq	r0, #61185	; 0xef01
     ca0:	91020000 	tstls	r2, r0
     ca4:	6572126c 	ldrbvs	r1, [r2, #-620]!	; 0x26c
     ca8:	2e010074 	mcrcs	0, 0, r0, cr1, cr4, {3}
     cac:	00000354 	andeq	r0, r0, r4, asr r3
     cb0:	12749102 	rsbsne	r9, r4, #-2147483648	; 0x80000000
     cb4:	01003072 	tsteq	r0, r2, ror r0
     cb8:	00002133 	andeq	r2, r0, r3, lsr r1
     cbc:	12500100 	subsne	r0, r0, #0
     cc0:	01003172 	tsteq	r0, r2, ror r1
     cc4:	00002134 	andeq	r2, r0, r4, lsr r1
     cc8:	00510100 	subseq	r0, r1, r0, lsl #2
     ccc:	02b70413 	adcseq	r0, r7, #318767104	; 0x13000000
     cd0:	3e140000 	cdpcc	0, 1, cr0, cr4, cr0, {0}
     cd4:	15000000 	strne	r0, [r0]
     cd8:	00063a01 	andeq	r3, r6, r1, lsl #20
     cdc:	013f0100 	teqeq	pc, r0, lsl #2
     ce0:	0000003e 	andeq	r0, r0, lr, lsr r0
     ce4:	70008b70 	andvc	r8, r0, r0, ror fp
     ce8:	70008c98 	mulvc	r0, r8, ip
     cec:	00000344 	andeq	r0, r0, r4, asr #6
     cf0:	000003bd 	undefined instruction 0x000003bd
     cf4:	00018111 	andeq	r8, r1, r1, lsl r1
     cf8:	bd3f0100 	ldflts	f0, [pc]
     cfc:	02000003 	andeq	r0, r0, #3
     d00:	88116c91 	ldmdahi	r1, {r0, r4, r7, sl, fp, sp, lr}
     d04:	01000001 	tsteq	r0, r1
     d08:	0003c340 	andeq	ip, r3, r0, asr #6
     d0c:	68910200 	ldmvs	r1, {r9}
     d10:	0001fd11 	andeq	pc, r1, r1, lsl sp
     d14:	21410100 	cmpcs	r1, r0, lsl #2
     d18:	02000000 	andeq	r0, r0, #0
     d1c:	72126491 	andsvc	r6, r2, #-1862270976	; 0x91000000
     d20:	01007465 	tsteq	r0, r5, ror #8
     d24:	00003e43 	andeq	r3, r0, r3, asr #28
     d28:	74910200 	ldrvc	r0, [r1], #512	; 0x200
     d2c:	00067b16 	andeq	r7, r6, r6, lsl fp
     d30:	4e440100 	dvfmis	f0, f4, f0
     d34:	02000003 	andeq	r0, r0, #3
     d38:	13007091 	movwne	r7, #145	; 0x91
     d3c:	0001b504 	andeq	fp, r1, r4, lsl #10
     d40:	e9041300 	stmdb	r4, {r8, r9, ip}
     d44:	15000001 	strne	r0, [r0, #-1]
     d48:	00066e01 	andeq	r6, r6, r1, lsl #28
     d4c:	01640100 	cmneq	r4, r0, lsl #2
     d50:	0000003e 	andeq	r0, r0, lr, lsr r0
     d54:	70008c98 	mulvc	r0, r8, ip
     d58:	70008d18 	andvc	r8, r0, r8, lsl sp
     d5c:	00000370 	andeq	r0, r0, r0, ror r3
     d60:	00000411 	andeq	r0, r0, r1, lsl r4
     d64:	00018811 	andeq	r8, r1, r1, lsl r8
     d68:	c3640100 	cmngt	r4, #0
     d6c:	02000003 	andeq	r0, r0, #3
     d70:	7b166c91 	blvc	59bfbc <PHY_OFFSET-0x6fa6c044>
     d74:	01000006 	tsteq	r0, r6
     d78:	00034e66 	andeq	r4, r3, r6, ror #28
     d7c:	74910200 	ldrvc	r0, [r1], #512	; 0x200
     d80:	74657212 	strbtvc	r7, [r5], #-530	; 0x212
     d84:	3e670100 	powccs	f0, f7, f0
     d88:	02000000 	andeq	r0, r0, #0
     d8c:	15007091 	strne	r7, [r0, #-145]	; 0x91
     d90:	00055e01 	andeq	r5, r5, r1, lsl #28
     d94:	01710100 	cmneq	r1, r0, lsl #2
     d98:	0000003e 	andeq	r0, r0, lr, lsr r0
     d9c:	70008d18 	andvc	r8, r0, r8, lsl sp
     da0:	70008e60 	andvc	r8, r0, r0, ror #28
     da4:	0000039c 	muleq	r0, ip, r3
     da8:	00000483 	andeq	r0, r0, r3, lsl #9
     dac:	00018811 	andeq	r8, r1, r1, lsl r8
     db0:	c3710100 	cmngt	r1, #0
     db4:	02000003 	andeq	r0, r0, #3
     db8:	81116c91 	undefined instruction 0x81116c91
     dbc:	01000001 	tsteq	r0, r1
     dc0:	0003bd72 	andeq	fp, r3, r2, ror sp
     dc4:	68910200 	ldmvs	r1, {r9}
     dc8:	0001fd11 	andeq	pc, r1, r1, lsl sp
     dcc:	21730100 	cmncs	r3, r0, lsl #2
     dd0:	02000000 	andeq	r0, r0, #0
     dd4:	09116491 	ldmdbeq	r1, {r0, r4, r7, sl, sp, lr}
     dd8:	01000005 	tsteq	r0, r5
     ddc:	00003374 	andeq	r3, r0, r4, ror r3
     de0:	60910200 	addsvs	r0, r1, r0, lsl #4
     de4:	00067b16 	andeq	r7, r6, r6, lsl fp
     de8:	4e760100 	rpwmis	f0, f6, f0
     dec:	02000003 	andeq	r0, r0, #3
     df0:	72127491 	andsvc	r7, r2, #-1862270976	; 0x91000000
     df4:	01007465 	tsteq	r0, r5, ror #8
     df8:	00003e77 	andeq	r3, r0, r7, ror lr
     dfc:	70910200 	addsvc	r0, r1, r0, lsl #4
     e00:	02b11600 	adcseq	r1, r1, #0
     e04:	05010000 	streq	r0, [r1]
     e08:	00000143 	andeq	r0, r0, r3, asr #2
     e0c:	a15c0305 	cmpge	ip, r5, lsl #6
     e10:	5b007000 	blpl	1ce18 <PHY_OFFSET-0x6ffeb1e8>
     e14:	02000000 	andeq	r0, r0, #0
     e18:	0004b400 	andeq	fp, r4, r0, lsl #8
     e1c:	38010400 	stmdacc	r1, {sl}
     e20:	01000000 	tsteq	r0, r0
     e24:	000006ad 	andeq	r0, r0, sp, lsr #13
     e28:	70008e60 	andvc	r8, r0, r0, ror #28
     e2c:	70008e60 	andvc	r8, r0, r0, ror #28
     e30:	000004de 	ldrdeq	r0, [r0], -lr
     e34:	00003802 	andeq	r3, r0, r2, lsl #16
     e38:	00003100 	andeq	r3, r0, r0, lsl #2
     e3c:	00310300 	eorseq	r0, r1, r0, lsl #6
     e40:	00ff0000 	rscseq	r0, pc, r0
     e44:	c3070404 	movwgt	r0, #29700	; 0x7404
     e48:	04000000 	streq	r0, [r0]
     e4c:	01730801 	cmneq	r3, r1, lsl #16
     e50:	ec050000 	stc	0, cr0, [r5], {0}
     e54:	01000006 	tsteq	r0, r6
     e58:	00002112 	andeq	r2, r0, r2, lsl r1
     e5c:	06010100 	streq	r0, [r1], -r0, lsl #2
     e60:	000006ec 	andeq	r0, r0, ip, ror #13
     e64:	00212002 	eoreq	r2, r1, r2
     e68:	05010000 	streq	r0, [r1]
     e6c:	00a16c03 	adceq	r6, r1, r3, lsl #24
     e70:	04340070 	ldrteq	r0, [r4], #-112	; 0x70
     e74:	00020000 	andeq	r0, r2, r0
     e78:	00000505 	andeq	r0, r0, r5, lsl #10
     e7c:	00380104 	eorseq	r0, r8, r4, lsl #2
     e80:	a1010000 	tstge	r1, r0
     e84:	60000007 	andvs	r0, r0, r7
     e88:	2070008e 	rsbscs	r0, r0, lr, lsl #1
     e8c:	87700098 	undefined instruction 0x87700098
     e90:	02000005 	andeq	r0, r0, #5
     e94:	0000075d 	andeq	r0, r0, sp, asr r7
     e98:	002c2802 	eoreq	r2, ip, r2, lsl #16
     e9c:	28030000 	stmdacs	r3, {}
     ea0:	04000008 	streq	r0, [r0], #-8
     ea4:	00000044 	andeq	r0, r0, r4, asr #32
     ea8:	0007fa04 	andeq	pc, r7, r4, lsl #20
     eac:	00004400 	andeq	r4, r0, r0, lsl #8
     eb0:	00230200 	eoreq	r0, r3, r0, lsl #4
     eb4:	04050001 	streq	r0, [r5], #-1
     eb8:	00082a02 	andeq	r2, r8, r2, lsl #20
     ebc:	21660200 	cmncs	r6, r0, lsl #4
     ec0:	02000000 	andeq	r0, r0, #0
     ec4:	000002a8 	andeq	r0, r0, r8, lsr #5
     ec8:	005c1301 	subseq	r1, ip, r1, lsl #6
     ecc:	04060000 	streq	r0, [r6]
     ed0:	0000c307 	andeq	ip, r0, r7, lsl #6
     ed4:	05040700 	streq	r0, [r4, #-1792]	; 0x700
     ed8:	00746e69 	rsbseq	r6, r4, r9, ror #28
     edc:	10070206 	andne	r0, r7, r6, lsl #4
     ee0:	06000001 	streq	r0, [r0], -r1
     ee4:	027d0502 	rsbseq	r0, sp, #8388608	; 0x800000
     ee8:	01060000 	tsteq	r6, r0
     eec:	00017308 	andeq	r7, r1, r8, lsl #6
     ef0:	08010600 	stmdaeq	r1, {r9, sl}
     ef4:	0000017c 	andeq	r0, r0, ip, ror r1
     ef8:	0003e102 	andeq	lr, r3, r2, lsl #2
     efc:	5c190100 	ldfpls	f0, [r9], {0}
     f00:	06000000 	streq	r0, [r0], -r0
     f04:	00b90708 	adcseq	r0, r9, r8, lsl #14
     f08:	08060000 	stmdaeq	r6, {}
     f0c:	00025405 	andeq	r5, r2, r5, lsl #8
     f10:	1e010800 	cdpne	8, 0, cr0, cr1, cr0, {0}
     f14:	01000007 	tsteq	r0, r7
     f18:	00510121 	subseq	r0, r1, r1, lsr #2
     f1c:	8e600000 	cdphi	0, 6, cr0, cr0, cr0, {0}
     f20:	8ee07000 	cdphi	0, 14, cr7, cr0, cr0, {0}
     f24:	03c87000 	biceq	r7, r8, #0
     f28:	00d90000 	sbcseq	r0, r9, r0
     f2c:	c4090000 	strgt	r0, [r9]
     f30:	01000003 	tsteq	r0, r3
     f34:	0000d921 	andeq	sp, r0, r1, lsr #18
     f38:	6c910200 	lfmvs	f0, 4, [r1], {0}	; (ldcvs 2, cr0, [r1], {0})
     f3c:	6e656c0a 	cdpvs	12, 6, cr6, cr5, cr10, {0}
     f40:	51230100 	teqpl	r3, r0, lsl #2
     f44:	02000000 	andeq	r0, r0, #0
     f48:	0b007491 	bleq	1e194 <PHY_OFFSET-0x6ffe9e6c>
     f4c:	00007f04 	andeq	r7, r0, r4, lsl #30
     f50:	85010800 	strhi	r0, [r1, #-2048]	; 0x800
     f54:	01000000 	tsteq	r0, r0
     f58:	005c012e 	subseq	r0, ip, lr, lsr #2
     f5c:	8ee00000 	cdphi	0, 14, cr0, cr0, cr0, {0}
     f60:	8f7c7000 	svchi	0x007c7000
     f64:	03f47000 	mvnseq	r7, #0
     f68:	016d0000 	cmneq	sp, r0
     f6c:	660c0000 	strvs	r0, [ip], -r0
     f70:	0100746d 	tsteq	r0, sp, ror #8
     f74:	00016d2e 	andeq	r6, r1, lr, lsr #26
     f78:	70910200 	addsvc	r0, r1, r0, lsl #4
     f7c:	08320e0d 	ldmdaeq	r2!, {r0, r2, r3, r9, sl, fp}
     f80:	30010000 	andcc	r0, r1, r0
     f84:	00000046 	andeq	r0, r0, r6, asr #32
     f88:	0a5c9102 	beq	1725398 <PHY_OFFSET-0x6e8e2c68>
     f8c:	31010069 	tstcc	r1, r9, rrx
     f90:	0000005c 	andeq	r0, r0, ip, asr r0
     f94:	0a609102 	beq	18253a4 <PHY_OFFSET-0x6e7e2c5c>
     f98:	32010070 	andcc	r0, r1, #112	; 0x70
     f9c:	000000d9 	ldrdeq	r0, [r0], -r9
     fa0:	0e649102 	lgneqs	f1, f2
     fa4:	0000083e 	andeq	r0, r0, lr, lsr r8
     fa8:	01783301 	cmneq	r8, r1, lsl #6
     fac:	91030000 	tstls	r3, r0
     fb0:	010f7ddc 	ldrdeq	r7, [pc, -ip]
     fb4:	000007ee 	andeq	r0, r0, lr, ror #15
     fb8:	00633601 	rsbeq	r3, r3, r1, lsl #12
     fbc:	53010000 	movwpl	r0, #4096	; 0x1000
     fc0:	0d000001 	stceq	0, cr0, [r0, #-4]
     fc4:	8f201000 	svchi	0x00201000
     fc8:	8f487000 	svchi	0x00487000
     fcc:	01117000 	tsteq	r1, r0
     fd0:	0000035b 	andeq	r0, r0, fp, asr r3
     fd4:	00633b01 	rsbeq	r3, r3, r1, lsl #22
     fd8:	0d010000 	stceq	0, cr0, [r1]
     fdc:	0b000000 	bleq	fe4 <PHY_OFFSET-0x7000701c>
     fe0:	00017304 	andeq	r7, r1, r4, lsl #6
     fe4:	007f1200 	rsbseq	r1, pc, r0, lsl #4
     fe8:	7f130000 	svcvc	0x00130000
     fec:	88000000 	stmdahi	r0, {}
     ff0:	14000001 	strne	r0, [r0], #-1
     ff4:	0000005c 	andeq	r0, r0, ip, asr r0
     ff8:	010800ff 	strdeq	r0, [r8, -pc]
     ffc:	000007ee 	andeq	r0, r0, lr, ror #15
    1000:	63014401 	movwvs	r4, #5121	; 0x1401
    1004:	7c000000 	stcvc	0, cr0, [r0], {0}
    1008:	2070008f 	rsbscs	r0, r0, pc, lsl #1
    100c:	2c700098 	ldclcs	0, cr0, [r0], #-608	; 0xfffffda0
    1010:	12000004 	andne	r0, r0, #4
    1014:	0c000004 	stceq	0, cr0, [r0], {4}
    1018:	00667562 	rsbeq	r7, r6, r2, ror #10
    101c:	00d94401 	sbcseq	r4, r9, r1, lsl #8
    1020:	91030000 	tstls	r3, r0
    1024:	660c7f84 	strvs	r7, [ip], -r4, lsl #31
    1028:	0100746d 	tsteq	r0, sp, ror #8
    102c:	00016d44 	andeq	r6, r1, r4, asr #26
    1030:	80910300 	addshi	r0, r1, r0, lsl #6
    1034:	0832097f 	ldmdaeq	r2!, {r0, r1, r2, r3, r4, r5, r6, r8, fp}
    1038:	44010000 	strmi	r0, [r1]
    103c:	00000046 	andeq	r0, r0, r6, asr #32
    1040:	7efc9103 	nrmvce	f1, f3
    1044:	7274730a 	rsbsvc	r7, r4, #671088640	; 0x28000000
    1048:	d9460100 	stmdble	r6, {r8}^
    104c:	02000000 	andeq	r0, r0, #0
    1050:	00107491 	mulseq	r0, r1, r4
    1054:	74700090 	ldrbtvc	r0, [r0], #-144	; 0x90
    1058:	0e700097 	mrceq	0, 3, r0, cr0, cr7, {4}
    105c:	00000778 	andeq	r0, r0, r8, ror r7
    1060:	00635201 	rsbeq	r5, r3, r1, lsl #4
    1064:	91020000 	tstls	r2, r0
    1068:	080d0e70 	stmdaeq	sp, {r4, r5, r6, r9, sl, fp}
    106c:	53010000 	movwpl	r0, #4096	; 0x1000
    1070:	00000063 	andeq	r0, r0, r3, rrx
    1074:	156c9102 	strbne	r9, [ip, #-258]!	; 0x102
    1078:	70009068 	andvc	r9, r0, r8, rrx
    107c:	70009074 	andvc	r9, r0, r4, ror r0
    1080:	00000222 	andeq	r0, r0, r2, lsr #4
    1084:	036b0111 	cmneq	fp, #1073741828	; 0x40000004
    1088:	5b010000 	blpl	41090 <PHY_OFFSET-0x6ffc6f70>
    108c:	00000063 	andeq	r0, r0, r3, rrx
    1090:	00000d01 	andeq	r0, r0, r1, lsl #26
    1094:	00911c15 	addseq	r1, r1, r5, lsl ip
    1098:	00929c70 	addseq	r9, r2, r0, ror ip
    109c:	00028570 	andeq	r8, r2, r0, ror r5
    10a0:	08370e00 	ldmdaeq	r7!, {r9, sl, fp}
    10a4:	6b010000 	blvs	410ac <PHY_OFFSET-0x6ffc6f54>
    10a8:	00000063 	andeq	r0, r0, r3, rrx
    10ac:	7fb09103 	svcvc	0x00b09103
    10b0:	00084b0e 	andeq	r4, r8, lr, lsl #22
    10b4:	636c0100 	cmnvs	ip, #0
    10b8:	03000000 	movweq	r0, #0
    10bc:	0e7fac91 	mrceq	12, 3, sl, cr15, cr1, {4}
    10c0:	000006f3 	strdeq	r0, [r0], -r3
    10c4:	00636d01 	rsbeq	r6, r3, r1, lsl #26
    10c8:	91030000 	tstls	r3, r0
    10cc:	290e7fa8 	stmdbcs	lr, {r3, r5, r7, r8, r9, sl, fp, ip, sp, lr}
    10d0:	01000007 	tsteq	r0, r7
    10d4:	0000636e 	andeq	r6, r0, lr, ror #6
    10d8:	68910200 	ldmvs	r1, {r9}
    10dc:	0100690a 	tsteq	r0, sl, lsl #18
    10e0:	0000636f 	andeq	r6, r0, pc, ror #6
    10e4:	64910200 	ldrvs	r0, [r1], #512	; 0x200
    10e8:	0007960e 	andeq	r9, r7, lr, lsl #12
    10ec:	86700100 	ldrbthi	r0, [r0], -r0, lsl #2
    10f0:	02000000 	andeq	r0, r0, #0
    10f4:	15006091 	strne	r6, [r0, #-145]	; 0x91
    10f8:	700092a4 	andvc	r9, r0, r4, lsr #5
    10fc:	70009494 	mulvc	r0, r4, r4
    1100:	00000344 	andeq	r0, r0, r4, asr #6
    1104:	0100690a 	tsteq	r0, sl, lsl #18
    1108:	0000639c 	muleq	r0, ip, r3
    110c:	5c910200 	lfmpl	f0, 4, [r1], {0}	; (ldcpl 2, cr0, [r1], {0})
    1110:	01006a0a 	tsteq	r0, sl, lsl #20
    1114:	0000639c 	muleq	r0, ip, r3
    1118:	58910200 	ldmpl	r1, {r9}
    111c:	0007ff0e 	andeq	pc, r7, lr, lsl #30
    1120:	639c0100 	orrsvs	r0, ip, #0
    1124:	03000000 	movweq	r0, #0
    1128:	0e7f9c91 	mrceq	12, 3, r9, cr15, cr1, {4}
    112c:	0000072e 	andeq	r0, r0, lr, lsr #14
    1130:	00639c01 	rsbeq	r9, r3, r1, lsl #24
    1134:	91030000 	tstls	r3, r0
    1138:	520e7fa0 	andpl	r7, lr, #640	; 0x280
    113c:	01000007 	tsteq	r0, r7
    1140:	0000639c 	muleq	r0, ip, r3
    1144:	54910200 	ldrpl	r0, [r1], #512	; 0x200
    1148:	0007400e 	andeq	r4, r7, lr
    114c:	639d0100 	orrsvs	r0, sp, #0
    1150:	02000000 	andeq	r0, r0, #0
    1154:	6c0e5091 	stcvs	0, cr5, [lr], {145}	; 0x91
    1158:	01000007 	tsteq	r0, r7
    115c:	0000639d 	muleq	r0, sp, r3
    1160:	4c910200 	lfmmi	f0, 4, [r1], {0}	; (ldcmi 2, cr0, [r1], {0})
    1164:	0007840e 	andeq	r8, r7, lr, lsl #8
    1168:	639d0100 	orrsvs	r0, sp, #0
    116c:	02000000 	andeq	r0, r0, #0
    1170:	960e4891 	undefined instruction 0x960e4891
    1174:	01000007 	tsteq	r0, r7
    1178:	0000869e 	muleq	r0, lr, r6
    117c:	44910200 	ldrmi	r0, [r1], #512	; 0x200
    1180:	0092c815 	addseq	ip, r2, r5, lsl r8
    1184:	00931870 	addseq	r1, r3, r0, ror r8
    1188:	00032a70 	andeq	r2, r3, r0, ror sl
    118c:	081a0e00 	ldmdaeq	sl, {r9, sl, fp}
    1190:	a1010000 	tstge	r1, r0
    1194:	00000063 	andeq	r0, r0, r3, rrx
    1198:	00409102 	subeq	r9, r0, r2, lsl #2
    119c:	00931810 	addseq	r1, r3, r0, lsl r8
    11a0:	00933470 	addseq	r3, r3, r0, ror r4
    11a4:	070c0e70 	smlsdxeq	ip, r0, lr, r0
    11a8:	a9010000 	stmdbge	r1, {}
    11ac:	00000063 	andeq	r0, r0, r3, rrx
    11b0:	7fa49103 	svcvc	0x00a49103
    11b4:	94150000 	ldrls	r0, [r5]
    11b8:	08700094 	ldmdaeq	r0!, {r2, r4, r7}^
    11bc:	aa700096 	bge	1c0141c <PHY_OFFSET-0x6e406be4>
    11c0:	0e000003 	cdpeq	0, 0, cr0, cr0, cr3, {0}
    11c4:	00000837 	andeq	r0, r0, r7, lsr r8
    11c8:	0063ca01 	rsbeq	ip, r3, r1, lsl #20
    11cc:	91030000 	tstls	r3, r0
    11d0:	4b0e7f8c 	blmi	3a1008 <PHY_OFFSET-0x6fc66ff8>
    11d4:	01000008 	tsteq	r0, r8
    11d8:	000063ca 	andeq	r6, r0, sl, asr #7
    11dc:	98910300 	ldmls	r1, {r8, r9}
    11e0:	06f30e7f 	undefined instruction 0x06f30e7f
    11e4:	ca010000 	bgt	411ec <PHY_OFFSET-0x6ffc6e14>
    11e8:	00000063 	andeq	r0, r0, r3, rrx
    11ec:	7f949103 	svcvc	0x00949103
    11f0:	0007290e 	andeq	r2, r7, lr, lsl #18
    11f4:	63ca0100 	bicvs	r0, sl, #0
    11f8:	03000000 	movweq	r0, #0
    11fc:	0a7f9091 	beq	1fe5448 <PHY_OFFSET-0x6e022bb8>
    1200:	ca010069 	bgt	413ac <PHY_OFFSET-0x6ffc6c54>
    1204:	00000063 	andeq	r0, r0, r3, rrx
    1208:	7fbc9103 	svcvc	0x00bc9103
    120c:	0007960e 	andeq	r9, r7, lr, lsl #12
    1210:	86cb0100 	strbhi	r0, [fp], r0, lsl #2
    1214:	03000000 	movweq	r0, #0
    1218:	007fb891 	ldrbteq	fp, [pc, #-129]	; 119f <PHY_OFFSET-0x70006e61>
    121c:	00960815 	addseq	r0, r6, r5, lsl r8
    1220:	00966c70 	addseq	r6, r6, r0, ror ip
    1224:	0003c770 	andeq	ip, r3, r0, ror r7
    1228:	07e30e00 	strbeq	r0, [r3, r0, lsl #28]!
    122c:	e8010000 	stmda	r1, {}
    1230:	000000d9 	ldrdeq	r0, [r0], -r9
    1234:	7fb49103 	svcvc	0x00b49103
    1238:	966c1500 	strbtls	r1, [ip], -r0, lsl #10
    123c:	969c7000 	ldrls	r7, [ip], r0
    1240:	03e47000 	mvneq	r7, #0
    1244:	020e0000 	andeq	r0, lr, #0
    1248:	01000007 	tsteq	r0, r7
    124c:	00007ff1 	strdeq	r7, [r0], -r1
    1250:	8b910300 	blhi	fe441e58 <_CLIENT_END+0x8e401e58>
    1254:	4010007f 	andsmi	r0, r0, pc, ror r0
    1258:	74700097 	ldrbtvc	r0, [r0], #-151	; 0x97
    125c:	0f700097 	svceq	0x00700097
    1260:	00036b01 	andeq	r6, r3, r1, lsl #22
    1264:	635b0100 	cmpvs	fp, #0
    1268:	01000000 	tsteq	r0, r0
    126c:	00000400 	andeq	r0, r0, r0, lsl #8
    1270:	0111000d 	tsteq	r1, sp
    1274:	0000035b 	andeq	r0, r0, fp, asr r3
    1278:	00633b01 	rsbeq	r3, r3, r1, lsl #22
    127c:	0d010000 	stceq	0, cr0, [r1]
    1280:	00000000 	andeq	r0, r0, r0
    1284:	00007813 	andeq	r7, r0, r3, lsl r8
    1288:	00041d00 	andeq	r1, r4, r0, lsl #26
    128c:	17001600 	strne	r1, [r0, -r0, lsl #12]
    1290:	000006ec 	andeq	r0, r0, ip, ror #13
    1294:	04121203 	ldreq	r1, [r2], #-515	; 0x203
    1298:	01010000 	tsteq	r1, r0
    129c:	0006ec17 	andeq	lr, r6, r7, lsl ip
    12a0:	12120300 	andsne	r0, r2, #0
    12a4:	01000004 	tsteq	r0, r4
    12a8:	03320001 	teqeq	r2, #1
    12ac:	00020000 	andeq	r0, r2, r0
    12b0:	00000623 	andeq	r0, r0, r3, lsr #12
    12b4:	00380104 	eorseq	r0, r8, r4, lsl #2
    12b8:	52010000 	andpl	r0, r1, #0
    12bc:	20000008 	andcs	r0, r0, r8
    12c0:	6c700098 	ldclvs	0, cr0, [r0], #-608	; 0xfffffda0
    12c4:	af70009f 	svcge	0x0070009f
    12c8:	02000007 	andeq	r0, r0, #7
    12cc:	000002a8 	andeq	r0, r0, r8, lsr #5
    12d0:	002c2d01 	eoreq	r2, ip, r1, lsl #26
    12d4:	04030000 	streq	r0, [r3]
    12d8:	0000c307 	andeq	ip, r0, r7, lsl #6
    12dc:	02a90200 	adceq	r0, r9, #0
    12e0:	2e010000 	cdpcs	0, 0, cr0, cr1, cr0, {0}
    12e4:	0000003e 	andeq	r0, r0, lr, lsr r0
    12e8:	69050404 	stmdbvs	r5, {r2, sl}
    12ec:	0300746e 	movweq	r7, #1134	; 0x46e
    12f0:	01100702 	tsteq	r0, r2, lsl #14
    12f4:	02030000 	andeq	r0, r3, #0
    12f8:	00027d05 	andeq	r7, r2, r5, lsl #26
    12fc:	08010300 	stmdaeq	r1, {r8, r9}
    1300:	00000173 	andeq	r0, r0, r3, ror r1
    1304:	7c080103 	stfvcs	f0, [r8], {3}
    1308:	02000001 	andeq	r0, r0, #1
    130c:	000008f5 	strdeq	r0, [r0], -r5
    1310:	006c3401 	rsbeq	r3, ip, r1, lsl #8
    1314:	08030000 	stmdaeq	r3, {}
    1318:	0000b907 	andeq	fp, r0, r7, lsl #18
    131c:	05080300 	streq	r0, [r8, #-768]	; 0x300
    1320:	00000254 	andeq	r0, r0, r4, asr r2
    1324:	ca011005 	bgt	45340 <PHY_OFFSET-0x6ffc2cc0>
    1328:	0000009f 	muleq	r0, pc, r0
    132c:	0008bd06 	andeq	fp, r8, r6, lsl #26
    1330:	61cc0100 	bicvs	r0, ip, r0, lsl #2
    1334:	02000000 	andeq	r0, r0, #0
    1338:	72070023 	andvc	r0, r7, #35	; 0x23
    133c:	01006d65 	tsteq	r0, r5, ror #26
    1340:	000061cd 	andeq	r6, r0, sp, asr #3
    1344:	08230200 	stmdaeq	r3!, {r9}
    1348:	09320200 	ldmdbeq	r2!, {r9}
    134c:	ce010000 	cdpgt	0, 0, cr0, cr1, cr0, {0}
    1350:	0000007a 	andeq	r0, r0, sl, ror r0
    1354:	00089f08 	andeq	r9, r8, r8, lsl #30
    1358:	01390100 	teqeq	r9, r0, lsl #2
    135c:	00000033 	andeq	r0, r0, r3, lsr r0
    1360:	70009820 	andvc	r9, r0, r0, lsr #16
    1364:	70009870 	andvc	r9, r0, r0, ror r8
    1368:	00000458 	andeq	r0, r0, r8, asr r4
    136c:	000000d3 	ldrdeq	r0, [r0], -r3
    1370:	01006e09 	tsteq	r0, r9, lsl #28
    1374:	00002139 	andeq	r2, r0, r9, lsr r1
    1378:	74910200 	ldrvc	r0, [r1], #512	; 0x200
    137c:	09430800 	stmdbeq	r3, {fp}^
    1380:	46010000 	strmi	r0, [r1], -r0
    1384:	00003301 	andeq	r3, r0, r1, lsl #6
    1388:	00987000 	addseq	r7, r8, r0
    138c:	0098e070 	addseq	lr, r8, r0, ror r0
    1390:	00048470 	andeq	r8, r4, r0, ror r4
    1394:	00010800 	andeq	r0, r1, r0, lsl #16
    1398:	006e0900 	rsbeq	r0, lr, r0, lsl #18
    139c:	00214601 	eoreq	r4, r1, r1, lsl #12
    13a0:	91020000 	tstls	r2, r0
    13a4:	00690a6c 	rsbeq	r0, r9, ip, ror #20
    13a8:	00334801 	eorseq	r4, r3, r1, lsl #16
    13ac:	91020000 	tstls	r2, r0
    13b0:	010b0074 	tsteq	fp, r4, ror r0
    13b4:	00000951 	andeq	r0, r0, r1, asr r9
    13b8:	21018801 	tstcs	r1, r1, lsl #16
    13bc:	e0000000 	and	r0, r0, r0
    13c0:	6c700098 	ldclvs	0, cr0, [r0], #-608	; 0xfffffda0
    13c4:	b0700099 	ldrbtlt	r0, [r0], #-9
    13c8:	42000004 	andmi	r0, r0, #4
    13cc:	0c000001 	stceq	0, cr0, [r0], {1}
    13d0:	00000929 	andeq	r0, r0, r9, lsr #18
    13d4:	00218801 	eoreq	r8, r1, r1, lsl #16
    13d8:	91020000 	tstls	r2, r0
    13dc:	093b0c74 	ldmdbeq	fp!, {r2, r4, r5, r6, sl, fp}
    13e0:	88010000 	stmdahi	r1, {}
    13e4:	00000021 	andeq	r0, r0, r1, lsr #32
    13e8:	00709102 	rsbseq	r9, r0, r2, lsl #2
    13ec:	0008dd08 	andeq	sp, r8, r8, lsl #26
    13f0:	01a70100 	undefined instruction 0x01a70100
    13f4:	00000021 	andeq	r0, r0, r1, lsr #32
    13f8:	7000996c 	andvc	r9, r0, ip, ror #18
    13fc:	70009a44 	andvc	r9, r0, r4, asr #20
    1400:	000004dc 	ldrdeq	r0, [r0], -ip
    1404:	000001a5 	andeq	r0, r0, r5, lsr #3
    1408:	0009290c 	andeq	r2, r9, ip, lsl #18
    140c:	21a70100 	undefined instruction 0x21a70100
    1410:	02000000 	andeq	r0, r0, #0
    1414:	3b0c6c91 	blcc	31c660 <PHY_OFFSET-0x6fceb9a0>
    1418:	01000009 	tsteq	r0, r9
    141c:	000021a7 	andeq	r2, r0, r7, lsr #3
    1420:	68910200 	ldmvs	r1, {r9}
    1424:	63636109 	cmnvs	r3, #1073741826	; 0x40000002
    1428:	21a70100 	undefined instruction 0x21a70100
    142c:	02000000 	andeq	r0, r0, #0
    1430:	720a6491 	andvc	r6, sl, #-1862270976	; 0x91000000
    1434:	01007365 	tsteq	r0, r5, ror #6
    1438:	000021ae 	andeq	r2, r0, lr, lsr #3
    143c:	74910200 	ldrvc	r0, [r1], #512	; 0x200
    1440:	706d740a 	rsbvc	r7, sp, sl, lsl #8
    1444:	21ae0100 	undefined instruction 0x21ae0100
    1448:	02000000 	andeq	r0, r0, #0
    144c:	0b007091 	bleq	1d698 <PHY_OFFSET-0x6ffea968>
    1450:	00091801 	andeq	r1, r9, r1, lsl #16
    1454:	01da0100 	bicseq	r0, sl, r0, lsl #2
    1458:	0000009f 	muleq	r0, pc, r0
    145c:	70009a44 	andvc	r9, r0, r4, asr #20
    1460:	70009bfc 	strdvc	r9, [r0], -ip
    1464:	00000508 	andeq	r0, r0, r8, lsl #10
    1468:	000001ed 	andeq	r0, r0, sp, ror #3
    146c:	0009290c 	andeq	r2, r9, ip, lsl #18
    1470:	61da0100 	bicsvs	r0, sl, r0, lsl #2
    1474:	02000000 	andeq	r0, r0, #0
    1478:	3b0c5091 	blcc	3156c4 <PHY_OFFSET-0x6fcf293c>
    147c:	01000009 	tsteq	r0, r9
    1480:	000061da 	ldrdeq	r6, [r0], -sl
    1484:	00910200 	addseq	r0, r1, r0, lsl #4
    1488:	7465720a 	strbtvc	r7, [r5], #-522	; 0x20a
    148c:	9fdc0100 	svcls	0x00dc0100
    1490:	02000000 	andeq	r0, r0, #0
    1494:	0d005891 	stceq	8, cr5, [r0, #-580]	; 0xfffffdbc
    1498:	000008c2 	andeq	r0, r0, r2, asr #17
    149c:	01010301 	tsteq	r1, r1, lsl #6
    14a0:	00000061 	andeq	r0, r0, r1, rrx
    14a4:	70009bfc 	strdvc	r9, [r0], -ip
    14a8:	70009d8c 	andvc	r9, r0, ip, lsl #27
    14ac:	00000534 	andeq	r0, r0, r4, lsr r5
    14b0:	00000256 	andeq	r0, r0, r6, asr r2
    14b4:	0009290e 	andeq	r2, r9, lr, lsl #18
    14b8:	01030100 	tsteq	r3, r0, lsl #2
    14bc:	00000061 	andeq	r0, r0, r1, rrx
    14c0:	0e589102 	logeqe	f1, f2
    14c4:	0000093b 	andeq	r0, r0, fp, lsr r9
    14c8:	61010301 	tstvs	r1, r1, lsl #6
    14cc:	02000000 	andeq	r0, r0, #0
    14d0:	610f5091 	swpvs	r5, r1, [pc]
    14d4:	01006363 	tsteq	r0, r3, ror #6
    14d8:	00610103 	rsbeq	r0, r1, r3, lsl #2
    14dc:	91020000 	tstls	r2, r0
    14e0:	65721000 	ldrbvs	r1, [r2]!
    14e4:	0a010073 	beq	416b8 <PHY_OFFSET-0x6ffc6948>
    14e8:	00006101 	andeq	r6, r0, r1, lsl #2
    14ec:	68910200 	ldmvs	r1, {r9}
    14f0:	706d7410 	rsbvc	r7, sp, r0, lsl r4
    14f4:	010a0100 	tsteq	sl, r0, lsl #2
    14f8:	00000061 	andeq	r0, r0, r1, rrx
    14fc:	00609102 	rsbeq	r9, r0, r2, lsl #2
    1500:	0008fe0d 	andeq	pc, r8, sp, lsl #28
    1504:	012a0100 	teqeq	sl, r0, lsl #2
    1508:	00002101 	andeq	r2, r0, r1, lsl #2
    150c:	009d8c00 	addseq	r8, sp, r0, lsl #24
    1510:	009e6470 	addseq	r6, lr, r0, ror r4
    1514:	00056070 	andeq	r6, r5, r0, ror r0
    1518:	0002bf00 	andeq	fp, r2, r0, lsl #30
    151c:	09290e00 	stmdbeq	r9!, {r9, sl, fp}
    1520:	2a010000 	bcs	41528 <PHY_OFFSET-0x6ffc6ad8>
    1524:	00002101 	andeq	r2, r0, r1, lsl #2
    1528:	6c910200 	lfmvs	f0, 4, [r1], {0}	; (ldcvs 2, cr0, [r1], {0})
    152c:	00093b0e 	andeq	r3, r9, lr, lsl #22
    1530:	012a0100 	teqeq	sl, r0, lsl #2
    1534:	00000021 	andeq	r0, r0, r1, lsr #32
    1538:	0f689102 	svceq	0x00689102
    153c:	00636361 	rsbeq	r6, r3, r1, ror #6
    1540:	21012a01 	tstcs	r1, r1, lsl #20
    1544:	02000000 	andeq	r0, r0, #0
    1548:	72106491 	andsvc	r6, r0, #-1862270976	; 0x91000000
    154c:	01007365 	tsteq	r0, r5, ror #6
    1550:	0021012c 	eoreq	r0, r1, ip, lsr #2
    1554:	91020000 	tstls	r2, r0
    1558:	6d741074 	ldclvs	0, cr1, [r4, #-464]!	; 0xfffffe30
    155c:	2c010070 	stccs	0, cr0, [r1], {112}	; 0x70
    1560:	00002101 	andeq	r2, r0, r1, lsl #2
    1564:	70910200 	addsvc	r0, r1, r0, lsl #4
    1568:	8f011100 	svchi	0x00011100
    156c:	01000008 	tsteq	r0, r8
    1570:	21010149 	tstcs	r1, r9, asr #2
    1574:	64000000 	strvs	r0, [r0]
    1578:	e870009e 	ldmda	r0!, {r1, r2, r3, r4, r7}^
    157c:	8c70009e 	ldclhi	0, cr0, [r0], #-632	; 0xfffffd88
    1580:	fc000005 	stc2	0, cr0, [r0], {5}
    1584:	0e000002 	cdpeq	0, 0, cr0, cr0, cr2, {0}
    1588:	00000929 	andeq	r0, r0, r9, lsr #18
    158c:	21014901 	tstcs	r1, r1, lsl #18
    1590:	02000000 	andeq	r0, r0, #0
    1594:	3b0e7491 	blcc	39e7e0 <PHY_OFFSET-0x6fc69820>
    1598:	01000009 	tsteq	r0, r9
    159c:	00210149 	eoreq	r0, r1, r9, asr #2
    15a0:	91020000 	tstls	r2, r0
    15a4:	01120070 	tsteq	r2, r0, ror r0
    15a8:	000008ac 	andeq	r0, r0, ip, lsr #17
    15ac:	01015801 	tsteq	r1, r1, lsl #16
    15b0:	00000021 	andeq	r0, r0, r1, lsr #32
    15b4:	70009ee8 	andvc	r9, r0, r8, ror #29
    15b8:	70009f6c 	andvc	r9, r0, ip, ror #30
    15bc:	000005b8 	undefined instruction 0x000005b8
    15c0:	0009290e 	andeq	r2, r9, lr, lsl #18
    15c4:	01580100 	cmpeq	r8, r0, lsl #2
    15c8:	00000021 	andeq	r0, r0, r1, lsr #32
    15cc:	0e749102 	expeqs	f1, f2
    15d0:	0000093b 	andeq	r0, r0, fp, lsr r9
    15d4:	21015801 	tstcs	r1, r1, lsl #16
    15d8:	02000000 	andeq	r0, r0, #0
    15dc:	00007091 	muleq	r0, r1, r0

Disassembly of section .debug_abbrev:

00000000 <.debug_abbrev>:
   0:	10001101 	andne	r1, r0, r1, lsl #2
   4:	12011106 	andne	r1, r1, #-2147483647	; 0x80000001
   8:	1b080301 	blne	200c14 <PHY_OFFSET-0x6fe073ec>
   c:	13082508 	movwne	r2, #34056	; 0x8508
  10:	00000005 	andeq	r0, r0, r5
  14:	25011101 	strcs	r1, [r1, #-257]	; 0x101
  18:	030b130e 	movweq	r1, #45838	; 0xb30e
  1c:	1201110e 	andne	r1, r1, #-2147483645	; 0x80000003
  20:	00061001 	andeq	r1, r6, r1
  24:	00160200 	andseq	r0, r6, r0, lsl #4
  28:	0b3a0e03 	bleq	e8383c <PHY_OFFSET-0x6f1847c4>
  2c:	13490b3b 	movtne	r0, #39739	; 0x9b3b
  30:	24030000 	strcs	r0, [r3]
  34:	3e0b0b00 	vmlacc.f64	d0, d11, d0
  38:	000e030b 	andeq	r0, lr, fp, lsl #6
  3c:	00240400 	eoreq	r0, r4, r0, lsl #8
  40:	0b3e0b0b 	bleq	f82c74 <PHY_OFFSET-0x6f08538c>
  44:	00000803 	andeq	r0, r0, r3, lsl #16
  48:	03010405 	movweq	r0, #5125	; 0x1405
  4c:	3a0b0b0e 	bcc	2c2c8c <PHY_OFFSET-0x6fd45374>
  50:	010b3b0b 	tsteq	fp, fp, lsl #22
  54:	06000013 	undefined instruction 0x06000013
  58:	0e030028 	cdpeq	0, 0, cr0, cr3, cr8, {1}
  5c:	00000d1c 	andeq	r0, r0, ip, lsl sp
  60:	0b011307 	bleq	44c84 <PHY_OFFSET-0x6ffc337c>
  64:	3b0b3a0b 	blcc	2ce898 <PHY_OFFSET-0x6fd39768>
  68:	0013010b 	andseq	r0, r3, fp, lsl #2
  6c:	000d0800 	andeq	r0, sp, r0, lsl #16
  70:	0b3a0e03 	bleq	e83884 <PHY_OFFSET-0x6f18477c>
  74:	13490b3b 	movtne	r0, #39739	; 0x9b3b
  78:	00000a38 	andeq	r0, r0, r8, lsr sl
  7c:	49010109 	stmdbmi	r1, {r0, r3, r8}
  80:	00130113 	andseq	r0, r3, r3, lsl r1
  84:	00210a00 	eoreq	r0, r1, r0, lsl #20
  88:	0b2f1349 	bleq	bc4db4 <PHY_OFFSET-0x6f44324c>
  8c:	0f0b0000 	svceq	0x000b0000
  90:	000b0b00 	andeq	r0, fp, r0, lsl #22
  94:	000d0c00 	andeq	r0, sp, r0, lsl #24
  98:	0b3a0803 	bleq	e820ac <PHY_OFFSET-0x6f185f54>
  9c:	13490b3b 	movtne	r0, #39739	; 0x9b3b
  a0:	00000a38 	andeq	r0, r0, r8, lsr sl
  a4:	0b01170d 	bleq	45ce0 <PHY_OFFSET-0x6ffc2320>
  a8:	3b0b3a0b 	blcc	2ce8dc <PHY_OFFSET-0x6fd39724>
  ac:	0013010b 	andseq	r0, r3, fp, lsl #2
  b0:	000d0e00 	andeq	r0, sp, r0, lsl #28
  b4:	0b3a0e03 	bleq	e838c8 <PHY_OFFSET-0x6f184738>
  b8:	13490b3b 	movtne	r0, #39739	; 0x9b3b
  bc:	130f0000 	movwne	r0, #61440	; 0xf000
  c0:	0b0e0301 	bleq	380ccc <PHY_OFFSET-0x6fc87334>
  c4:	3b0b3a0b 	blcc	2ce8f8 <PHY_OFFSET-0x6fd39708>
  c8:	0013010b 	andseq	r0, r3, fp, lsl #2
  cc:	012e1000 	teqeq	lr, r0
  d0:	0e030c3f 	mcreq	12, 0, r0, cr3, cr15, {1}
  d4:	0b3b0b3a 	bleq	ec2dc4 <PHY_OFFSET-0x6f14523c>
  d8:	01120111 	tsteq	r2, r1, lsl r1
  dc:	13010640 	movwne	r0, #5696	; 0x1640
  e0:	05110000 	ldreq	r0, [r1]
  e4:	3a0e0300 	bcc	380cec <PHY_OFFSET-0x6fc87314>
  e8:	490b3b0b 	stmdbmi	fp, {r0, r1, r3, r8, r9, fp, ip, sp}
  ec:	000a0213 	andeq	r0, sl, r3, lsl r2
  f0:	00341200 	eorseq	r1, r4, r0, lsl #4
  f4:	0b3a0803 	bleq	e82108 <PHY_OFFSET-0x6f185ef8>
  f8:	13490b3b 	movtne	r0, #39739	; 0x9b3b
  fc:	00000a02 	andeq	r0, r0, r2, lsl #20
 100:	49003513 	stmdbmi	r0, {r0, r1, r4, r8, sl, ip, sp}
 104:	14000013 	strne	r0, [r0], #-19
 108:	0c3f012e 	ldfeqs	f0, [pc], #-184	; 0xffffff48
 10c:	0b3a0e03 	bleq	e83920 <PHY_OFFSET-0x6f1846e0>
 110:	0c270b3b 	stceq	11, cr0, [r7], #-236	; 0xffffff14
 114:	01120111 	tsteq	r2, r1, lsl r1
 118:	13010640 	movwne	r0, #5696	; 0x1640
 11c:	2e150000 	cdpcs	0, 1, cr0, cr5, cr0, {0}
 120:	030c3f01 	movweq	r3, #52993	; 0xcf01
 124:	3b0b3a0e 	blcc	2ce964 <PHY_OFFSET-0x6fd3969c>
 128:	3c13490b 	ldccc	9, cr4, [r3], {11}
 12c:	1600000c 	strne	r0, [r0], -ip
 130:	00000018 	andeq	r0, r0, r8, lsl r0
 134:	0b000f17 	bleq	3d98 <PHY_OFFSET-0x70004268>
 138:	0013490b 	andseq	r4, r3, fp, lsl #18
 13c:	012e1800 	teqeq	lr, r0, lsl #16
 140:	0e030c3f 	mcreq	12, 0, r0, cr3, cr15, {1}
 144:	0b3b0b3a 	bleq	ec2e34 <PHY_OFFSET-0x6f1451cc>
 148:	01111349 	tsteq	r1, r9, asr #6
 14c:	06400112 	undefined instruction 0x06400112
 150:	00001301 	andeq	r1, r0, r1, lsl #6
 154:	03003419 	movweq	r3, #1049	; 0x419
 158:	3b0b3a0e 	blcc	2ce998 <PHY_OFFSET-0x6fd39668>
 15c:	0213490b 	andseq	r4, r3, #180224	; 0x2c000
 160:	1a00000a 	bne	190 <PHY_OFFSET-0x70007e70>
 164:	0c3f012e 	ldfeqs	f0, [pc], #-184	; 0xffffff48
 168:	0b3a0e03 	bleq	e8397c <PHY_OFFSET-0x6f184684>
 16c:	13490b3b 	movtne	r0, #39739	; 0x9b3b
 170:	13010c3c 	movwne	r0, #7228	; 0x1c3c
 174:	0b1b0000 	bleq	6c017c <PHY_OFFSET-0x6f947e84>
 178:	12011101 	andne	r1, r1, #1073741824	; 0x40000000
 17c:	1c000001 	stcne	0, cr0, [r0], {1}
 180:	0e030034 	mcreq	0, 0, r0, cr3, cr4, {1}
 184:	0b3b0b3a 	bleq	ec2e74 <PHY_OFFSET-0x6f14518c>
 188:	0c3f1349 	ldceq	3, cr1, [pc], #-292	; 0xfffffedc
 18c:	00000c3c 	andeq	r0, r0, ip, lsr ip
 190:	4900211d 	stmdbmi	r0, {r0, r2, r3, r4, r8, sp}
 194:	00052f13 	andeq	r2, r5, r3, lsl pc
 198:	00341e00 	eorseq	r1, r4, r0, lsl #28
 19c:	0b3a0e03 	bleq	e839b0 <PHY_OFFSET-0x6f184650>
 1a0:	13490b3b 	movtne	r0, #39739	; 0x9b3b
 1a4:	0a020c3f 	beq	832a8 <PHY_OFFSET-0x6ff84d58>
 1a8:	01000000 	tsteq	r0, r0
 1ac:	0e250111 	mcreq	1, 1, r0, cr5, cr1, {0}
 1b0:	0e030b13 	vmoveq.32	d3[0], r0
 1b4:	01120111 	tsteq	r2, r1, lsl r1
 1b8:	00000610 	andeq	r0, r0, r0, lsl r6
 1bc:	3f012e02 	svccc	0x00012e02
 1c0:	3a0e030c 	bcc	380df8 <PHY_OFFSET-0x6fc87208>
 1c4:	270b3b0b 	strcs	r3, [fp, -fp, lsl #22]
 1c8:	1113490c 	tstne	r3, ip, lsl #18
 1cc:	40011201 	andmi	r1, r1, r1, lsl #4
 1d0:	00130106 	andseq	r0, r3, r6, lsl #2
 1d4:	00050300 	andeq	r0, r5, r0, lsl #6
 1d8:	0b3a0e03 	bleq	e839ec <PHY_OFFSET-0x6f184614>
 1dc:	13490b3b 	movtne	r0, #39739	; 0x9b3b
 1e0:	00000a02 	andeq	r0, r0, r2, lsl #20
 1e4:	03003404 	movweq	r3, #1028	; 0x404
 1e8:	3b0b3a0e 	blcc	2cea28 <PHY_OFFSET-0x6fd395d8>
 1ec:	0213490b 	andseq	r4, r3, #180224	; 0x2c000
 1f0:	0500000a 	streq	r0, [r0, #-10]
 1f4:	0b0b0024 	bleq	2c028c <PHY_OFFSET-0x6fd47d74>
 1f8:	0e030b3e 	vmoveq.16	d3[0], r0
 1fc:	0f060000 	svceq	0x00060000
 200:	490b0b00 	stmdbmi	fp, {r8, r9, fp}
 204:	07000013 	smladeq	r0, r3, r0, r0
 208:	13490035 	movtne	r0, #36917	; 0x9035
 20c:	2e080000 	cdpcs	0, 0, cr0, cr8, cr0, {0}
 210:	030c3f01 	movweq	r3, #52993	; 0xcf01
 214:	3b0b3a0e 	blcc	2cea54 <PHY_OFFSET-0x6fd395ac>
 218:	110c270b 	tstne	ip, fp, lsl #14
 21c:	40011201 	andmi	r1, r1, r1, lsl #4
 220:	00130106 	andseq	r0, r3, r6, lsl #2
 224:	012e0900 	teqeq	lr, r0, lsl #18
 228:	0b3a0e03 	bleq	e83a3c <PHY_OFFSET-0x6f1845c4>
 22c:	0c270b3b 	stceq	11, cr0, [r7], #-236	; 0xffffff14
 230:	01111349 	tsteq	r1, r9, asr #6
 234:	06400112 	undefined instruction 0x06400112
 238:	00001301 	andeq	r1, r0, r1, lsl #6
 23c:	0300050a 	movweq	r0, #1290	; 0x50a
 240:	3b0b3a08 	blcc	2cea68 <PHY_OFFSET-0x6fd39598>
 244:	0213490b 	andseq	r4, r3, #180224	; 0x2c000
 248:	0b00000a 	bleq	278 <PHY_OFFSET-0x70007d88>
 24c:	0b0b0024 	bleq	2c02e4 <PHY_OFFSET-0x6fd47d1c>
 250:	08030b3e 	stmdaeq	r3, {r1, r2, r3, r4, r5, r8, r9, fp}
 254:	2e0c0000 	cdpcs	0, 0, cr0, cr12, cr0, {0}
 258:	030c3f01 	movweq	r3, #52993	; 0xcf01
 25c:	3b0b3a0e 	blcc	2cea9c <PHY_OFFSET-0x6fd39564>
 260:	110c270b 	tstne	ip, fp, lsl #14
 264:	40011201 	andmi	r1, r1, r1, lsl #4
 268:	00000006 	andeq	r0, r0, r6
 26c:	25011101 	strcs	r1, [r1, #-257]	; 0x101
 270:	030b130e 	movweq	r1, #45838	; 0xb30e
 274:	1201110e 	andne	r1, r1, #-2147483645	; 0x80000003
 278:	00061001 	andeq	r1, r6, r1
 27c:	00160200 	andseq	r0, r6, r0, lsl #4
 280:	0b3a0e03 	bleq	e83a94 <PHY_OFFSET-0x6f18456c>
 284:	13490b3b 	movtne	r0, #39739	; 0x9b3b
 288:	24030000 	strcs	r0, [r3]
 28c:	3e0b0b00 	vmlacc.f64	d0, d11, d0
 290:	000e030b 	andeq	r0, lr, fp, lsl #6
 294:	00240400 	eoreq	r0, r4, r0, lsl #8
 298:	0b3e0b0b 	bleq	f82ecc <PHY_OFFSET-0x6f085134>
 29c:	00000803 	andeq	r0, r0, r3, lsl #16
 2a0:	0b000f05 	bleq	3ebc <PHY_OFFSET-0x70004144>
 2a4:	0600000b 	streq	r0, [r0], -fp
 2a8:	0c3f012e 	ldfeqs	f0, [pc], #-184	; 0xffffff48
 2ac:	0b3a0e03 	bleq	e83ac0 <PHY_OFFSET-0x6f184540>
 2b0:	0c270b3b 	stceq	11, cr0, [r7], #-236	; 0xffffff14
 2b4:	01120111 	tsteq	r2, r1, lsl r1
 2b8:	13010640 	movwne	r0, #5696	; 0x1640
 2bc:	34070000 	strcc	r0, [r7]
 2c0:	3a080300 	bcc	200ec8 <PHY_OFFSET-0x6fe07138>
 2c4:	490b3b0b 	stmdbmi	fp, {r0, r1, r3, r8, r9, fp, ip, sp}
 2c8:	000a0213 	andeq	r0, sl, r3, lsl r2
 2cc:	00340800 	eorseq	r0, r4, r0, lsl #16
 2d0:	0b3a0803 	bleq	e822e4 <PHY_OFFSET-0x6f185d1c>
 2d4:	13490b3b 	movtne	r0, #39739	; 0x9b3b
 2d8:	2e090000 	cdpcs	0, 0, cr0, cr9, cr0, {0}
 2dc:	030c3f01 	movweq	r3, #52993	; 0xcf01
 2e0:	3b0b3a0e 	blcc	2ceb20 <PHY_OFFSET-0x6fd394e0>
 2e4:	490c270b 	stmdbmi	ip, {r0, r1, r3, r8, r9, sl, sp}
 2e8:	12011113 	andne	r1, r1, #-1073741820	; 0xc0000004
 2ec:	01064001 	tsteq	r6, r1
 2f0:	0a000013 	beq	344 <PHY_OFFSET-0x70007cbc>
 2f4:	0e030005 	cdpeq	0, 0, cr0, cr3, cr5, {0}
 2f8:	0b3b0b3a 	bleq	ec2fe8 <PHY_OFFSET-0x6f145018>
 2fc:	0a021349 	beq	85028 <PHY_OFFSET-0x6ff82fd8>
 300:	050b0000 	streq	r0, [fp]
 304:	3a080300 	bcc	200f0c <PHY_OFFSET-0x6fe070f4>
 308:	490b3b0b 	stmdbmi	fp, {r0, r1, r3, r8, r9, fp, ip, sp}
 30c:	000a0213 	andeq	r0, sl, r3, lsl r2
 310:	00340c00 	eorseq	r0, r4, r0, lsl #24
 314:	0b3a0e03 	bleq	e83b28 <PHY_OFFSET-0x6f1844d8>
 318:	13490b3b 	movtne	r0, #39739	; 0x9b3b
 31c:	00000a02 	andeq	r0, r0, r2, lsl #20
 320:	11010b0d 	tstne	r1, sp, lsl #22
 324:	00011201 	andeq	r1, r1, r1, lsl #4
 328:	012e0e00 	teqeq	lr, r0, lsl #28
 32c:	0e030c3f 	mcreq	12, 0, r0, cr3, cr15, {1}
 330:	0b3b0b3a 	bleq	ec3020 <PHY_OFFSET-0x6f144fe0>
 334:	0c3c1349 	ldceq	3, cr1, [ip], #-292	; 0xfffffedc
 338:	180f0000 	stmdane	pc, {}
 33c:	10000000 	andne	r0, r0, r0
 340:	0b0b000f 	bleq	2c0384 <PHY_OFFSET-0x6fd47c7c>
 344:	00001349 	andeq	r1, r0, r9, asr #6
 348:	49002611 	stmdbmi	r0, {r0, r4, r9, sl, sp}
 34c:	12000013 	andne	r0, r0, #19
 350:	13490101 	movtne	r0, #37121	; 0x9101
 354:	00001301 	andeq	r1, r0, r1, lsl #6
 358:	49002113 	stmdbmi	r0, {r0, r1, r4, r8, sp}
 35c:	000b2f13 	andeq	r2, fp, r3, lsl pc
 360:	00211400 	eoreq	r1, r1, r0, lsl #8
 364:	052f1349 	streq	r1, [pc, #-841]!	; 23 <PHY_OFFSET-0x70007fdd>
 368:	34150000 	ldrcc	r0, [r5]
 36c:	3a0e0300 	bcc	380f74 <PHY_OFFSET-0x6fc8708c>
 370:	490b3b0b 	stmdbmi	fp, {r0, r1, r3, r8, r9, fp, ip, sp}
 374:	3c0c3f13 	stccc	15, cr3, [ip], {19}
 378:	1600000c 	strne	r0, [r0], -ip
 37c:	0e030034 	mcreq	0, 0, r0, cr3, cr4, {1}
 380:	0b3b0b3a 	bleq	ec3070 <PHY_OFFSET-0x6f144f90>
 384:	0c3f1349 	ldceq	3, cr1, [pc], #-292	; 0xfffffedc
 388:	00000a02 	andeq	r0, r0, r2, lsl #20
 38c:	01110100 	tsteq	r1, r0, lsl #2
 390:	0b130e25 	bleq	4c3c2c <PHY_OFFSET-0x6fb443d4>
 394:	01110e03 	tsteq	r1, r3, lsl #28
 398:	06100112 	undefined instruction 0x06100112
 39c:	16020000 	strne	r0, [r2], -r0
 3a0:	3a0e0300 	bcc	380fa8 <PHY_OFFSET-0x6fc87058>
 3a4:	490b3b0b 	stmdbmi	fp, {r0, r1, r3, r8, r9, fp, ip, sp}
 3a8:	03000013 	movweq	r0, #19
 3ac:	0b0b0024 	bleq	2c0444 <PHY_OFFSET-0x6fd47bbc>
 3b0:	0e030b3e 	vmoveq.16	d3[0], r0
 3b4:	24040000 	strcs	r0, [r4]
 3b8:	3e0b0b00 	vmlacc.f64	d0, d11, d0
 3bc:	0008030b 	andeq	r0, r8, fp, lsl #6
 3c0:	01040500 	tsteq	r4, r0, lsl #10
 3c4:	0b0b0e03 	bleq	2c3bd8 <PHY_OFFSET-0x6fd44428>
 3c8:	0b3b0b3a 	bleq	ec30b8 <PHY_OFFSET-0x6f144f48>
 3cc:	00001301 	andeq	r1, r0, r1, lsl #6
 3d0:	03002806 	movweq	r2, #2054	; 0x806
 3d4:	000d1c0e 	andeq	r1, sp, lr, lsl #24
 3d8:	01130700 	tsteq	r3, r0, lsl #14
 3dc:	0b3a0b0b 	bleq	e83010 <PHY_OFFSET-0x6f184ff0>
 3e0:	13010b3b 	movwne	r0, #6971	; 0x1b3b
 3e4:	0d080000 	stceq	0, cr0, [r8]
 3e8:	3a0e0300 	bcc	380ff0 <PHY_OFFSET-0x6fc87010>
 3ec:	490b3b0b 	stmdbmi	fp, {r0, r1, r3, r8, r9, fp, ip, sp}
 3f0:	000a3813 	andeq	r3, sl, r3, lsl r8
 3f4:	01010900 	tsteq	r1, r0, lsl #18
 3f8:	13011349 	movwne	r1, #4937	; 0x1349
 3fc:	210a0000 	tstcs	sl, r0
 400:	2f134900 	svccs	0x00134900
 404:	0b00000b 	bleq	438 <PHY_OFFSET-0x70007bc8>
 408:	0b0b000f 	bleq	2c044c <PHY_OFFSET-0x6fd47bb4>
 40c:	0d0c0000 	stceq	0, cr0, [ip]
 410:	3a080300 	bcc	201018 <PHY_OFFSET-0x6fe06fe8>
 414:	490b3b0b 	stmdbmi	fp, {r0, r1, r3, r8, r9, fp, ip, sp}
 418:	000a3813 	andeq	r3, sl, r3, lsl r8
 41c:	01170d00 	tsteq	r7, r0, lsl #26
 420:	0b3a0b0b 	bleq	e83054 <PHY_OFFSET-0x6f184fac>
 424:	13010b3b 	movwne	r0, #6971	; 0x1b3b
 428:	0d0e0000 	stceq	0, cr0, [lr]
 42c:	3a0e0300 	bcc	381034 <PHY_OFFSET-0x6fc86fcc>
 430:	490b3b0b 	stmdbmi	fp, {r0, r1, r3, r8, r9, fp, ip, sp}
 434:	0f000013 	svceq	0x00000013
 438:	0e030113 	mcreq	1, 0, r0, cr3, cr3, {0}
 43c:	0b3a0b0b 	bleq	e83070 <PHY_OFFSET-0x6f184f90>
 440:	13010b3b 	movwne	r0, #6971	; 0x1b3b
 444:	2e100000 	cdpcs	0, 1, cr0, cr0, cr0, {0}
 448:	3a0e0301 	bcc	381054 <PHY_OFFSET-0x6fc86fac>
 44c:	270b3b0b 	strcs	r3, [fp, -fp, lsl #22]
 450:	1113490c 	tstne	r3, ip, lsl #18
 454:	40011201 	andmi	r1, r1, r1, lsl #4
 458:	00130106 	andseq	r0, r3, r6, lsl #2
 45c:	00051100 	andeq	r1, r5, r0, lsl #2
 460:	0b3a0e03 	bleq	e83c74 <PHY_OFFSET-0x6f18438c>
 464:	13490b3b 	movtne	r0, #39739	; 0x9b3b
 468:	00000a02 	andeq	r0, r0, r2, lsl #20
 46c:	03003412 	movweq	r3, #1042	; 0x412
 470:	3b0b3a08 	blcc	2cec98 <PHY_OFFSET-0x6fd39368>
 474:	0213490b 	andseq	r4, r3, #180224	; 0x2c000
 478:	1300000a 	movwne	r0, #10
 47c:	0b0b000f 	bleq	2c04c0 <PHY_OFFSET-0x6fd47b40>
 480:	00001349 	andeq	r1, r0, r9, asr #6
 484:	49003514 	stmdbmi	r0, {r2, r4, r8, sl, ip, sp}
 488:	15000013 	strne	r0, [r0, #-19]
 48c:	0c3f012e 	ldfeqs	f0, [pc], #-184	; 0xffffff48
 490:	0b3a0e03 	bleq	e83ca4 <PHY_OFFSET-0x6f18435c>
 494:	0c270b3b 	stceq	11, cr0, [r7], #-236	; 0xffffff14
 498:	01111349 	tsteq	r1, r9, asr #6
 49c:	06400112 	undefined instruction 0x06400112
 4a0:	00001301 	andeq	r1, r0, r1, lsl #6
 4a4:	03003416 	movweq	r3, #1046	; 0x416
 4a8:	3b0b3a0e 	blcc	2cece8 <PHY_OFFSET-0x6fd39318>
 4ac:	0213490b 	andseq	r4, r3, #180224	; 0x2c000
 4b0:	0000000a 	andeq	r0, r0, sl
 4b4:	25011101 	strcs	r1, [r1, #-257]	; 0x101
 4b8:	030b130e 	movweq	r1, #45838	; 0xb30e
 4bc:	1201110e 	andne	r1, r1, #-2147483645	; 0x80000003
 4c0:	00061001 	andeq	r1, r6, r1
 4c4:	01010200 	tsteq	r1, r0, lsl #4
 4c8:	13011349 	movwne	r1, #4937	; 0x1349
 4cc:	21030000 	tstcs	r3, r0
 4d0:	2f134900 	svccs	0x00134900
 4d4:	0400000b 	streq	r0, [r0], #-11
 4d8:	0b0b0024 	bleq	2c0570 <PHY_OFFSET-0x6fd47a90>
 4dc:	0e030b3e 	vmoveq.16	d3[0], r0
 4e0:	34050000 	strcc	r0, [r5]
 4e4:	3a0e0300 	bcc	3810ec <PHY_OFFSET-0x6fc86f14>
 4e8:	490b3b0b 	stmdbmi	fp, {r0, r1, r3, r8, r9, fp, ip, sp}
 4ec:	3c0c3f13 	stccc	15, cr3, [ip], {19}
 4f0:	0600000c 	streq	r0, [r0], -ip
 4f4:	0e030034 	mcreq	0, 0, r0, cr3, cr4, {1}
 4f8:	0b3b0b3a 	bleq	ec31e8 <PHY_OFFSET-0x6f144e18>
 4fc:	0c3f1349 	ldceq	3, cr1, [pc], #-292	; 0xfffffedc
 500:	00000a02 	andeq	r0, r0, r2, lsl #20
 504:	01110100 	tsteq	r1, r0, lsl #2
 508:	0b130e25 	bleq	4c3da4 <PHY_OFFSET-0x6fb4425c>
 50c:	01110e03 	tsteq	r1, r3, lsl #28
 510:	06100112 	undefined instruction 0x06100112
 514:	16020000 	strne	r0, [r2], -r0
 518:	3a0e0300 	bcc	381120 <PHY_OFFSET-0x6fc86ee0>
 51c:	490b3b0b 	stmdbmi	fp, {r0, r1, r3, r8, r9, fp, ip, sp}
 520:	03000013 	movweq	r0, #19
 524:	0e030113 	mcreq	1, 0, r0, cr3, cr3, {0}
 528:	13010b0b 	movwne	r0, #6923	; 0x1b0b
 52c:	0d040000 	stceq	0, cr0, [r4]
 530:	490e0300 	stmdbmi	lr, {r8, r9}
 534:	340a3813 	strcc	r3, [sl], #-2067	; 0x813
 538:	0500000c 	streq	r0, [r0, #-12]
 53c:	0b0b000f 	bleq	2c0580 <PHY_OFFSET-0x6fd47a80>
 540:	24060000 	strcs	r0, [r6]
 544:	3e0b0b00 	vmlacc.f64	d0, d11, d0
 548:	000e030b 	andeq	r0, lr, fp, lsl #6
 54c:	00240700 	eoreq	r0, r4, r0, lsl #14
 550:	0b3e0b0b 	bleq	f83184 <PHY_OFFSET-0x6f084e7c>
 554:	00000803 	andeq	r0, r0, r3, lsl #16
 558:	3f012e08 	svccc	0x00012e08
 55c:	3a0e030c 	bcc	381194 <PHY_OFFSET-0x6fc86e6c>
 560:	270b3b0b 	strcs	r3, [fp, -fp, lsl #22]
 564:	1113490c 	tstne	r3, ip, lsl #18
 568:	40011201 	andmi	r1, r1, r1, lsl #4
 56c:	00130106 	andseq	r0, r3, r6, lsl #2
 570:	00050900 	andeq	r0, r5, r0, lsl #18
 574:	0b3a0e03 	bleq	e83d88 <PHY_OFFSET-0x6f184278>
 578:	13490b3b 	movtne	r0, #39739	; 0x9b3b
 57c:	00000a02 	andeq	r0, r0, r2, lsl #20
 580:	0300340a 	movweq	r3, #1034	; 0x40a
 584:	3b0b3a08 	blcc	2cedac <PHY_OFFSET-0x6fd39254>
 588:	0213490b 	andseq	r4, r3, #180224	; 0x2c000
 58c:	0b00000a 	bleq	5bc <PHY_OFFSET-0x70007a44>
 590:	0b0b000f 	bleq	2c05d4 <PHY_OFFSET-0x6fd47a2c>
 594:	00001349 	andeq	r1, r0, r9, asr #6
 598:	0300050c 	movweq	r0, #1292	; 0x50c
 59c:	3b0b3a08 	blcc	2cedc4 <PHY_OFFSET-0x6fd3923c>
 5a0:	0213490b 	andseq	r4, r3, #180224	; 0x2c000
 5a4:	0d00000a 	stceq	0, cr0, [r0, #-40]	; 0xffffffd8
 5a8:	00000018 	andeq	r0, r0, r8, lsl r0
 5ac:	0300340e 	movweq	r3, #1038	; 0x40e
 5b0:	3b0b3a0e 	blcc	2cedf0 <PHY_OFFSET-0x6fd39210>
 5b4:	0213490b 	andseq	r4, r3, #180224	; 0x2c000
 5b8:	0f00000a 	svceq	0x0000000a
 5bc:	0c3f012e 	ldfeqs	f0, [pc], #-184	; 0xffffff48
 5c0:	0b3a0e03 	bleq	e83dd4 <PHY_OFFSET-0x6f18422c>
 5c4:	13490b3b 	movtne	r0, #39739	; 0x9b3b
 5c8:	13010c3c 	movwne	r0, #7228	; 0x1c3c
 5cc:	0b100000 	bleq	4005d4 <PHY_OFFSET-0x6fc07a2c>
 5d0:	12011101 	andne	r1, r1, #1073741824	; 0x40000000
 5d4:	11000001 	tstne	r0, r1
 5d8:	0c3f012e 	ldfeqs	f0, [pc], #-184	; 0xffffff48
 5dc:	0b3a0e03 	bleq	e83df0 <PHY_OFFSET-0x6f184210>
 5e0:	13490b3b 	movtne	r0, #39739	; 0x9b3b
 5e4:	00000c3c 	andeq	r0, r0, ip, lsr ip
 5e8:	49002612 	stmdbmi	r0, {r1, r4, r9, sl, sp}
 5ec:	13000013 	movwne	r0, #19
 5f0:	13490101 	movtne	r0, #37121	; 0x9101
 5f4:	00001301 	andeq	r1, r0, r1, lsl #6
 5f8:	49002114 	stmdbmi	r0, {r2, r4, r8, sp}
 5fc:	000b2f13 	andeq	r2, fp, r3, lsl pc
 600:	010b1500 	tsteq	fp, r0, lsl #10
 604:	01120111 	tsteq	r2, r1, lsl r1
 608:	00001301 	andeq	r1, r0, r1, lsl #6
 60c:	00002116 	andeq	r2, r0, r6, lsl r1
 610:	00341700 	eorseq	r1, r4, r0, lsl #14
 614:	0b3a0e03 	bleq	e83e28 <PHY_OFFSET-0x6f1841d8>
 618:	13490b3b 	movtne	r0, #39739	; 0x9b3b
 61c:	0c3c0c3f 	ldceq	12, cr0, [ip], #-252	; 0xffffff04
 620:	01000000 	tsteq	r0, r0
 624:	0e250111 	mcreq	1, 1, r0, cr5, cr1, {0}
 628:	0e030b13 	vmoveq.32	d3[0], r0
 62c:	01120111 	tsteq	r2, r1, lsl r1
 630:	00000610 	andeq	r0, r0, r0, lsl r6
 634:	03001602 	movweq	r1, #1538	; 0x602
 638:	3b0b3a0e 	blcc	2cee78 <PHY_OFFSET-0x6fd39188>
 63c:	0013490b 	andseq	r4, r3, fp, lsl #18
 640:	00240300 	eoreq	r0, r4, r0, lsl #6
 644:	0b3e0b0b 	bleq	f83278 <PHY_OFFSET-0x6f084d88>
 648:	00000e03 	andeq	r0, r0, r3, lsl #28
 64c:	0b002404 	bleq	9664 <PHY_OFFSET-0x6fffe99c>
 650:	030b3e0b 	movweq	r3, #48651	; 0xbe0b
 654:	05000008 	streq	r0, [r0, #-8]
 658:	0b0b0113 	bleq	2c0aac <PHY_OFFSET-0x6fd47554>
 65c:	0b3b0b3a 	bleq	ec334c <PHY_OFFSET-0x6f144cb4>
 660:	00001301 	andeq	r1, r0, r1, lsl #6
 664:	03000d06 	movweq	r0, #3334	; 0xd06
 668:	3b0b3a0e 	blcc	2ceea8 <PHY_OFFSET-0x6fd39158>
 66c:	3813490b 	ldmdacc	r3, {r0, r1, r3, r8, fp, lr}
 670:	0700000a 	streq	r0, [r0, -sl]
 674:	0803000d 	stmdaeq	r3, {r0, r2, r3}
 678:	0b3b0b3a 	bleq	ec3368 <PHY_OFFSET-0x6f144c98>
 67c:	0a381349 	beq	e053a8 <PHY_OFFSET-0x6f202c58>
 680:	2e080000 	cdpcs	0, 0, cr0, cr8, cr0, {0}
 684:	3a0e0301 	bcc	381290 <PHY_OFFSET-0x6fc86d70>
 688:	270b3b0b 	strcs	r3, [fp, -fp, lsl #22]
 68c:	1113490c 	tstne	r3, ip, lsl #18
 690:	40011201 	andmi	r1, r1, r1, lsl #4
 694:	00130106 	andseq	r0, r3, r6, lsl #2
 698:	00050900 	andeq	r0, r5, r0, lsl #18
 69c:	0b3a0803 	bleq	e826b0 <PHY_OFFSET-0x6f185950>
 6a0:	13490b3b 	movtne	r0, #39739	; 0x9b3b
 6a4:	00000a02 	andeq	r0, r0, r2, lsl #20
 6a8:	0300340a 	movweq	r3, #1034	; 0x40a
 6ac:	3b0b3a08 	blcc	2ceed4 <PHY_OFFSET-0x6fd3912c>
 6b0:	0213490b 	andseq	r4, r3, #180224	; 0x2c000
 6b4:	0b00000a 	bleq	6e4 <PHY_OFFSET-0x7000791c>
 6b8:	0c3f012e 	ldfeqs	f0, [pc], #-184	; 0xffffff48
 6bc:	0b3a0e03 	bleq	e83ed0 <PHY_OFFSET-0x6f184130>
 6c0:	0c270b3b 	stceq	11, cr0, [r7], #-236	; 0xffffff14
 6c4:	01111349 	tsteq	r1, r9, asr #6
 6c8:	06400112 	undefined instruction 0x06400112
 6cc:	00001301 	andeq	r1, r0, r1, lsl #6
 6d0:	0300050c 	movweq	r0, #1292	; 0x50c
 6d4:	3b0b3a0e 	blcc	2cef14 <PHY_OFFSET-0x6fd390ec>
 6d8:	0213490b 	andseq	r4, r3, #180224	; 0x2c000
 6dc:	0d00000a 	stceq	0, cr0, [r0, #-40]	; 0xffffffd8
 6e0:	0e03012e 	adfeqsp	f0, f3, #0.5
 6e4:	053b0b3a 	ldreq	r0, [fp, #-2874]!	; 0xb3a
 6e8:	13490c27 	movtne	r0, #39975	; 0x9c27
 6ec:	01120111 	tsteq	r2, r1, lsl r1
 6f0:	13010640 	movwne	r0, #5696	; 0x1640
 6f4:	050e0000 	streq	r0, [lr]
 6f8:	3a0e0300 	bcc	381300 <PHY_OFFSET-0x6fc86d00>
 6fc:	49053b0b 	stmdbmi	r5, {r0, r1, r3, r8, r9, fp, ip, sp}
 700:	000a0213 	andeq	r0, sl, r3, lsl r2
 704:	00050f00 	andeq	r0, r5, r0, lsl #30
 708:	0b3a0803 	bleq	e8271c <PHY_OFFSET-0x6f1858e4>
 70c:	1349053b 	movtne	r0, #38203	; 0x953b
 710:	00000a02 	andeq	r0, r0, r2, lsl #20
 714:	03003410 	movweq	r3, #1040	; 0x410
 718:	3b0b3a08 	blcc	2cef40 <PHY_OFFSET-0x6fd390c0>
 71c:	02134905 	andseq	r4, r3, #81920	; 0x14000
 720:	1100000a 	tstne	r0, sl
 724:	0c3f012e 	ldfeqs	f0, [pc], #-184	; 0xffffff48
 728:	0b3a0e03 	bleq	e83f3c <PHY_OFFSET-0x6f1840c4>
 72c:	0c27053b 	cfstr32eq	mvfx0, [r7], #-236	; 0xffffff14
 730:	01111349 	tsteq	r1, r9, asr #6
 734:	06400112 	undefined instruction 0x06400112
 738:	00001301 	andeq	r1, r0, r1, lsl #6
 73c:	3f012e12 	svccc	0x00012e12
 740:	3a0e030c 	bcc	381378 <PHY_OFFSET-0x6fc86c88>
 744:	27053b0b 	strcs	r3, [r5, -fp, lsl #22]
 748:	1113490c 	tstne	r3, ip, lsl #18
 74c:	40011201 	andmi	r1, r1, r1, lsl #4
 750:	00000006 	andeq	r0, r0, r6

Disassembly of section .debug_aranges:

00000000 <.debug_aranges>:
   0:	0000001c 	andeq	r0, r0, ip, lsl r0
   4:	00000002 	andeq	r0, r0, r2
   8:	00040000 	andeq	r0, r4, r0
   c:	00000000 	andeq	r0, r0, r0
  10:	70008000 	andvc	r8, r0, r0
  14:	00000054 	andeq	r0, r0, r4, asr r0
	...
  20:	0000001c 	andeq	r0, r0, ip, lsl r0
  24:	00970002 	addseq	r0, r7, r2
  28:	00040000 	andeq	r0, r4, r0
  2c:	00000000 	andeq	r0, r0, r0
  30:	70008060 	andvc	r8, r0, r0, rrx
  34:	000003b0 	undefined instruction 0x000003b0
	...
  40:	0000001c 	andeq	r0, r0, ip, lsl r0
  44:	04460002 	strbeq	r0, [r6], #-2
  48:	00040000 	andeq	r0, r4, r0
  4c:	00000000 	andeq	r0, r0, r0
  50:	70008410 	andvc	r8, r0, r0, lsl r4
  54:	00000234 	andeq	r0, r0, r4, lsr r2
	...
  60:	0000001c 	andeq	r0, r0, ip, lsl r0
  64:	05de0002 	ldrbeq	r0, [lr, #2]
  68:	00040000 	andeq	r0, r4, r0
  6c:	00000000 	andeq	r0, r0, r0
  70:	70008644 	andvc	r8, r0, r4, asr #12
  74:	000004d8 	ldrdeq	r0, [r0], -r8
	...
  80:	0000001c 	andeq	r0, r0, ip, lsl r0
  84:	097e0002 	ldmdbeq	lr!, {r1}^
  88:	00040000 	andeq	r0, r4, r0
  8c:	00000000 	andeq	r0, r0, r0
  90:	70008b1c 	andvc	r8, r0, ip, lsl fp
  94:	00000344 	andeq	r0, r0, r4, asr #6
	...
  a0:	0000001c 	andeq	r0, r0, ip, lsl r0
  a4:	0e720002 	cdpeq	0, 7, cr0, cr2, cr2, {0}
  a8:	00040000 	andeq	r0, r4, r0
  ac:	00000000 	andeq	r0, r0, r0
  b0:	70008e60 	andvc	r8, r0, r0, ror #28
  b4:	000009c0 	andeq	r0, r0, r0, asr #19
	...
  c0:	0000001c 	andeq	r0, r0, ip, lsl r0
  c4:	12aa0002 	adcne	r0, sl, #2
  c8:	00040000 	andeq	r0, r4, r0
  cc:	00000000 	andeq	r0, r0, r0
  d0:	70009820 	andvc	r9, r0, r0, lsr #16
  d4:	0000074c 	andeq	r0, r0, ip, asr #14
	...

Disassembly of section .debug_loc:

00000000 <.debug_loc>:
   0:	00000000 	andeq	r0, r0, r0
   4:	00000004 	andeq	r0, r0, r4
   8:	007d0002 	rsbseq	r0, sp, r2
   c:	00000004 	andeq	r0, r0, r4
  10:	00000008 	andeq	r0, r0, r8
  14:	047d0002 	ldrbteq	r0, [sp], #-2
  18:	00000008 	andeq	r0, r0, r8
  1c:	00000094 	muleq	r0, r4, r0
  20:	047b0002 	ldrbteq	r0, [fp], #-2
	...
  2c:	00000094 	muleq	r0, r4, r0
  30:	00000098 	muleq	r0, r8, r0
  34:	007d0002 	rsbseq	r0, sp, r2
  38:	00000098 	muleq	r0, r8, r0
  3c:	0000009c 	muleq	r0, ip, r0
  40:	1c7d0002 	ldclne	0, cr0, [sp], #-8
  44:	0000009c 	muleq	r0, ip, r0
  48:	00000150 	andeq	r0, r0, r0, asr r1
  4c:	047b0002 	ldrbteq	r0, [fp], #-2
	...
  58:	00000150 	andeq	r0, r0, r0, asr r1
  5c:	00000154 	andeq	r0, r0, r4, asr r1
  60:	007d0002 	rsbseq	r0, sp, r2
  64:	00000154 	andeq	r0, r0, r4, asr r1
  68:	00000158 	andeq	r0, r0, r8, asr r1
  6c:	087d0002 	ldmdaeq	sp!, {r1}^
  70:	00000158 	andeq	r0, r0, r8, asr r1
  74:	000003b0 	undefined instruction 0x000003b0
  78:	047b0002 	ldrbteq	r0, [fp], #-2
	...
  88:	00000004 	andeq	r0, r0, r4
  8c:	007d0002 	rsbseq	r0, sp, r2
  90:	00000004 	andeq	r0, r0, r4
  94:	00000008 	andeq	r0, r0, r8
  98:	087d0002 	ldmdaeq	sp!, {r1}^
  9c:	00000008 	andeq	r0, r0, r8
  a0:	00000040 	andeq	r0, r0, r0, asr #32
  a4:	047b0002 	ldrbteq	r0, [fp], #-2
	...
  b0:	00000040 	andeq	r0, r0, r0, asr #32
  b4:	00000044 	andeq	r0, r0, r4, asr #32
  b8:	007d0002 	rsbseq	r0, sp, r2
  bc:	00000044 	andeq	r0, r0, r4, asr #32
  c0:	00000048 	andeq	r0, r0, r8, asr #32
  c4:	087d0002 	ldmdaeq	sp!, {r1}^
  c8:	00000048 	andeq	r0, r0, r8, asr #32
  cc:	00000084 	andeq	r0, r0, r4, lsl #1
  d0:	047b0002 	ldrbteq	r0, [fp], #-2
	...
  dc:	00000084 	andeq	r0, r0, r4, lsl #1
  e0:	00000088 	andeq	r0, r0, r8, lsl #1
  e4:	007d0002 	rsbseq	r0, sp, r2
  e8:	00000088 	andeq	r0, r0, r8, lsl #1
  ec:	0000008c 	andeq	r0, r0, ip, lsl #1
  f0:	047d0002 	ldrbteq	r0, [sp], #-2
  f4:	0000008c 	andeq	r0, r0, ip, lsl #1
  f8:	000000f8 	strdeq	r0, [r0], -r8
  fc:	047b0002 	ldrbteq	r0, [fp], #-2
	...
 108:	000000f8 	strdeq	r0, [r0], -r8
 10c:	000000fc 	strdeq	r0, [r0], -ip
 110:	007d0002 	rsbseq	r0, sp, r2
 114:	000000fc 	strdeq	r0, [r0], -ip
 118:	00000100 	andeq	r0, r0, r0, lsl #2
 11c:	087d0002 	ldmdaeq	sp!, {r1}^
 120:	00000100 	andeq	r0, r0, r0, lsl #2
 124:	00000148 	andeq	r0, r0, r8, asr #2
 128:	047b0002 	ldrbteq	r0, [fp], #-2
	...
 134:	00000148 	andeq	r0, r0, r8, asr #2
 138:	0000014c 	andeq	r0, r0, ip, asr #2
 13c:	007d0002 	rsbseq	r0, sp, r2
 140:	0000014c 	andeq	r0, r0, ip, asr #2
 144:	00000150 	andeq	r0, r0, r0, asr r1
 148:	087d0002 	ldmdaeq	sp!, {r1}^
 14c:	00000150 	andeq	r0, r0, r0, asr r1
 150:	000001a8 	andeq	r0, r0, r8, lsr #3
 154:	047b0002 	ldrbteq	r0, [fp], #-2
	...
 160:	000001a8 	andeq	r0, r0, r8, lsr #3
 164:	000001ac 	andeq	r0, r0, ip, lsr #3
 168:	007d0002 	rsbseq	r0, sp, r2
 16c:	000001ac 	andeq	r0, r0, ip, lsr #3
 170:	000001b0 	undefined instruction 0x000001b0
 174:	087d0002 	ldmdaeq	sp!, {r1}^
 178:	000001b0 	undefined instruction 0x000001b0
 17c:	00000234 	andeq	r0, r0, r4, lsr r2
 180:	047b0002 	ldrbteq	r0, [fp], #-2
	...
 190:	00000004 	andeq	r0, r0, r4
 194:	007d0002 	rsbseq	r0, sp, r2
 198:	00000004 	andeq	r0, r0, r4
 19c:	00000008 	andeq	r0, r0, r8
 1a0:	047d0002 	ldrbteq	r0, [sp], #-2
 1a4:	00000008 	andeq	r0, r0, r8
 1a8:	00000064 	andeq	r0, r0, r4, rrx
 1ac:	047b0002 	ldrbteq	r0, [fp], #-2
	...
 1b8:	00000064 	andeq	r0, r0, r4, rrx
 1bc:	00000068 	andeq	r0, r0, r8, rrx
 1c0:	007d0002 	rsbseq	r0, sp, r2
 1c4:	00000068 	andeq	r0, r0, r8, rrx
 1c8:	0000006c 	andeq	r0, r0, ip, rrx
 1cc:	047d0002 	ldrbteq	r0, [sp], #-2
 1d0:	0000006c 	andeq	r0, r0, ip, rrx
 1d4:	00000104 	andeq	r0, r0, r4, lsl #2
 1d8:	047b0002 	ldrbteq	r0, [fp], #-2
	...
 1e4:	00000104 	andeq	r0, r0, r4, lsl #2
 1e8:	00000108 	andeq	r0, r0, r8, lsl #2
 1ec:	007d0002 	rsbseq	r0, sp, r2
 1f0:	00000108 	andeq	r0, r0, r8, lsl #2
 1f4:	0000010c 	andeq	r0, r0, ip, lsl #2
 1f8:	047d0002 	ldrbteq	r0, [sp], #-2
 1fc:	0000010c 	andeq	r0, r0, ip, lsl #2
 200:	000001a4 	andeq	r0, r0, r4, lsr #3
 204:	047b0002 	ldrbteq	r0, [fp], #-2
	...
 210:	000001a4 	andeq	r0, r0, r4, lsr #3
 214:	000001a8 	andeq	r0, r0, r8, lsr #3
 218:	007d0002 	rsbseq	r0, sp, r2
 21c:	000001a8 	andeq	r0, r0, r8, lsr #3
 220:	000001ac 	andeq	r0, r0, ip, lsr #3
 224:	047d0002 	ldrbteq	r0, [sp], #-2
 228:	000001ac 	andeq	r0, r0, ip, lsr #3
 22c:	0000021c 	andeq	r0, r0, ip, lsl r2
 230:	047b0002 	ldrbteq	r0, [fp], #-2
	...
 23c:	0000021c 	andeq	r0, r0, ip, lsl r2
 240:	00000220 	andeq	r0, r0, r0, lsr #4
 244:	007d0002 	rsbseq	r0, sp, r2
 248:	00000220 	andeq	r0, r0, r0, lsr #4
 24c:	00000224 	andeq	r0, r0, r4, lsr #4
 250:	047d0002 	ldrbteq	r0, [sp], #-2
 254:	00000224 	andeq	r0, r0, r4, lsr #4
 258:	00000294 	muleq	r0, r4, r2
 25c:	047b0002 	ldrbteq	r0, [fp], #-2
	...
 268:	00000294 	muleq	r0, r4, r2
 26c:	00000298 	muleq	r0, r8, r2
 270:	007d0002 	rsbseq	r0, sp, r2
 274:	00000298 	muleq	r0, r8, r2
 278:	0000029c 	muleq	r0, ip, r2
 27c:	087d0002 	ldmdaeq	sp!, {r1}^
 280:	0000029c 	muleq	r0, ip, r2
 284:	00000350 	andeq	r0, r0, r0, asr r3
 288:	047b0002 	ldrbteq	r0, [fp], #-2
	...
 294:	00000350 	andeq	r0, r0, r0, asr r3
 298:	00000354 	andeq	r0, r0, r4, asr r3
 29c:	007d0002 	rsbseq	r0, sp, r2
 2a0:	00000354 	andeq	r0, r0, r4, asr r3
 2a4:	00000358 	andeq	r0, r0, r8, asr r3
 2a8:	047d0002 	ldrbteq	r0, [sp], #-2
 2ac:	00000358 	andeq	r0, r0, r8, asr r3
 2b0:	000003d0 	ldrdeq	r0, [r0], -r0
 2b4:	047b0002 	ldrbteq	r0, [fp], #-2
	...
 2c0:	000003d0 	ldrdeq	r0, [r0], -r0
 2c4:	000003d4 	ldrdeq	r0, [r0], -r4
 2c8:	007d0002 	rsbseq	r0, sp, r2
 2cc:	000003d4 	ldrdeq	r0, [r0], -r4
 2d0:	000003d8 	ldrdeq	r0, [r0], -r8
 2d4:	047d0002 	ldrbteq	r0, [sp], #-2
 2d8:	000003d8 	ldrdeq	r0, [r0], -r8
 2dc:	0000046c 	andeq	r0, r0, ip, ror #8
 2e0:	047b0002 	ldrbteq	r0, [fp], #-2
	...
 2ec:	0000046c 	andeq	r0, r0, ip, ror #8
 2f0:	00000470 	andeq	r0, r0, r0, ror r4
 2f4:	007d0002 	rsbseq	r0, sp, r2
 2f8:	00000470 	andeq	r0, r0, r0, ror r4
 2fc:	00000474 	andeq	r0, r0, r4, ror r4
 300:	047d0002 	ldrbteq	r0, [sp], #-2
 304:	00000474 	andeq	r0, r0, r4, ror r4
 308:	000004d8 	ldrdeq	r0, [r0], -r8
 30c:	047b0002 	ldrbteq	r0, [fp], #-2
	...
 31c:	00000004 	andeq	r0, r0, r4
 320:	007d0002 	rsbseq	r0, sp, r2
 324:	00000004 	andeq	r0, r0, r4
 328:	00000008 	andeq	r0, r0, r8
 32c:	047d0002 	ldrbteq	r0, [sp], #-2
 330:	00000008 	andeq	r0, r0, r8
 334:	00000054 	andeq	r0, r0, r4, asr r0
 338:	047b0002 	ldrbteq	r0, [fp], #-2
	...
 344:	00000054 	andeq	r0, r0, r4, asr r0
 348:	00000058 	andeq	r0, r0, r8, asr r0
 34c:	007d0002 	rsbseq	r0, sp, r2
 350:	00000058 	andeq	r0, r0, r8, asr r0
 354:	0000005c 	andeq	r0, r0, ip, asr r0
 358:	087d0002 	ldmdaeq	sp!, {r1}^
 35c:	0000005c 	andeq	r0, r0, ip, asr r0
 360:	0000017c 	andeq	r0, r0, ip, ror r1
 364:	047b0002 	ldrbteq	r0, [fp], #-2
	...
 370:	0000017c 	andeq	r0, r0, ip, ror r1
 374:	00000180 	andeq	r0, r0, r0, lsl #3
 378:	007d0002 	rsbseq	r0, sp, r2
 37c:	00000180 	andeq	r0, r0, r0, lsl #3
 380:	00000184 	andeq	r0, r0, r4, lsl #3
 384:	087d0002 	ldmdaeq	sp!, {r1}^
 388:	00000184 	andeq	r0, r0, r4, lsl #3
 38c:	000001fc 	strdeq	r0, [r0], -ip
 390:	047b0002 	ldrbteq	r0, [fp], #-2
	...
 39c:	000001fc 	strdeq	r0, [r0], -ip
 3a0:	00000200 	andeq	r0, r0, r0, lsl #4
 3a4:	007d0002 	rsbseq	r0, sp, r2
 3a8:	00000200 	andeq	r0, r0, r0, lsl #4
 3ac:	00000204 	andeq	r0, r0, r4, lsl #4
 3b0:	087d0002 	ldmdaeq	sp!, {r1}^
 3b4:	00000204 	andeq	r0, r0, r4, lsl #4
 3b8:	00000344 	andeq	r0, r0, r4, asr #6
 3bc:	047b0002 	ldrbteq	r0, [fp], #-2
	...
 3cc:	00000004 	andeq	r0, r0, r4
 3d0:	007d0002 	rsbseq	r0, sp, r2
 3d4:	00000004 	andeq	r0, r0, r4
 3d8:	00000008 	andeq	r0, r0, r8
 3dc:	047d0002 	ldrbteq	r0, [sp], #-2
 3e0:	00000008 	andeq	r0, r0, r8
 3e4:	00000080 	andeq	r0, r0, r0, lsl #1
 3e8:	047b0002 	ldrbteq	r0, [fp], #-2
	...
 3f4:	00000080 	andeq	r0, r0, r0, lsl #1
 3f8:	00000084 	andeq	r0, r0, r4, lsl #1
 3fc:	007d0002 	rsbseq	r0, sp, r2
 400:	00000084 	andeq	r0, r0, r4, lsl #1
 404:	00000088 	andeq	r0, r0, r8, lsl #1
 408:	107d0002 	rsbsne	r0, sp, r2
 40c:	00000088 	andeq	r0, r0, r8, lsl #1
 410:	0000008c 	andeq	r0, r0, ip, lsl #1
 414:	187d0002 	ldmdane	sp!, {r1}^
 418:	0000008c 	andeq	r0, r0, ip, lsl #1
 41c:	0000011c 	andeq	r0, r0, ip, lsl r1
 420:	147b0002 	ldrbtne	r0, [fp], #-2
	...
 42c:	0000011c 	andeq	r0, r0, ip, lsl r1
 430:	00000120 	andeq	r0, r0, r0, lsr #2
 434:	007d0002 	rsbseq	r0, sp, r2
 438:	00000120 	andeq	r0, r0, r0, lsr #2
 43c:	00000124 	andeq	r0, r0, r4, lsr #2
 440:	087d0002 	ldmdaeq	sp!, {r1}^
 444:	00000124 	andeq	r0, r0, r4, lsr #2
 448:	000009c0 	andeq	r0, r0, r0, asr #19
 44c:	047b0002 	ldrbteq	r0, [fp], #-2
	...
 45c:	00000004 	andeq	r0, r0, r4
 460:	007d0002 	rsbseq	r0, sp, r2
 464:	00000004 	andeq	r0, r0, r4
 468:	00000008 	andeq	r0, r0, r8
 46c:	047d0002 	ldrbteq	r0, [sp], #-2
 470:	00000008 	andeq	r0, r0, r8
 474:	00000050 	andeq	r0, r0, r0, asr r0
 478:	047b0002 	ldrbteq	r0, [fp], #-2
	...
 484:	00000050 	andeq	r0, r0, r0, asr r0
 488:	00000054 	andeq	r0, r0, r4, asr r0
 48c:	007d0002 	rsbseq	r0, sp, r2
 490:	00000054 	andeq	r0, r0, r4, asr r0
 494:	00000058 	andeq	r0, r0, r8, asr r0
 498:	047d0002 	ldrbteq	r0, [sp], #-2
 49c:	00000058 	andeq	r0, r0, r8, asr r0
 4a0:	000000c0 	andeq	r0, r0, r0, asr #1
 4a4:	047b0002 	ldrbteq	r0, [fp], #-2
	...
 4b0:	000000c0 	andeq	r0, r0, r0, asr #1
 4b4:	000000c4 	andeq	r0, r0, r4, asr #1
 4b8:	007d0002 	rsbseq	r0, sp, r2
 4bc:	000000c4 	andeq	r0, r0, r4, asr #1
 4c0:	000000c8 	andeq	r0, r0, r8, asr #1
 4c4:	087d0002 	ldmdaeq	sp!, {r1}^
 4c8:	000000c8 	andeq	r0, r0, r8, asr #1
 4cc:	0000014c 	andeq	r0, r0, ip, asr #2
 4d0:	047b0002 	ldrbteq	r0, [fp], #-2
	...
 4dc:	0000014c 	andeq	r0, r0, ip, asr #2
 4e0:	00000150 	andeq	r0, r0, r0, asr r1
 4e4:	007d0002 	rsbseq	r0, sp, r2
 4e8:	00000150 	andeq	r0, r0, r0, asr r1
 4ec:	00000154 	andeq	r0, r0, r4, asr r1
 4f0:	087d0002 	ldmdaeq	sp!, {r1}^
 4f4:	00000154 	andeq	r0, r0, r4, asr r1
 4f8:	00000224 	andeq	r0, r0, r4, lsr #4
 4fc:	047b0002 	ldrbteq	r0, [fp], #-2
	...
 508:	00000224 	andeq	r0, r0, r4, lsr #4
 50c:	00000228 	andeq	r0, r0, r8, lsr #4
 510:	007d0002 	rsbseq	r0, sp, r2
 514:	00000228 	andeq	r0, r0, r8, lsr #4
 518:	0000022c 	andeq	r0, r0, ip, lsr #4
 51c:	147d0002 	ldrbtne	r0, [sp], #-2
 520:	0000022c 	andeq	r0, r0, ip, lsr #4
 524:	000003dc 	ldrdeq	r0, [r0], -ip
 528:	047b0002 	ldrbteq	r0, [fp], #-2
	...
 534:	000003dc 	ldrdeq	r0, [r0], -ip
 538:	000003e0 	andeq	r0, r0, r0, ror #7
 53c:	007d0002 	rsbseq	r0, sp, r2
 540:	000003e0 	andeq	r0, r0, r0, ror #7
 544:	000003e4 	andeq	r0, r0, r4, ror #7
 548:	107d0002 	rsbsne	r0, sp, r2
 54c:	000003e4 	andeq	r0, r0, r4, ror #7
 550:	0000056c 	andeq	r0, r0, ip, ror #10
 554:	047b0002 	ldrbteq	r0, [fp], #-2
	...
 560:	0000056c 	andeq	r0, r0, ip, ror #10
 564:	00000570 	andeq	r0, r0, r0, ror r5
 568:	007d0002 	rsbseq	r0, sp, r2
 56c:	00000570 	andeq	r0, r0, r0, ror r5
 570:	00000574 	andeq	r0, r0, r4, ror r5
 574:	087d0002 	ldmdaeq	sp!, {r1}^
 578:	00000574 	andeq	r0, r0, r4, ror r5
 57c:	00000644 	andeq	r0, r0, r4, asr #12
 580:	047b0002 	ldrbteq	r0, [fp], #-2
	...
 58c:	00000644 	andeq	r0, r0, r4, asr #12
 590:	00000648 	andeq	r0, r0, r8, asr #12
 594:	007d0002 	rsbseq	r0, sp, r2
 598:	00000648 	andeq	r0, r0, r8, asr #12
 59c:	0000064c 	andeq	r0, r0, ip, asr #12
 5a0:	087d0002 	ldmdaeq	sp!, {r1}^
 5a4:	0000064c 	andeq	r0, r0, ip, asr #12
 5a8:	000006c8 	andeq	r0, r0, r8, asr #13
 5ac:	047b0002 	ldrbteq	r0, [fp], #-2
	...
 5b8:	000006c8 	andeq	r0, r0, r8, asr #13
 5bc:	000006cc 	andeq	r0, r0, ip, asr #13
 5c0:	007d0002 	rsbseq	r0, sp, r2
 5c4:	000006cc 	andeq	r0, r0, ip, asr #13
 5c8:	000006d0 	ldrdeq	r0, [r0], -r0
 5cc:	087d0002 	ldmdaeq	sp!, {r1}^
 5d0:	000006d0 	ldrdeq	r0, [r0], -r0
 5d4:	0000074c 	andeq	r0, r0, ip, asr #14
 5d8:	047b0002 	ldrbteq	r0, [fp], #-2
	...

Disassembly of section .debug_pubnames:

00000000 <.debug_pubnames>:
   0:	000000a6 	andeq	r0, r0, r6, lsr #1
   4:	00970002 	addseq	r0, r7, r2
   8:	03af0000 	undefined instruction 0x03af0000
   c:	01ef0000 	mvneq	r0, r0
  10:	65440000 	strbvs	r0, [r4]
  14:	0079616c 	rsbseq	r6, r9, ip, ror #2
  18:	0000023f 	andeq	r0, r0, pc, lsr r2
  1c:	6e697250 	mcrvs	2, 3, r7, cr9, cr0, {2}
  20:	49555574 	ldmdbmi	r5, {r2, r4, r5, r6, r8, sl, ip, lr}^
  24:	027c0044 	rsbseq	r0, ip, #68	; 0x44
  28:	616d0000 	cmnvs	sp, r0
  2c:	30006e69 	andcc	r6, r0, r9, ror #28
  30:	67000003 	strvs	r0, [r0, -r3]
  34:	6174735f 	cmnvs	r4, pc, asr r3
  38:	735f6b63 	cmpvc	pc, #101376	; 0x18c00
  3c:	42007379 	andmi	r7, r0, #-469762047	; 0xe4000001
  40:	67000003 	strvs	r0, [r0, -r3]
  44:	6174735f 	cmnvs	r4, pc, asr r3
  48:	665f6b63 	ldrbvs	r6, [pc], -r3, ror #22
  4c:	54007169 	strpl	r7, [r0], #-361	; 0x169
  50:	67000003 	strvs	r0, [r0, -r3]
  54:	6174735f 	cmnvs	r4, pc, asr r3
  58:	695f6b63 	ldmdbvs	pc, {r0, r1, r5, r6, r8, r9, fp, sp, lr}^
  5c:	66007172 	undefined instruction 0x66007172
  60:	67000003 	strvs	r0, [r0, -r3]
  64:	6174735f 	cmnvs	r4, pc, asr r3
  68:	735f6b63 	cmpvc	pc, #101376	; 0x18c00
  6c:	78006376 	stmdavc	r0, {r1, r2, r4, r5, r6, r8, r9, sp, lr}
  70:	67000003 	strvs	r0, [r0, -r3]
  74:	6174735f 	cmnvs	r4, pc, asr r3
  78:	615f6b63 	cmpvs	pc, r3, ror #22
  7c:	8a007462 	bhi	1d20c <PHY_OFFSET-0x6ffeadf4>
  80:	67000003 	strvs	r0, [r0, -r3]
  84:	6174735f 	cmnvs	r4, pc, asr r3
  88:	755f6b63 	ldrbvc	r6, [pc, #-2915]	; fffff52d <_CLIENT_END+0x8ffbf52d>
  8c:	6665646e 	strbtvs	r6, [r5], -lr, ror #8
  90:	00039c00 	andeq	r9, r3, r0, lsl #24
  94:	73617400 	cmnvc	r1, #0
  98:	74735f6b 	ldrbtvc	r5, [r3], #-3947	; 0xf6b
  9c:	676e6972 	undefined instruction 0x676e6972
  a0:	6975755f 	ldmdbvs	r5!, {r0, r1, r2, r3, r4, r6, r8, sl, ip, sp, lr}^
  a4:	00000064 	andeq	r0, r0, r4, rrx
  a8:	00670000 	rsbeq	r0, r7, r0
  ac:	00020000 	andeq	r0, r2, r0
  b0:	00000446 	andeq	r0, r0, r6, asr #8
  b4:	00000198 	muleq	r0, r8, r1
  b8:	00000021 	andeq	r0, r0, r1, lsr #32
  bc:	64616572 	strbtvs	r6, [r1], #-1394	; 0x572
  c0:	7261755f 	rsbvc	r7, r1, #398458880	; 0x17c00000
  c4:	007b0074 	rsbseq	r0, fp, r4, ror r0
  c8:	72770000 	rsbsvc	r0, r7, #0
  cc:	5f657469 	svcpl	0x00657469
  d0:	74726175 	ldrbtvc	r6, [r2], #-373	; 0x175
  d4:	0000f700 	andeq	pc, r0, r0, lsl #14
  d8:	306c7000 	rsbcc	r7, ip, r0
  dc:	755f3131 	ldrbvc	r3, [pc, #-305]	; ffffffb3 <_CLIENT_END+0x8ffbffb3>
  e0:	5f747261 	svcpl	0x00747261
  e4:	63747570 	cmnvs	r4, #469762048	; 0x1c000000
  e8:	00012400 	andeq	r2, r1, r0, lsl #8
  ec:	306c7000 	rsbcc	r7, ip, r0
  f0:	755f3131 	ldrbvc	r3, [pc, #-305]	; ffffffc7 <_CLIENT_END+0x8ffbffc7>
  f4:	5f747261 	svcpl	0x00747261
  f8:	73747570 	cmnvc	r4, #469762048	; 0x1c000000
  fc:	00016500 	andeq	r6, r1, r0, lsl #10
 100:	306c7000 	rsbcc	r7, ip, r0
 104:	755f3131 	ldrbvc	r3, [pc, #-305]	; ffffffdb <_CLIENT_END+0x8ffbffdb>
 108:	5f747261 	svcpl	0x00747261
 10c:	74696e69 	strbtvc	r6, [r9], #-3689	; 0xe69
 110:	00000000 	andeq	r0, r0, r0
 114:	0000df00 	andeq	sp, r0, r0, lsl #30
 118:	de000200 	cdple	2, 0, cr0, cr0, cr0, {0}
 11c:	a0000005 	andge	r0, r0, r5
 120:	87000003 	strhi	r0, [r0, -r3]
 124:	4d000000 	stcmi	0, cr0, [r0]
 128:	6f6c6c61 	svcvs	0x006c6c61
 12c:	696e4963 	stmdbvs	lr!, {r0, r1, r5, r6, r8, fp, lr}^
 130:	00b60074 	adcseq	r0, r6, r4, ror r0
 134:	73550000 	cmpvc	r5, #0
 138:	614d7265 	cmpvs	sp, r5, ror #4
 13c:	636f6c6c 	cmnvs	pc, #27648	; 0x6c00
 140:	0000ee00 	andeq	lr, r0, r0, lsl #28
 144:	72654b00 	rsbvc	r4, r5, #0
 148:	4d6c656e 	cfstr64mi	mvdx6, [ip, #-440]!	; 0xfffffe48
 14c:	6f6c6c61 	svcvs	0x006c6c61
 150:	01260063 	teqeq	r6, r3, rrx
 154:	73550000 	cmpvc	r5, #0
 158:	72467265 	subvc	r7, r6, #1342177286	; 0x50000006
 15c:	5a006565 	bpl	196f8 <PHY_OFFSET-0x6ffee908>
 160:	4b000001 	blmi	16c <PHY_OFFSET-0x70007e94>
 164:	656e7265 	strbvs	r7, [lr, #-613]!	; 0x265
 168:	6572466c 	ldrbvs	r4, [r2, #-1644]!	; 0x66c
 16c:	018e0065 	orreq	r0, lr, r5, rrx
 170:	654d0000 	strbvs	r0, [sp]
 174:	766f4d6d 	strbtvc	r4, [pc], -sp, ror #26
 178:	020d0065 	andeq	r0, sp, #101	; 0x65
 17c:	6c430000 	marvs	acc0, r0, r3
 180:	746e6569 	strbtvc	r6, [lr], #-1385	; 0x569
 184:	7274535f 	rsbsvc	r5, r4, #2080374785	; 0x7c000001
 188:	006e654c 	rsbeq	r6, lr, ip, asr #10
 18c:	00000247 	andeq	r0, r0, r7, asr #4
 190:	65696c43 	strbvs	r6, [r9, #-3139]!	; 0xc43
 194:	535f746e 	cmppl	pc, #1845493760	; 0x6e000000
 198:	6f437274 	svcvs	0x00437274
 19c:	9a007970 	bls	1e764 <PHY_OFFSET-0x6ffe989c>
 1a0:	43000002 	movwmi	r0, #2
 1a4:	6e65696c 	cdpvs	9, 6, cr6, cr5, cr12, {3}
 1a8:	654d5f74 	strbvs	r5, [sp, #-3956]	; 0xf74
 1ac:	6c69466d 	stclvs	6, cr4, [r9], #-436	; 0xfffffe4c
 1b0:	0357006c 	cmpeq	r7, #108	; 0x6c
 1b4:	73750000 	cmnvc	r5, #0
 1b8:	6d5f7265 	lfmvs	f7, 2, [pc, #-404]	; (ldclvs 2, cr7, [pc, #-404])	; 0xfffffe6c
 1bc:	69006d65 	stmdbvs	r0, {r0, r2, r5, r6, r8, sl, fp, sp, lr}
 1c0:	6b000003 	blvs	1d4 <PHY_OFFSET-0x70007e2c>
 1c4:	656e7265 	strbvs	r7, [lr, #-613]!	; 0x265
 1c8:	656d5f6c 	strbvs	r5, [sp, #-3948]!	; 0xf6c
 1cc:	037b006d 	cmneq	fp, #109	; 0x6d
 1d0:	73750000 	cmnvc	r5, #0
 1d4:	6d5f7265 	lfmvs	f7, 2, [pc, #-404]	; (ldclvs 2, cr7, [pc, #-404])	; 0xfffffe6c
 1d8:	665f6d65 	ldrbvs	r6, [pc], -r5, ror #26
 1dc:	0067616c 	rsbeq	r6, r7, ip, ror #2
 1e0:	0000038d 	andeq	r0, r0, sp, lsl #7
 1e4:	6e72656b 	cdpvs	5, 7, cr6, cr2, cr11, {3}
 1e8:	6d5f6c65 	ldclvs	12, cr6, [pc, #-404]	; 0xfffffe6c
 1ec:	665f6d65 	ldrbvs	r6, [pc], -r5, ror #26
 1f0:	0067616c 	rsbeq	r6, r7, ip, ror #2
 1f4:	00000000 	andeq	r0, r0, r0
 1f8:	00000048 	andeq	r0, r0, r8, asr #32
 1fc:	097e0002 	ldmdbeq	lr!, {r1}^
 200:	04950000 	ldreq	r0, [r5]
 204:	03590000 	cmpeq	r9, #0
 208:	704f0000 	subvc	r0, pc, r0
 20c:	65536e65 	ldrbvs	r6, [r3, #-3685]	; 0xe65
 210:	6f697373 	svcvs	0x00697373
 214:	03c9006e 	biceq	r0, r9, #110	; 0x6e
 218:	6c430000 	marvs	acc0, r0, r3
 21c:	5365736f 	cmnpl	r5, #-1140850687	; 0xbc000001
 220:	69737365 	ldmdbvs	r3!, {r0, r2, r5, r6, r8, r9, ip, sp, lr}^
 224:	11006e6f 	tstne	r0, pc, ror #28
 228:	49000004 	stmdbmi	r0, {r2}
 22c:	6b6f766e 	blvs	1bddbec <PHY_OFFSET-0x6e42a414>
 230:	73655365 	cmnvc	r5, #-1811939327	; 0x94000001
 234:	6e6f6973 	mcrvs	9, 3, r6, cr15, cr3, {3}
 238:	6d6d6f43 	stclvs	15, cr6, [sp, #-268]!	; 0xfffffef4
 23c:	00646e61 	rsbeq	r6, r4, r1, ror #28
 240:	00000000 	andeq	r0, r0, r0
 244:	00000019 	andeq	r0, r0, r9, lsl r0
 248:	0e130002 	cdpeq	0, 1, cr0, cr3, cr2, {0}
 24c:	005f0000 	subseq	r0, pc, r0
 250:	004c0000 	subeq	r0, ip, r0
 254:	635f0000 	cmpvs	pc, #0
 258:	65707974 	ldrbvs	r7, [r0, #-2420]!	; 0x974
 25c:	00000000 	andeq	r0, r0, r0
 260:	00003f00 	andeq	r3, r0, r0, lsl #30
 264:	72000200 	andvc	r0, r0, #0
 268:	3800000e 	stmdacc	r0, {r1, r2, r3}
 26c:	9f000004 	svcls	0x00000004
 270:	54000000 	strpl	r0, [r0]
 274:	535f4545 	cmppl	pc, #289406976	; 0x11400000
 278:	654c7274 	strbvs	r7, [ip, #-628]	; 0x274
 27c:	00df006e 	sbcseq	r0, pc, lr, rrx
 280:	6c430000 	marvs	acc0, r0, r3
 284:	746e6569 	strbtvc	r6, [lr], #-1385	; 0x569
 288:	6972505f 	ldmdbvs	r2!, {r0, r1, r2, r3, r4, r6, ip, lr}^
 28c:	0066746e 	rsbeq	r7, r6, lr, ror #8
 290:	00000188 	andeq	r0, r0, r8, lsl #3
 294:	765f7773 	undefined instruction 0x765f7773
 298:	69727073 	ldmdbvs	r2!, {r0, r1, r4, r5, r6, ip, sp, lr}^
 29c:	0066746e 	rsbeq	r7, r6, lr, ror #8
 2a0:	00000000 	andeq	r0, r0, r0
 2a4:	0000005e 	andeq	r0, r0, lr, asr r0
 2a8:	12aa0002 	adcne	r0, sl, #2
 2ac:	03360000 	teqeq	r6, #0
 2b0:	01080000 	tsteq	r8, r0
 2b4:	5f5f0000 	svcpl	0x005f0000
 2b8:	62616561 	rsbvs	r6, r1, #406847488	; 0x18400000
 2bc:	69755f69 	ldmdbvs	r5!, {r0, r3, r5, r6, r8, r9, sl, fp, ip, lr}^
 2c0:	00766964 	rsbseq	r6, r6, r4, ror #18
 2c4:	000001a5 	andeq	r0, r0, r5, lsr #3
 2c8:	65615f5f 	strbvs	r5, [r1, #-3935]!	; 0xf5f
 2cc:	5f696261 	svcpl	0x00696261
 2d0:	69646c75 	stmdbvs	r4!, {r0, r2, r4, r5, r6, sl, fp, sp, lr}^
 2d4:	646f6d76 	strbtvs	r6, [pc], #3446	; 2dc <PHY_OFFSET-0x70007d24>
 2d8:	0002bf00 	andeq	fp, r2, r0, lsl #30
 2dc:	615f5f00 	cmpvs	pc, r0, lsl #30
 2e0:	69626165 	stmdbvs	r2!, {r0, r2, r5, r6, r8, sp, lr}^
 2e4:	6964695f 	stmdbvs	r4!, {r0, r1, r2, r3, r4, r6, r8, fp, sp, lr}^
 2e8:	646f6d76 	strbtvs	r6, [pc], #3446	; 2f0 <PHY_OFFSET-0x70007d10>
 2ec:	0002fc00 	andeq	pc, r2, r0, lsl #24
 2f0:	615f5f00 	cmpvs	pc, r0, lsl #30
 2f4:	69626165 	stmdbvs	r2!, {r0, r2, r5, r6, r8, sp, lr}^
 2f8:	6469755f 	strbtvs	r7, [r9], #-1375	; 0x55f
 2fc:	6f6d7669 	svcvs	0x006d7669
 300:	00000064 	andeq	r0, r0, r4, rrx
	...

Disassembly of section .debug_pubtypes:

00000000 <.debug_pubtypes>:
   0:	000000af 	andeq	r0, r0, pc, lsr #1
   4:	00970002 	addseq	r0, r7, r2
   8:	03af0000 	undefined instruction 0x03af0000
   c:	00210000 	eoreq	r0, r1, r0
  10:	69750000 	ldmdbvs	r5!, {}^
  14:	3233746e 	eorscc	r7, r3, #1845493760	; 0x6e000000
  18:	3300745f 	movwcc	r7, #1119	; 0x45f
  1c:	69000000 	stmdbvs	r0, {}
  20:	3233746e 	eorscc	r7, r3, #1845493760	; 0x6e000000
  24:	4500745f 	strmi	r7, [r0, #-1119]	; 0x45f
  28:	75000000 	strvc	r0, [r0]
  2c:	31746e69 	cmncc	r4, r9, ror #28
  30:	00745f36 	rsbseq	r5, r4, r6, lsr pc
  34:	0000005e 	andeq	r0, r0, lr, asr r0
  38:	746e6975 	strbtvc	r6, [lr], #-2421	; 0x975
  3c:	00745f38 	rsbseq	r5, r4, r8, lsr pc
  40:	00000085 	andeq	r0, r0, r5, lsl #1
  44:	5f454554 	svcpl	0x00454554
  48:	41524150 	cmpmi	r2, r0, asr r1
  4c:	59545f4d 	ldmdbpl	r4, {r0, r2, r3, r6, r8, r9, sl, fp, ip, lr}^
  50:	0d004550 	cfstr32eq	mvfx4, [r0, #-320]	; 0xfffffec0
  54:	54000001 	strpl	r0, [r0], #-1
  58:	555f4545 	ldrbpl	r4, [pc, #-1349]	; fffffb1b <_CLIENT_END+0x8ffbfb1b>
  5c:	00444955 	subeq	r4, r4, r5, asr r9
  60:	0000017f 	andeq	r0, r0, pc, ror r1
  64:	5f454554 	svcpl	0x00454554
  68:	61726150 	cmnvs	r2, r0, asr r1
  6c:	018a006d 	orreq	r0, sl, sp, rrx
  70:	535f0000 	cmppl	pc, #0
  74:	49535345 	ldmdbmi	r3, {r0, r2, r6, r8, r9, ip, lr}^
  78:	435f4e4f 	cmpmi	pc, #1264	; 0x4f0
  7c:	45544e4f 	ldrbmi	r4, [r4, #-3663]	; 0xe4f
  80:	b3005458 	movwlt	r5, #1112	; 0x458
  84:	53000001 	movwpl	r0, #1
  88:	49535345 	ldmdbmi	r3, {r0, r2, r6, r8, r9, ip, lr}^
  8c:	435f4e4f 	cmpmi	pc, #1264	; 0x4f0
  90:	45544e4f 	ldrbmi	r4, [r4, #-3663]	; 0xe4f
  94:	ce005458 	cfmvsrgt	mvf0, r5
  98:	54000001 	strpl	r0, [r0], #-1
  9c:	5f4b5341 	svcpl	0x004b5341
  a0:	49525453 	ldmdbmi	r2, {r0, r1, r4, r6, sl, ip, lr}^
  a4:	435f474e 	cmpmi	pc, #20447232	; 0x1380000
  a8:	414d4d4f 	cmpmi	sp, pc, asr #26
  ac:	0000444e 	andeq	r4, r0, lr, asr #8
  b0:	3b000000 	blcc	b8 <PHY_OFFSET-0x70007f48>
  b4:	02000000 	andeq	r0, r0, #0
  b8:	0005de00 	andeq	sp, r5, r0, lsl #28
  bc:	0003a000 	andeq	sl, r3, r0
  c0:	00002100 	andeq	r2, r0, r0, lsl #2
  c4:	6e697500 	cdpvs	5, 6, cr7, cr9, cr0, {0}
  c8:	5f323374 	svcpl	0x00323374
  cc:	00480074 	subeq	r0, r8, r4, ror r0
  d0:	69750000 	ldmdbvs	r5!, {}^
  d4:	5f38746e 	svcpl	0x0038746e
  d8:	00610074 	rsbeq	r0, r1, r4, ror r0
  dc:	6f620000 	svcvs	0x00620000
  e0:	7a006c6f 	bvc	1b2a4 <PHY_OFFSET-0x6ffecd5c>
  e4:	73000000 	movwvc	r0, #0
  e8:	5f657a69 	svcpl	0x00657a69
  ec:	00000074 	andeq	r0, r0, r4, ror r0
  f0:	01110000 	tsteq	r1, r0
  f4:	00020000 	andeq	r0, r2, r0
  f8:	0000097e 	andeq	r0, r0, lr, ror r9
  fc:	00000495 	muleq	r0, r5, r4
 100:	00000021 	andeq	r0, r0, r1, lsr #32
 104:	746e6975 	strbtvc	r6, [lr], #-2421	; 0x975
 108:	745f3233 	ldrbvc	r3, [pc], #563	; 110 <PHY_OFFSET-0x70007ef0>
 10c:	00003300 	andeq	r3, r0, r0, lsl #6
 110:	746e6900 	strbtvc	r6, [lr], #-2304	; 0x900
 114:	745f3233 	ldrbvc	r3, [pc], #563	; 11c <PHY_OFFSET-0x70007ee4>
 118:	00004500 	andeq	r4, r0, r0, lsl #10
 11c:	6e697500 	cdpvs	5, 6, cr7, cr9, cr0, {0}
 120:	5f363174 	svcpl	0x00363174
 124:	005e0074 	subseq	r0, lr, r4, ror r0
 128:	69750000 	ldmdbvs	r5!, {}^
 12c:	5f38746e 	svcpl	0x0038746e
 130:	00850074 	addeq	r0, r5, r4, ror r0
 134:	69730000 	ldmdbvs	r3!, {}^
 138:	745f657a 	ldrbvc	r6, [pc], #1402	; 140 <PHY_OFFSET-0x70007ec0>
 13c:	00009000 	andeq	r9, r0, r0
 140:	45455400 	strbmi	r5, [r5, #-1024]	; 0x400
 144:	45504f5f 	ldrbmi	r4, [r0, #-3935]	; 0xf5f
 148:	49545241 	ldmdbmi	r4, {r0, r6, r9, ip, lr}^
 14c:	545f4e4f 	ldrbpl	r4, [pc], #3663	; 154 <PHY_OFFSET-0x70007eac>
 150:	00455059 	subeq	r5, r5, r9, asr r0
 154:	000000bb 	strheq	r0, [r0], -fp
 158:	5f454554 	svcpl	0x00454554
 15c:	41524150 	cmpmi	r2, r0, asr r1
 160:	59545f4d 	ldmdbpl	r4, {r0, r2, r3, r6, r8, r9, sl, fp, ip, lr}^
 164:	43004550 	movwmi	r4, #1360	; 0x550
 168:	54000001 	strpl	r0, [r0], #-1
 16c:	555f4545 	ldrbpl	r4, [pc, #-1349]	; fffffc2f <_CLIENT_END+0x8ffbfc2f>
 170:	00444955 	subeq	r4, r4, r5, asr r9
 174:	000001b5 	undefined instruction 0x000001b5
 178:	5f454554 	svcpl	0x00454554
 17c:	61726150 	cmnvs	r2, r0, asr r1
 180:	01c0006d 	biceq	r0, r0, sp, rrx
 184:	535f0000 	cmppl	pc, #0
 188:	49535345 	ldmdbmi	r3, {r0, r2, r6, r8, r9, ip, lr}^
 18c:	435f4e4f 	cmpmi	pc, #1264	; 0x4f0
 190:	45544e4f 	ldrbmi	r4, [r4, #-3663]	; 0xe4f
 194:	e9005458 	stmdb	r0, {r3, r4, r6, sl, ip, lr}
 198:	53000001 	movwpl	r0, #1
 19c:	49535345 	ldmdbmi	r3, {r0, r2, r6, r8, r9, ip, lr}^
 1a0:	435f4e4f 	cmpmi	pc, #1264	; 0x4f0
 1a4:	45544e4f 	ldrbmi	r4, [r4, #-3663]	; 0xe4f
 1a8:	f4005458 	vst3.16	{d5-d7}, [r0, :64], r8
 1ac:	5f000001 	svcpl	0x00000001
 1b0:	41524150 	cmpmi	r2, r0, asr r1
 1b4:	454d5f4d 	strbmi	r5, [sp, #-3917]	; 0xf4d
 1b8:	445f4154 	ldrbmi	r4, [pc], #340	; 1c0 <PHY_OFFSET-0x70007e40>
 1bc:	00415441 	subeq	r5, r1, r1, asr #8
 1c0:	0000021d 	andeq	r0, r0, sp, lsl r2
 1c4:	41524150 	cmpmi	r2, r0, asr r1
 1c8:	454d5f4d 	strbmi	r5, [sp, #-3917]	; 0xf4d
 1cc:	445f4154 	ldrbmi	r4, [pc], #340	; 1d4 <PHY_OFFSET-0x70007e2c>
 1d0:	00415441 	subeq	r5, r1, r1, asr #8
 1d4:	00000228 	andeq	r0, r0, r8, lsr #4
 1d8:	5f5a545f 	svcpl	0x005a545f
 1dc:	5f444d43 	svcpl	0x00444d43
 1e0:	41544144 	cmpmi	r4, r4, asr #2
 1e4:	0002b700 	andeq	fp, r2, r0, lsl #14
 1e8:	5f5a5400 	svcpl	0x005a5400
 1ec:	5f444d43 	svcpl	0x00444d43
 1f0:	41544144 	cmpmi	r4, r4, asr #2
 1f4:	0002c200 	andeq	ip, r2, r0, lsl #4
 1f8:	45455400 	strbmi	r5, [r5, #-1024]	; 0x400
 1fc:	474f4c5f 	smlsldmi	r4, pc, pc, ip
 200:	00004e49 	andeq	r4, r0, r9, asr #28
 204:	51000000 	tstpl	r0, r0
 208:	02000000 	andeq	r0, r0, #0
 20c:	000e7200 	andeq	r7, lr, r0, lsl #4
 210:	00043800 	andeq	r3, r4, r0, lsl #16
 214:	00002c00 	andeq	r2, r0, r0, lsl #24
 218:	765f5f00 	ldrbvc	r5, [pc], -r0, lsl #30
 21c:	696c5f61 	stmdbvs	ip!, {r0, r5, r6, r8, r9, sl, fp, ip, lr}^
 220:	21007473 	tstcs	r0, r3, ror r4
 224:	5f000000 	svcpl	0x00000000
 228:	756e675f 	strbvc	r6, [lr, #-1887]!	; 0x75f
 22c:	61765f63 	cmnvs	r6, r3, ror #30
 230:	73696c5f 	cmnvc	r9, #24320	; 0x5f00
 234:	00460074 	subeq	r0, r6, r4, ror r0
 238:	61760000 	cmnvs	r6, r0
 23c:	73696c5f 	cmnvc	r9, #24320	; 0x5f00
 240:	00510074 	subseq	r0, r1, r4, ror r0
 244:	69750000 	ldmdbvs	r5!, {}^
 248:	3233746e 	eorscc	r7, r3, #1845493760	; 0x6e000000
 24c:	8600745f 	undefined instruction 0x8600745f
 250:	62000000 	andvs	r0, r0, #0
 254:	006c6f6f 	rsbeq	r6, ip, pc, ror #30
 258:	00000000 	andeq	r0, r0, r0
 25c:	00000041 	andeq	r0, r0, r1, asr #32
 260:	12aa0002 	adcne	r0, sl, #2
 264:	03360000 	teqeq	r6, #0
 268:	00210000 	eoreq	r0, r1, r0
 26c:	69750000 	ldmdbvs	r5!, {}^
 270:	3233746e 	eorscc	r7, r3, #1845493760	; 0x6e000000
 274:	3300745f 	movwcc	r7, #1119	; 0x45f
 278:	69000000 	stmdbvs	r0, {}
 27c:	3233746e 	eorscc	r7, r3, #1845493760	; 0x6e000000
 280:	6100745f 	tstvs	r0, pc, asr r4
 284:	75000000 	strvc	r0, [r0]
 288:	36746e69 	ldrbtcc	r6, [r4], -r9, ror #28
 28c:	00745f34 	rsbseq	r5, r4, r4, lsr pc
 290:	0000009f 	muleq	r0, pc, r0
 294:	646c6c75 	strbtvs	r6, [ip], #-3189	; 0xc75
 298:	745f7669 	ldrbvc	r7, [pc], #1641	; 2a0 <PHY_OFFSET-0x70007d60>
 29c:	00000000 	andeq	r0, r0, r0
	...

Disassembly of section .debug_str:

00000000 <.debug_str>:
   0:	5f454554 	svcpl	0x00454554
   4:	41524150 	cmpmi	r2, r0, asr r1
   8:	59545f4d 	ldmdbpl	r4, {r0, r2, r3, r6, r8, r9, sl, fp, ip, lr}^
   c:	4d5f4550 	cfldr64mi	mvdx4, [pc, #-320]	; 0xfffffec0
  10:	45524d45 	ldrbmi	r4, [r2, #-3397]	; 0xd45
  14:	554f5f46 	strbpl	r5, [pc, #-3910]	; fffff0d6 <_CLIENT_END+0x8ffbf0d6>
  18:	54555054 	ldrbpl	r5, [r5], #-84	; 0x54
  1c:	45455400 	strbmi	r5, [r5, #-1024]	; 0x400
  20:	5241505f 	subpl	r5, r1, #95	; 0x5f
  24:	545f4d41 	ldrbpl	r4, [pc], #3393	; 2c <PHY_OFFSET-0x70007fd4>
  28:	5f455059 	svcpl	0x00455059
  2c:	554c4156 	strbpl	r4, [ip, #-342]	; 0x156
  30:	4e495f45 	cdpmi	15, 4, cr5, cr9, cr5, {2}
  34:	0054554f 	subseq	r5, r4, pc, asr #10
  38:	20554e47 	subscs	r4, r5, r7, asr #28
  3c:	2e342043 	cdpcs	0, 3, cr2, cr4, cr3, {2}
  40:	00312e35 	eorseq	r2, r1, r5, lsr lr
  44:	5f454554 	svcpl	0x00454554
  48:	61726150 	cmnvs	r2, r0, asr r1
  4c:	4554006d 	ldrbmi	r0, [r4, #-109]	; 0x6d
  50:	41505f45 	cmpmi	r0, r5, asr #30
  54:	5f4d4152 	svcpl	0x004d4152
  58:	45505954 	ldrbmi	r5, [r0, #-2388]	; 0x954
  5c:	4c41565f 	mcrrmi	6, 5, r5, r1, cr15
  60:	4f5f4555 	svcmi	0x005f4555
  64:	55505455 	ldrbpl	r5, [r0, #-1109]	; 0x455
  68:	61740054 	cmnvs	r4, r4, asr r0
  6c:	735f6b73 	cmpvc	pc, #117760	; 0x1cc00
  70:	6e697274 	mcrvs	2, 3, r7, cr9, cr4, {3}
  74:	75755f67 	ldrbvc	r5, [r5, #-3943]!	; 0xf67
  78:	50006469 	andpl	r6, r0, r9, ror #8
  7c:	746e6972 	strbtvc	r6, [lr], #-2418	; 0x972
  80:	44495555 	strbmi	r5, [r9], #-1365	; 0x555
  84:	696c4300 	stmdbvs	ip!, {r8, r9, lr}^
  88:	5f746e65 	svcpl	0x00746e65
  8c:	6e697250 	mcrvs	2, 3, r7, cr9, cr0, {2}
  90:	53006674 	movwpl	r6, #1652	; 0x674
  94:	4e495254 	mcrmi	2, 2, r5, cr9, cr4, {2}
  98:	50555f47 	subspl	r5, r5, r7, asr #30
  9c:	5f524550 	svcpl	0x00524550
  a0:	4d4d4f43 	stclmi	15, cr4, [sp, #-268]	; 0xfffffef4
  a4:	00444e41 	subeq	r4, r4, r1, asr #28
  a8:	5345535f 	movtpl	r5, #21343	; 0x535f
  ac:	4e4f4953 	mcrmi	9, 2, r4, cr15, cr3, {2}
  b0:	4e4f435f 	mcrmi	3, 2, r4, cr15, cr15, {2}
  b4:	54584554 	ldrbpl	r4, [r8], #-1364	; 0x554
  b8:	6e6f6c00 	cdpvs	12, 6, cr6, cr15, cr0, {0}
  bc:	6f6c2067 	svcvs	0x006c2067
  c0:	7520676e 	strvc	r6, [r0, #-1902]!	; 0x76e
  c4:	6769736e 	strbvs	r7, [r9, -lr, ror #6]!
  c8:	2064656e 	rsbcs	r6, r4, lr, ror #10
  cc:	00746e69 	rsbseq	r6, r4, r9, ror #28
  d0:	64656d2f 	strbtvs	r6, [r5], #-3375	; 0xd2f
  d4:	442f6169 	strtmi	r6, [pc], #361	; dc <PHY_OFFSET-0x70007f24>
  d8:	6e696c2f 	cdpvs	12, 6, cr6, cr9, cr15, {1}
  dc:	732d7875 	teqvc	sp, #7667712	; 0x750000
  e0:	65726168 	ldrbvs	r6, [r2, #-360]!	; 0x168
  e4:	6f72702f 	svcvs	0x0072702f
  e8:	7463656a 	strbtvc	r6, [r3], #-1386	; 0x56a
  ec:	72742f73 	rsbsvc	r2, r4, #460	; 0x1cc
  f0:	7a747375 	bvc	1d1cecc <PHY_OFFSET-0x6e2eb134>
  f4:	2f656e6f 	svccs	0x00656e6f
  f8:	65696c63 	strbvs	r6, [r9, #-3171]!	; 0xc63
  fc:	732f746e 	teqvc	pc, #1845493760	; 0x6e000000
 100:	622f6372 	eorvs	r6, pc, #-939524095	; 0xc8000001
 104:	6472616f 	ldrbtvs	r6, [r2], #-367	; 0x16f
 108:	69616d2f 	stmdbvs	r1!, {r0, r1, r2, r3, r5, r8, sl, fp, sp, lr}^
 10c:	00632e6e 	rsbeq	r2, r3, lr, ror #28
 110:	726f6873 	rsbvc	r6, pc, #7536640	; 0x730000
 114:	6e752074 	mrcvs	0, 3, r2, cr5, cr4, {3}
 118:	6e676973 	mcrvs	9, 3, r6, cr7, cr3, {3}
 11c:	69206465 	stmdbvs	r0!, {r0, r2, r5, r6, sl, sp, lr}
 120:	5400746e 	strpl	r7, [r0], #-1134	; 0x46e
 124:	505f4545 	subspl	r4, pc, r5, asr #10
 128:	4d415241 	sfmmi	f5, 2, [r1, #-260]	; (stclmi 2, cr5, [r1, #-260])	; 0xfffffefc
 12c:	5059545f 	subspl	r5, r9, pc, asr r4
 130:	69740045 	ldmdbvs	r4!, {r0, r2, r6}^
 134:	6948656d 	stmdbvs	r8, {r0, r2, r3, r5, r6, r8, sl, sp, lr}^
 138:	56646e41 	strbtpl	r6, [r4], -r1, asr #28
 13c:	69737265 	ldmdbvs	r3!, {r0, r2, r5, r6, r9, ip, sp, lr}^
 140:	54006e6f 	strpl	r6, [r0], #-3695	; 0xe6f
 144:	505f4545 	subspl	r4, pc, r5, asr #10
 148:	4d415241 	sfmmi	f5, 2, [r1, #-260]	; (stclmi 2, cr5, [r1, #-260])	; 0xfffffefc
 14c:	5059545f 	subspl	r5, r9, pc, asr r4
 150:	41565f45 	cmpmi	r6, r5, asr #30
 154:	5f45554c 	svcpl	0x0045554c
 158:	55504e49 	ldrbpl	r4, [r0, #-3657]	; 0xe49
 15c:	5f670054 	svcpl	0x00670054
 160:	63617473 	cmnvs	r1, #1929379840	; 0x73000000
 164:	62615f6b 	rsbvs	r5, r1, #428	; 0x1ac
 168:	45540074 	ldrbmi	r0, [r4, #-116]	; 0x74
 16c:	55555f45 	ldrbpl	r5, [r5, #-3909]	; 0xf45
 170:	75004449 	strvc	r4, [r0, #-1097]	; 0x449
 174:	6769736e 	strbvs	r7, [r9, -lr, ror #6]!
 178:	2064656e 	rsbcs	r6, r4, lr, ror #10
 17c:	72616863 	rsbvc	r6, r1, #6488064	; 0x630000
 180:	72617000 	rsbvc	r7, r1, #0
 184:	00736d61 	rsbseq	r6, r3, r1, ror #26
 188:	73736573 	cmnvc	r3, #482344960	; 0x1cc00000
 18c:	5f6e6f69 	svcpl	0x006e6f69
 190:	746e6f63 	strbtvc	r6, [lr], #-3939	; 0xf63
 194:	00747865 	rsbseq	r7, r4, r5, ror #16
 198:	656d6974 	strbvs	r6, [sp, #-2420]!	; 0x974
 19c:	00776f4c 	rsbseq	r6, r7, ip, asr #30
 1a0:	616c6544 	cmnvs	ip, r4, asr #10
 1a4:	616d0079 	smcvs	53257	; 0xd009
 1a8:	67006e69 	strvs	r6, [r0, -r9, ror #28]
 1ac:	6174735f 	cmnvs	r4, pc, asr r3
 1b0:	695f6b63 	ldmdbvs	pc, {r0, r1, r5, r6, r8, r9, fp, sp, lr}^
 1b4:	74007172 	strvc	r7, [r0], #-370	; 0x172
 1b8:	4d656d69 	stclmi	13, cr6, [r5, #-420]!	; 0xfffffe5c
 1bc:	54006469 	strpl	r6, [r0], #-1129	; 0x469
 1c0:	505f4545 	subspl	r4, pc, r5, asr #10
 1c4:	4d415241 	sfmmi	f5, 2, [r1, #-260]	; (stclmi 2, cr5, [r1, #-260])	; 0xfffffefc
 1c8:	5059545f 	subspl	r5, r9, pc, asr r4
 1cc:	4f4e5f45 	svcmi	0x004e5f45
 1d0:	5300454e 	movwpl	r4, #1358	; 0x54e
 1d4:	4e495254 	mcrmi	2, 2, r5, cr9, cr4, {2}
 1d8:	4f4c5f47 	svcmi	0x004c5f47
 1dc:	5f524557 	svcpl	0x00524557
 1e0:	4d4d4f43 	stclmi	15, cr4, [sp, #-268]	; 0xfffffef4
 1e4:	00444e41 	subeq	r4, r4, r1, asr #28
 1e8:	746e6975 	strbtvc	r6, [lr], #-2421	; 0x975
 1ec:	00745f38 	rsbseq	r5, r4, r8, lsr pc
 1f0:	6c6c696d 	stclvs	9, cr6, [ip], #-436	; 0xfffffe4c
 1f4:	6365735f 	cmnvs	r5, #2080374785	; 0x7c000001
 1f8:	73646e6f 	cmnvc	r4, #1776	; 0x6f0
 1fc:	72617000 	rsbvc	r7, r1, #0
 200:	745f6d61 	ldrbvc	r6, [pc], #3425	; 208 <PHY_OFFSET-0x70007df8>
 204:	00657079 	rsbeq	r7, r5, r9, ror r0
 208:	4b534154 	blmi	14d0760 <PHY_OFFSET-0x6eb378a0>
 20c:	5254535f 	subspl	r5, r4, #2080374785	; 0x7c000001
 210:	5f474e49 	svcpl	0x00474e49
 214:	4d4d4f43 	stclmi	15, cr4, [sp, #-268]	; 0xfffffef4
 218:	00444e41 	subeq	r4, r4, r1, asr #28
 21c:	5f454554 	svcpl	0x00454554
 220:	41524150 	cmpmi	r2, r0, asr r1
 224:	59545f4d 	ldmdbpl	r4, {r0, r2, r3, r6, r8, r9, sl, fp, ip, lr}^
 228:	4d5f4550 	cfldr64mi	mvdx4, [pc, #-320]	; 0xfffffec0
 22c:	45524d45 	ldrbmi	r4, [r2, #-3397]	; 0xd45
 230:	4e495f46 	cdpmi	15, 4, cr5, cr9, cr6, {2}
 234:	00545550 	subseq	r5, r4, r0, asr r5
 238:	74735f67 	ldrbtvc	r5, [r3], #-3943	; 0xf67
 23c:	5f6b6361 	svcpl	0x006b6361
 240:	00737973 	rsbseq	r7, r3, r3, ror r9
 244:	31306c70 	teqcc	r0, r0, ror ip
 248:	61755f31 	cmnvs	r5, r1, lsr pc
 24c:	695f7472 	ldmdbvs	pc, {r1, r4, r5, r6, sl, ip, sp, lr}^
 250:	0074696e 	rsbseq	r6, r4, lr, ror #18
 254:	676e6f6c 	strbvs	r6, [lr, -ip, ror #30]!
 258:	6e6f6c20 	cdpvs	12, 6, cr6, cr15, cr0, {1}
 25c:	6e692067 	cdpvs	0, 6, cr2, cr9, cr7, {3}
 260:	6c630074 	stclvs	0, cr0, [r3], #-464	; 0xfffffe30
 264:	536b636f 	cmnpl	fp, #-1140850687	; 0xbc000001
 268:	6e417165 	dvfvssz	f7, f1, f5
 26c:	646f4e64 	strbtvs	r4, [pc], #3684	; 274 <PHY_OFFSET-0x70007d8c>
 270:	65730065 	ldrbvs	r0, [r3, #-101]!	; 0x65
 274:	6f697373 	svcvs	0x00697373
 278:	64695f6e 	strbtvs	r5, [r9], #-3950	; 0xf6e
 27c:	6f687300 	svcvs	0x00687300
 280:	69207472 	stmdbvs	r0!, {r1, r4, r5, r6, sl, ip, sp, lr}
 284:	6700746e 	strvs	r7, [r0, -lr, ror #8]
 288:	6174735f 	cmnvs	r4, pc, asr r3
 28c:	735f6b63 	cmpvc	pc, #101376	; 0x18c00
 290:	75006376 	strvc	r6, [r0, #-886]	; 0x376
 294:	31746e69 	cmncc	r4, r9, ror #28
 298:	00745f36 	rsbseq	r5, r4, r6, lsr pc
 29c:	74735f67 	ldrbtvc	r5, [r3], #-3943	; 0xf67
 2a0:	5f6b6361 	svcpl	0x006b6361
 2a4:	00716966 	rsbseq	r6, r1, r6, ror #18
 2a8:	746e6975 	strbtvc	r6, [lr], #-2421	; 0x975
 2ac:	745f3233 	ldrbvc	r3, [pc], #563	; 2b4 <PHY_OFFSET-0x70007d4c>
 2b0:	696c6300 	stmdbvs	ip!, {r8, r9, sp, lr}^
 2b4:	5f746e65 	svcpl	0x00746e65
 2b8:	64697575 	strbtvs	r7, [r9], #-1397	; 0x575
 2bc:	7a697300 	bvc	1a5cec4 <PHY_OFFSET-0x6e5ab13c>
 2c0:	45540065 	ldrbmi	r0, [r4, #-101]	; 0x65
 2c4:	41505f45 	cmpmi	r0, r5, asr #30
 2c8:	5f4d4152 	svcpl	0x004d4152
 2cc:	45505954 	ldrbmi	r5, [r0, #-2388]	; 0x954
 2d0:	4d454d5f 	stclmi	13, cr4, [r5, #-380]	; 0xfffffe84
 2d4:	5f464552 	svcpl	0x00464552
 2d8:	554f4e49 	strbpl	r4, [pc, #-3657]	; fffff497 <_CLIENT_END+0x8ffbf497>
 2dc:	656d0054 	strbvs	r0, [sp, #-84]!	; 0x54
 2e0:	6665726d 	strbtvs	r7, [r5], -sp, ror #4
 2e4:	735f6700 	cmpvc	pc, #0
 2e8:	6b636174 	blvs	18d88c0 <PHY_OFFSET-0x6e72f740>
 2ec:	646e755f 	strbtvs	r7, [lr], #-1375	; 0x55f
 2f0:	6c006665 	stcvs	6, cr6, [r0], {101}	; 0x65
 2f4:	5f687263 	svcpl	0x00687263
 2f8:	00676572 	rsbeq	r6, r7, r2, ror r5
 2fc:	5f676572 	svcpl	0x00676572
 300:	00727470 	rsbseq	r7, r2, r0, ror r4
 304:	64616572 	strbtvs	r6, [r1], #-1394	; 0x572
 308:	7261755f 	rsbvc	r7, r1, #398458880	; 0x17c00000
 30c:	61750074 	cmnvs	r5, r4, ror r0
 310:	64697472 	strbtvs	r7, [r9], #-1138	; 0x472
 314:	646e6900 	strbtvs	r6, [lr], #-2304	; 0x900
 318:	2f007865 	svccs	0x00007865
 31c:	6964656d 	stmdbvs	r4!, {r0, r2, r3, r5, r6, r8, sl, sp, lr}^
 320:	2f442f61 	svccs	0x00442f61
 324:	756e696c 	strbvc	r6, [lr, #-2412]!	; 0x96c
 328:	68732d78 	ldmdavs	r3!, {r3, r4, r5, r6, r8, sl, fp, sp}^
 32c:	2f657261 	svccs	0x00657261
 330:	6a6f7270 	bvs	1bdccf8 <PHY_OFFSET-0x6e42b308>
 334:	73746365 	cmnvc	r4, #-1811939327	; 0x94000001
 338:	7572742f 	ldrbvc	r7, [r2, #-1071]!	; 0x42f
 33c:	6f7a7473 	svcvs	0x007a7473
 340:	632f656e 	teqvs	pc, #461373440	; 0x1b800000
 344:	6e65696c 	cdpvs	9, 6, cr6, cr5, cr12, {3}
 348:	72732f74 	rsbsvc	r2, r3, #464	; 0x1d0
 34c:	6f622f63 	svcvs	0x00622f63
 350:	2f647261 	svccs	0x00647261
 354:	74726175 	ldrbtvc	r6, [r2], #-373	; 0x175
 358:	7000632e 	andvc	r6, r0, lr, lsr #6
 35c:	3131306c 	teqcc	r1, ip, rrx
 360:	7261755f 	rsbvc	r7, r1, #398458880	; 0x17c00000
 364:	75705f74 	ldrbvc	r5, [r0, #-3956]!	; 0xf74
 368:	70006374 	andvc	r6, r0, r4, ror r3
 36c:	3131306c 	teqcc	r1, ip, rrx
 370:	7261755f 	rsbvc	r7, r1, #398458880	; 0x17c00000
 374:	75705f74 	ldrbvc	r5, [r0, #-3956]!	; 0xf74
 378:	75007374 	strvc	r7, [r0, #-884]	; 0x374
 37c:	5f747261 	svcpl	0x00747261
 380:	72006469 	andvc	r6, r0, #1761607680	; 0x69000000
 384:	6f5f6765 	svcvs	0x005f6765
 388:	00736666 	rsbseq	r6, r3, r6, ror #12
 38c:	5f746567 	svcpl	0x00746567
 390:	74726175 	ldrbtvc	r6, [r2], #-373	; 0x175
 394:	7361625f 	cmnvc	r1, #-268435451	; 0xf0000005
 398:	64615f65 	strbtvs	r5, [r1], #-3941	; 0xf65
 39c:	77007264 	strvc	r7, [r0, -r4, ror #4]
 3a0:	65746972 	ldrbvs	r6, [r4, #-2418]!	; 0x972
 3a4:	7261755f 	rsbvc	r7, r1, #398458880	; 0x17c00000
 3a8:	614d0074 	cmpvs	sp, r4, ror r0
 3ac:	636f6c6c 	cmnvs	pc, #27648	; 0x6c00
 3b0:	74696e49 	strbtvc	r6, [r9], #-3657	; 0xe49
 3b4:	696c4300 	stmdbvs	ip!, {r8, r9, lr}^
 3b8:	5f746e65 	svcpl	0x00746e65
 3bc:	466d654d 	strbtmi	r6, [sp], -sp, asr #10
 3c0:	006c6c69 	rsbeq	r6, ip, r9, ror #24
 3c4:	74735f70 	ldrbtvc	r5, [r3], #-3952	; 0xf70
 3c8:	65640072 	strbvs	r0, [r4, #-114]!	; 0x72
 3cc:	55007473 	strpl	r7, [r0, #-1139]	; 0x473
 3d0:	4d726573 	cfldr64mi	mvdx6, [r2, #-460]!	; 0xfffffe34
 3d4:	6f6c6c61 	svcvs	0x006c6c61
 3d8:	69730063 	ldmdbvs	r3!, {r0, r1, r5, r6}^
 3dc:	745f657a 	ldrbvc	r6, [pc], #1402	; 3e4 <PHY_OFFSET-0x70007c1c>
 3e0:	6f6f6200 	svcvs	0x006f6200
 3e4:	7375006c 	cmnvc	r5, #108	; 0x6c
 3e8:	6d5f7265 	lfmvs	f7, 2, [pc, #-404]	; (ldclvs 2, cr7, [pc, #-404])	; 0xfffffe6c
 3ec:	665f6d65 	ldrbvs	r6, [pc], -r5, ror #26
 3f0:	0067616c 	rsbeq	r6, r7, ip, ror #2
 3f4:	6e72654b 	cdpvs	5, 7, cr6, cr2, cr11, {2}
 3f8:	72466c65 	subvc	r6, r6, #25856	; 0x6500
 3fc:	61006565 	tstvs	r0, r5, ror #10
 400:	65726464 	ldrbvs	r6, [r2, #-1124]!	; 0x464
 404:	75007373 	strvc	r7, [r0, #-883]	; 0x373
 408:	5f726573 	svcpl	0x00726573
 40c:	006d656d 	rsbeq	r6, sp, sp, ror #10
 410:	65696c43 	strbvs	r6, [r9, #-3139]!	; 0xc43
 414:	535f746e 	cmppl	pc, #1845493760	; 0x6e000000
 418:	6f437274 	svcvs	0x00437274
 41c:	6b007970 	blvs	1e9e4 <PHY_OFFSET-0x6ffe961c>
 420:	656e7265 	strbvs	r7, [lr, #-613]!	; 0x265
 424:	656d5f6c 	strbvs	r5, [sp, #-3948]!	; 0xf6c
 428:	6c665f6d 	stclvs	15, cr5, [r6], #-436	; 0xfffffe4c
 42c:	4b006761 	blmi	1a1b8 <PHY_OFFSET-0x6ffede48>
 430:	656e7265 	strbvs	r7, [lr, #-613]!	; 0x265
 434:	6c614d6c 	stclvs	13, cr4, [r1], #-432	; 0xfffffe50
 438:	00636f6c 	rsbeq	r6, r3, ip, ror #30
 43c:	73645f70 	cmnvc	r4, #448	; 0x1c0
 440:	43003174 	movwmi	r3, #372	; 0x174
 444:	6e65696c 	cdpvs	9, 6, cr6, cr5, cr12, {3}
 448:	74535f74 	ldrbvc	r5, [r3], #-3956	; 0xf74
 44c:	6e654c72 	mcrvs	12, 3, r4, cr5, cr2, {3}
 450:	72656b00 	rsbvc	r6, r5, #0
 454:	5f6c656e 	svcpl	0x006c656e
 458:	006d656d 	rsbeq	r6, sp, sp, ror #10
 45c:	72735f70 	rsbsvc	r5, r3, #448	; 0x1c0
 460:	4d003163 	stfmis	f3, [r0, #-396]	; 0xfffffe74
 464:	6f4d6d65 	svcvs	0x004d6d65
 468:	2f006576 	svccs	0x00006576
 46c:	6964656d 	stmdbvs	r4!, {r0, r2, r3, r5, r6, r8, sl, sp, lr}^
 470:	2f442f61 	svccs	0x00442f61
 474:	756e696c 	strbvc	r6, [lr, #-2412]!	; 0x96c
 478:	68732d78 	ldmdavs	r3!, {r3, r4, r5, r6, r8, sl, fp, sp}^
 47c:	2f657261 	svccs	0x00657261
 480:	6a6f7270 	bvs	1bdce48 <PHY_OFFSET-0x6e42b1b8>
 484:	73746365 	cmnvc	r4, #-1811939327	; 0x94000001
 488:	7572742f 	ldrbvc	r7, [r2, #-1071]!	; 0x42f
 48c:	6f7a7473 	svcvs	0x007a7473
 490:	632f656e 	teqvs	pc, #461373440	; 0x1b800000
 494:	6e65696c 	cdpvs	9, 6, cr6, cr5, cr12, {3}
 498:	72732f74 	rsbsvc	r2, r3, #464	; 0x1d0
 49c:	6f622f63 	svcvs	0x00622f63
 4a0:	2f647261 	svccs	0x00647261
 4a4:	5f6d656d 	svcpl	0x006d656d
 4a8:	2e676e6d 	cdpcs	14, 6, cr6, cr7, cr13, {3}
 4ac:	73550063 	cmpvc	r5, #99	; 0x63
 4b0:	72467265 	subvc	r7, r6, #1342177286	; 0x50000006
 4b4:	54006565 	strpl	r6, [r0], #-1381	; 0x565
 4b8:	4c5f4545 	cfldr64mi	mvdx4, [pc], {69}	; 0x45
 4bc:	4e49474f 	cdpmi	7, 4, cr4, cr9, cr15, {2}
 4c0:	656d2f00 	strbvs	r2, [sp, #-3840]!	; 0xf00
 4c4:	2f616964 	svccs	0x00616964
 4c8:	696c2f44 	stmdbvs	ip!, {r2, r6, r8, r9, sl, fp, sp}^
 4cc:	2d78756e 	cfldr64cs	mvdx7, [r8, #-440]!	; 0xfffffe48
 4d0:	72616873 	rsbvc	r6, r1, #7536640	; 0x730000
 4d4:	72702f65 	rsbsvc	r2, r0, #404	; 0x194
 4d8:	63656a6f 	cmnvs	r5, #454656	; 0x6f000
 4dc:	742f7374 	strtvc	r7, [pc], #884	; 4e4 <PHY_OFFSET-0x70007b1c>
 4e0:	74737572 	ldrbtvc	r7, [r3], #-1394	; 0x572
 4e4:	656e6f7a 	strbvs	r6, [lr, #-3962]!	; 0xf7a
 4e8:	696c632f 	stmdbvs	ip!, {r0, r1, r2, r3, r5, r8, r9, sp, lr}^
 4ec:	2f746e65 	svccs	0x00746e65
 4f0:	2f637273 	svccs	0x00637273
 4f4:	72616f62 	rsbvc	r6, r1, #392	; 0x188
 4f8:	656b2f64 	strbvs	r2, [fp, #-3940]!	; 0xf64
 4fc:	6c656e72 	stclvs	14, cr6, [r5], #-456	; 0xfffffe38
 500:	79616c5f 	stmdbvc	r1!, {r0, r1, r2, r3, r4, r6, sl, fp, sp, lr}^
 504:	632e7265 	teqvs	lr, #1342177286	; 0x50000006
 508:	6d6f6300 	stclvs	3, cr6, [pc]
 50c:	646e616d 	strbtvs	r6, [lr], #-365	; 0x16d
 510:	45455400 	strbmi	r5, [r5, #-1024]	; 0x400
 514:	474f4c5f 	smlsldmi	r4, pc, pc, ip
 518:	505f4e49 	subspl	r4, pc, r9, asr #28
 51c:	494c4255 	stmdbmi	ip, {r0, r2, r4, r6, r9, lr}^
 520:	73750043 	cmnvc	r5, #67	; 0x43
 524:	64615f72 	strbtvs	r5, [r1], #-3954	; 0xf72
 528:	54007264 	strpl	r7, [r0], #-612	; 0x264
 52c:	4c5f4545 	cfldr64mi	mvdx4, [pc], {69}	; 0x45
 530:	4e49474f 	cdpmi	7, 4, cr4, cr9, cr15, {2}
 534:	5552545f 	ldrbpl	r5, [r2, #-1119]	; 0x45f
 538:	44455453 	strbmi	r5, [r5], #-1107	; 0x453
 53c:	5050415f 	subspl	r4, r0, pc, asr r1
 540:	45455400 	strbmi	r5, [r5, #-1024]	; 0x400
 544:	45504f5f 	ldrbmi	r4, [r0, #-3935]	; 0xf5f
 548:	49544152 	ldmdbmi	r4, {r1, r4, r6, r8, lr}^
 54c:	495f4e4f 	ldmdbmi	pc, {r0, r1, r2, r3, r6, r9, sl, fp, lr}^
 550:	4b4f564e 	blmi	13d5e90 <PHY_OFFSET-0x6ec32170>
 554:	4f435f45 	svcmi	0x00435f45
 558:	4e414d4d 	cdpmi	13, 4, cr4, cr1, cr13, {2}
 55c:	6e490044 	cdpvs	0, 4, cr0, cr9, cr4, {2}
 560:	656b6f76 	strbvs	r6, [fp, #-3958]!	; 0xf76
 564:	73736553 	cmnvc	r3, #348127232	; 0x14c00000
 568:	436e6f69 	cmnmi	lr, #420	; 0x1a4
 56c:	616d6d6f 	cmnvs	sp, pc, ror #26
 570:	5400646e 	strpl	r6, [r0], #-1134	; 0x46e
 574:	4c5f4545 	cfldr64mi	mvdx4, [pc], {69}	; 0x45
 578:	4e49474f 	cdpmi	7, 4, cr4, cr9, cr15, {2}
 57c:	4553555f 	ldrbmi	r5, [r3, #-1375]	; 0x55f
 580:	45540052 	ldrbmi	r0, [r4, #-82]	; 0x52
 584:	4f4c5f45 	svcmi	0x004c5f45
 588:	5f4e4947 	svcpl	0x004e4947
 58c:	4c505041 	mrrcmi	0, 4, r5, r0, cr1
 590:	54414349 	strbpl	r4, [r1], #-841	; 0x349
 594:	5f4e4f49 	svcpl	0x004e4f49
 598:	52455355 	subpl	r5, r5, #1409286145	; 0x54000001
 59c:	45455400 	strbmi	r5, [r5, #-1024]	; 0x400
 5a0:	45504f5f 	ldrbmi	r4, [r0, #-3935]	; 0xf5f
 5a4:	49544152 	ldmdbmi	r4, {r1, r4, r6, r8, lr}^
 5a8:	435f4e4f 	cmpmi	pc, #1264	; 0x4f0
 5ac:	45534f4c 	ldrbmi	r4, [r3, #-3916]	; 0xf4c
 5b0:	5345535f 	movtpl	r5, #21343	; 0x535f
 5b4:	4e4f4953 	mcrmi	9, 2, r4, cr15, cr3, {2}
 5b8:	45455400 	strbmi	r5, [r5, #-1024]	; 0x400
 5bc:	45504f5f 	ldrbmi	r4, [r0, #-3935]	; 0xf5f
 5c0:	49544152 	ldmdbmi	r4, {r1, r4, r6, r8, lr}^
 5c4:	4f5f4e4f 	svcmi	0x005f4e4f
 5c8:	5f4e4550 	svcpl	0x004e4550
 5cc:	53534553 	cmppl	r3, #348127232	; 0x14c00000
 5d0:	004e4f49 	subeq	r4, lr, r9, asr #30
 5d4:	75746572 	ldrbvc	r6, [r4, #-1394]!	; 0x572
 5d8:	6f5f6e72 	svcvs	0x005f6e72
 5dc:	69676972 	stmdbvs	r7!, {r1, r4, r5, r6, r8, fp, sp, lr}^
 5e0:	6f63006e 	svcvs	0x0063006e
 5e4:	6e616d6d 	cdpvs	13, 6, cr6, cr1, cr13, {3}
 5e8:	64695f64 	strbtvs	r5, [r9], #-3940	; 0xf64
 5ec:	45455400 	strbmi	r5, [r5, #-1024]	; 0x400
 5f0:	474f4c5f 	smlsldmi	r4, pc, pc, ip
 5f4:	415f4e49 	cmpmi	pc, r9, asr #28
 5f8:	494c5050 	stmdbmi	ip, {r4, r6, ip, lr}^
 5fc:	49544143 	ldmdbmi	r4, {r0, r1, r6, r8, lr}^
 600:	475f4e4f 	ldrbmi	r4, [pc, -pc, asr #28]
 604:	50554f52 	subspl	r4, r5, r2, asr pc
 608:	5a545f00 	bpl	1518210 <PHY_OFFSET-0x6eaefdf0>
 60c:	444d435f 	strbmi	r4, [sp], #-863	; 0x35f
 610:	5441445f 	strbpl	r4, [r1], #-1119	; 0x45f
 614:	45540041 	ldrbmi	r0, [r4, #-65]	; 0x41
 618:	504f5f45 	subpl	r5, pc, r5, asr #30
 61c:	54524145 	ldrbpl	r4, [r2], #-325	; 0x145
 620:	5f4e4f49 	svcpl	0x004e4f49
 624:	45505954 	ldrbmi	r5, [r0, #-2388]	; 0x954
 628:	41505f00 	cmpmi	r0, r0, lsl #30
 62c:	5f4d4152 	svcpl	0x004d4152
 630:	4154454d 	cmpmi	r4, sp, asr #10
 634:	5441445f 	strbpl	r4, [r1], #-1119	; 0x45f
 638:	704f0041 	subvc	r0, pc, r1, asr #32
 63c:	65536e65 	ldrbvs	r6, [r3, #-3685]	; 0xe65
 640:	6f697373 	svcvs	0x00697373
 644:	706f006e 	rsbvc	r0, pc, lr, rrx
 648:	74617265 	strbtvc	r7, [r1], #-613	; 0x265
 64c:	5f6e6f69 	svcpl	0x006e6f69
 650:	65707974 	ldrbvs	r7, [r0, #-2420]!	; 0x974
 654:	74656d00 	strbtvc	r6, [r5], #-3328	; 0xd00
 658:	61645f61 	cmnvs	r4, r1, ror #30
 65c:	43006174 	movwmi	r6, #372	; 0x174
 660:	546c6c61 	strbtpl	r6, [ip], #-3169	; 0xc61
 664:	6e75465a 	mrcvs	6, 3, r4, cr5, cr10, {2}
 668:	6f697463 	svcvs	0x00697463
 66c:	6c43006e 	mcrrvs	0, 6, r0, r3, cr14
 670:	5365736f 	cmnpl	r5, #-1140850687	; 0xbc000001
 674:	69737365 	ldmdbvs	r3!, {r0, r2, r5, r6, r8, r9, ip, sp, lr}^
 678:	74006e6f 	strvc	r6, [r0], #-3695	; 0xe6f
 67c:	6d635f7a 	stclvs	15, cr5, [r3, #-488]!	; 0xfffffe18
 680:	61645f64 	cmnvs	r4, r4, ror #30
 684:	54006174 	strpl	r6, [r0], #-372	; 0x174
 688:	4c5f4545 	cfldr64mi	mvdx4, [pc], {69}	; 0x45
 68c:	4e49474f 	cdpmi	7, 4, cr4, cr9, cr15, {2}
 690:	5050415f 	subspl	r4, r0, pc, asr r1
 694:	4143494c 	cmpmi	r3, ip, asr #18
 698:	4e4f4954 	mcrmi	9, 2, r4, cr15, cr4, {2}
 69c:	45455400 	strbmi	r5, [r5, #-1024]	; 0x400
 6a0:	474f4c5f 	smlsldmi	r4, pc, pc, ip
 6a4:	475f4e49 	ldrbmi	r4, [pc, -r9, asr #28]
 6a8:	50554f52 	subspl	r4, r5, r2, asr pc
 6ac:	656d2f00 	strbvs	r2, [sp, #-3840]!	; 0xf00
 6b0:	2f616964 	svccs	0x00616964
 6b4:	696c2f44 	stmdbvs	ip!, {r2, r6, r8, r9, sl, fp, sp}^
 6b8:	2d78756e 	cfldr64cs	mvdx7, [r8, #-440]!	; 0xfffffe48
 6bc:	72616873 	rsbvc	r6, r1, #7536640	; 0x730000
 6c0:	72702f65 	rsbsvc	r2, r0, #404	; 0x194
 6c4:	63656a6f 	cmnvs	r5, #454656	; 0x6f000
 6c8:	742f7374 	strtvc	r7, [pc], #884	; 6d0 <PHY_OFFSET-0x70007930>
 6cc:	74737572 	ldrbtvc	r7, [r3], #-1394	; 0x572
 6d0:	656e6f7a 	strbvs	r6, [lr, #-3962]!	; 0xf7a
 6d4:	696c632f 	stmdbvs	ip!, {r0, r1, r2, r3, r5, r8, r9, sp, lr}^
 6d8:	2f746e65 	svccs	0x00746e65
 6dc:	2f637273 	svccs	0x00637273
 6e0:	2f62696c 	svccs	0x0062696c
 6e4:	70797463 	rsbsvc	r7, r9, r3, ror #8
 6e8:	00632e65 	rsbeq	r2, r3, r5, ror #28
 6ec:	7974635f 	ldmdbvc	r4!, {r0, r1, r2, r3, r4, r6, r8, r9, sp, lr}^
 6f0:	6c006570 	cfstr32vs	mvfx6, [r0], {112}	; 0x70
 6f4:	74676e65 	strbtvc	r6, [r7], #-3685	; 0xe65
 6f8:	6e695f68 	cdpvs	15, 6, cr5, cr9, cr8, {3}
 6fc:	7469625f 	strbtvc	r6, [r9], #-607	; 0x25f
 700:	68630073 	stmdavs	r3!, {r0, r1, r4, r5, r6}^
 704:	63617261 	cmnvs	r1, #268435462	; 0x10000006
 708:	00726574 	rsbseq	r6, r2, r4, ror r5
 70c:	69736e75 	ldmdbvs	r3!, {r0, r2, r4, r5, r6, r9, sl, fp, sp, lr}^
 710:	64656e67 	strbtvs	r6, [r5], #-3687	; 0xe67
 714:	6c61765f 	stclvs	6, cr7, [r1], #-380	; 0xfffffe84
 718:	335f6575 	cmpcc	pc, #490733568	; 0x1d400000
 71c:	45540032 	ldrbmi	r0, [r4, #-50]	; 0x32
 720:	74535f45 	ldrbvc	r5, [r3], #-3909	; 0xf45
 724:	6e654c72 	mcrvs	12, 3, r4, cr5, cr2, {3}
 728:	74796200 	ldrbtvc	r6, [r9], #-512	; 0x200
 72c:	756e0065 	strbvc	r0, [lr, #-101]!	; 0x65
 730:	666f5f6d 	strbtvs	r5, [pc], -sp, ror #30
 734:	6769645f 	undefined instruction 0x6769645f
 738:	5f737469 	svcpl	0x00737469
 73c:	00323375 	eorseq	r3, r2, r5, ror r3
 740:	69766964 	ldmdbvs	r6!, {r2, r5, r6, r8, fp, sp, lr}^
 744:	5f726f73 	svcpl	0x00726f73
 748:	756c6176 	strbvc	r6, [ip, #-374]!	; 0x176
 74c:	33755f65 	cmncc	r5, #404	; 0x194
 750:	756e0032 	strbvc	r0, [lr, #-50]!	; 0x32
 754:	7265626d 	rsbvc	r6, r5, #-805306362	; 0xd0000006
 758:	3233755f 	eorscc	r7, r3, #398458880	; 0x17c00000
 75c:	675f5f00 	ldrbvs	r5, [pc, -r0, lsl #30]
 760:	5f63756e 	svcpl	0x0063756e
 764:	6c5f6176 	ldfvse	f6, [pc], {118}	; 0x76
 768:	00747369 	rsbseq	r7, r4, r9, ror #6
 76c:	5f77656e 	svcpl	0x0077656e
 770:	5f766964 	svcpl	0x00766964
 774:	006c6176 	rsbeq	r6, ip, r6, ror r1
 778:	755f7369 	ldrbvc	r7, [pc, #-873]	; 417 <PHY_OFFSET-0x70007be9>
 77c:	6769736e 	strbvs	r7, [r9, -lr, ror #6]!
 780:	0064656e 	rsbeq	r6, r4, lr, ror #10
 784:	715f7773 	cmpvc	pc, r3, ror r7
 788:	69746f75 	ldmdbvs	r4!, {r0, r2, r4, r5, r6, r8, r9, sl, fp, sp, lr}^
 78c:	5f746e65 	svcpl	0x00746e65
 790:	756c6176 	strbvc	r6, [ip, #-374]!	; 0x176
 794:	656b0065 	strbvs	r0, [fp, #-101]!	; 0x65
 798:	7a5f7065 	bvc	17dc934 <PHY_OFFSET-0x6e82b6cc>
 79c:	736f7265 	cmnvc	pc, #1342177286	; 0x50000006
 7a0:	656d2f00 	strbvs	r2, [sp, #-3840]!	; 0xf00
 7a4:	2f616964 	svccs	0x00616964
 7a8:	696c2f44 	stmdbvs	ip!, {r2, r6, r8, r9, sl, fp, sp}^
 7ac:	2d78756e 	cfldr64cs	mvdx7, [r8, #-440]!	; 0xfffffe48
 7b0:	72616873 	rsbvc	r6, r1, #7536640	; 0x730000
 7b4:	72702f65 	rsbsvc	r2, r0, #404	; 0x194
 7b8:	63656a6f 	cmnvs	r5, #454656	; 0x6f000
 7bc:	742f7374 	strtvc	r7, [pc], #884	; 7c4 <PHY_OFFSET-0x7000783c>
 7c0:	74737572 	ldrbtvc	r7, [r3], #-1394	; 0x572
 7c4:	656e6f7a 	strbvs	r6, [lr, #-3962]!	; 0xf7a
 7c8:	696c632f 	stmdbvs	ip!, {r0, r1, r2, r3, r5, r8, r9, sp, lr}^
 7cc:	2f746e65 	svccs	0x00746e65
 7d0:	2f637273 	svccs	0x00637273
 7d4:	2f62696c 	svccs	0x0062696c
 7d8:	72707376 	rsbsvc	r7, r0, #-671088639	; 0xd8000001
 7dc:	66746e69 	ldrbtvs	r6, [r4], -r9, ror #28
 7e0:	6100632e 	tstvs	r0, lr, lsr #6
 7e4:	735f6772 	cmpvc	pc, #29884416	; 0x1c80000
 7e8:	6e697274 	mcrvs	2, 3, r7, cr9, cr4, {3}
 7ec:	77730067 	ldrbvc	r0, [r3, -r7, rrx]!
 7f0:	7073765f 	rsbsvc	r7, r3, pc, asr r6
 7f4:	746e6972 	strbtvc	r6, [lr], #-2418	; 0x972
 7f8:	5f5f0066 	svcpl	0x005f0066
 7fc:	6d007061 	stcvs	0, cr7, [r0, #-388]	; 0xfffffe7c
 800:	6e5f7861 	cdpvs	8, 5, cr7, cr15, cr1, {3}
 804:	7a5f6d75 	bvc	17dbde0 <PHY_OFFSET-0x6e82c220>
 808:	736f7265 	cmnvc	pc, #1342177286	; 0x50000006
 80c:	72657a00 	rsbvc	r7, r5, #0
 810:	61705f6f 	cmnvs	r0, pc, ror #30
 814:	6e696464 	cdpvs	4, 6, cr6, cr9, cr4, {3}
 818:	69730067 	ldmdbvs	r3!, {r0, r1, r2, r5, r6}^
 81c:	64656e67 	strbtvs	r6, [r5], #-3687	; 0xe67
 820:	6d756e5f 	ldclvs	14, cr6, [r5, #-380]!	; 0xfffffe84
 824:	0032335f 	eorseq	r3, r2, pc, asr r3
 828:	61765f5f 	cmnvs	r6, pc, asr pc
 82c:	73696c5f 	cmnvc	r9, #24320	; 0x5f00
 830:	72610074 	rsbvc	r0, r1, #116	; 0x74
 834:	6e007367 	cdpvs	3, 0, cr7, cr0, cr7, {3}
 838:	65626d75 	strbvs	r6, [r2, #-3445]!	; 0xd75
 83c:	72700072 	rsbsvc	r0, r0, #114	; 0x72
 840:	5f746e69 	svcpl	0x00746e69
 844:	66667562 	strbtvs	r7, [r6], -r2, ror #10
 848:	6c007265 	sfmvs	f7, 4, [r0], {101}	; (stcvs 2, cr7, [r0], {101})	; 0x65
 84c:	74676e65 	strbtvc	r6, [r7], #-3685	; 0xe65
 850:	6d2f0068 	stcvs	0, cr0, [pc, #-416]!	; 0xfffffe60
 854:	61696465 	cmnvs	r9, r5, ror #8
 858:	6c2f442f 	cfstrsvs	mvf4, [pc], #-188	; 0xffffff44
 85c:	78756e69 	ldmdavc	r5!, {r0, r3, r5, r6, r9, sl, fp, sp, lr}^
 860:	6168732d 	cmnvs	r8, sp, lsr #6
 864:	702f6572 	eorvc	r6, pc, r2, ror r5
 868:	656a6f72 	strbvs	r6, [sl, #-3954]!	; 0xf72
 86c:	2f737463 	svccs	0x00737463
 870:	73757274 	cmnvc	r5, #1073741831	; 0x40000007
 874:	6e6f7a74 	mcrvs	10, 3, r7, cr15, cr4, {3}
 878:	6c632f65 	stclvs	15, cr2, [r3], #-404	; 0xfffffe6c
 87c:	746e6569 	strbtvc	r6, [lr], #-1385	; 0x569
 880:	6372732f 	cmnvs	r2, #-1140850688	; 0xbc000000
 884:	62696c2f 	rsbvs	r6, r9, #12032	; 0x2f00
 888:	7669642f 	strbtvc	r6, [r9], -pc, lsr #8
 88c:	5f00632e 	svcpl	0x0000632e
 890:	6165615f 	cmnvs	r5, pc, asr r1
 894:	695f6962 	ldmdbvs	pc, {r1, r5, r6, r8, fp, sp, lr}^
 898:	6d766964 	ldclvs	9, cr6, [r6, #-400]!	; 0xfffffe70
 89c:	6900646f 	stmdbvs	r0, {r0, r1, r2, r3, r5, r6, sl, sp, lr}
 8a0:	6f705f73 	svcvs	0x00705f73
 8a4:	5f726577 	svcpl	0x00726577
 8a8:	0032666f 	eorseq	r6, r2, pc, ror #12
 8ac:	65615f5f 	strbvs	r5, [r1, #-3935]!	; 0xf5f
 8b0:	5f696261 	svcpl	0x00696261
 8b4:	69646975 	stmdbvs	r4!, {r0, r2, r4, r5, r6, r8, fp, sp, lr}^
 8b8:	646f6d76 	strbtvs	r6, [pc], #3446	; 8c0 <PHY_OFFSET-0x70007740>
 8bc:	6f757100 	svcvs	0x00757100
 8c0:	5f5f0074 	svcpl	0x005f0074
 8c4:	62616561 	rsbvs	r6, r1, #406847488	; 0x18400000
 8c8:	6c755f69 	ldclvs	15, cr5, [r5], #-420	; 0xfffffe5c
 8cc:	6d766964 	ldclvs	9, cr6, [r6, #-400]!	; 0xfffffe70
 8d0:	725f646f 	subsvc	r6, pc, #1862270976	; 0x6f000000
 8d4:	72756365 	rsbsvc	r6, r5, #-1811939327	; 0x94000001
 8d8:	65766973 	ldrbvs	r6, [r6, #-2419]!	; 0x973
 8dc:	615f5f00 	cmpvs	pc, r0, lsl #30
 8e0:	69626165 	stmdbvs	r2!, {r0, r2, r5, r6, r8, sp, lr}^
 8e4:	6469755f 	strbtvs	r7, [r9], #-1375	; 0x55f
 8e8:	725f7669 	subsvc	r7, pc, #110100480	; 0x6900000
 8ec:	72756365 	rsbsvc	r6, r5, #-1811939327	; 0x94000001
 8f0:	65766973 	ldrbvs	r6, [r6, #-2419]!	; 0x973
 8f4:	6e697500 	cdpvs	5, 6, cr7, cr9, cr0, {0}
 8f8:	5f343674 	svcpl	0x00343674
 8fc:	5f5f0074 	svcpl	0x005f0074
 900:	62616561 	rsbvs	r6, r1, #406847488	; 0x18400000
 904:	64695f69 	strbtvs	r5, [r9], #-3945	; 0xf69
 908:	6f6d7669 	svcvs	0x006d7669
 90c:	65725f64 	ldrbvs	r5, [r2, #-3940]!	; 0xf64
 910:	73727563 	cmnvc	r2, #415236096	; 0x18c00000
 914:	00657669 	rsbeq	r7, r5, r9, ror #12
 918:	65615f5f 	strbvs	r5, [r1, #-3935]!	; 0xf5f
 91c:	5f696261 	svcpl	0x00696261
 920:	69646c75 	stmdbvs	r4!, {r0, r2, r4, r5, r6, sl, fp, sp, lr}^
 924:	646f6d76 	strbtvs	r6, [pc], #3446	; 92c <PHY_OFFSET-0x700076d4>
 928:	76696400 	strbtvc	r6, [r9], -r0, lsl #8
 92c:	6e656469 	cdpvs	4, 6, cr6, cr5, cr9, {3}
 930:	6c750064 	ldclvs	0, cr0, [r5], #-400	; 0xfffffe70
 934:	7669646c 	strbtvc	r6, [r9], -ip, ror #8
 938:	6400745f 	strvs	r7, [r0], #-1119	; 0x45f
 93c:	73697669 	cmnvc	r9, #110100480	; 0x6900000
 940:	6700726f 	strvs	r7, [r0, -pc, ror #4]
 944:	705f7465 	subsvc	r7, pc, r5, ror #8
 948:	7265776f 	rsbvc	r7, r5, #29097984	; 0x1bc0000
 94c:	32666f5f 	rsbcc	r6, r6, #380	; 0x17c
 950:	615f5f00 	cmpvs	pc, r0, lsl #30
 954:	69626165 	stmdbvs	r2!, {r0, r2, r5, r6, r8, sp, lr}^
 958:	6469755f 	strbtvs	r7, [r9], #-1375	; 0x55f
 95c:	Address 0x0000095c is out of bounds.


Disassembly of section .debug_frame:

00000000 <.debug_frame>:
   0:	0000000c 	andeq	r0, r0, ip
   4:	ffffffff 	undefined instruction 0xffffffff
   8:	7c020001 	stcvc	0, cr0, [r2], {1}
   c:	000d0c0e 	andeq	r0, sp, lr, lsl #24
  10:	00000014 	andeq	r0, r0, r4, lsl r0
  14:	00000000 	andeq	r0, r0, r0
  18:	70008060 	andvc	r8, r0, r0, rrx
  1c:	00000094 	muleq	r0, r4, r0
  20:	42040e42 	andmi	r0, r4, #1056	; 0x420
  24:	0b0d018b 	bleq	340658 <PHY_OFFSET-0x6fcc79a8>
  28:	00000024 	andeq	r0, r0, r4, lsr #32
  2c:	00000000 	andeq	r0, r0, r0
  30:	700080f4 	strdvc	r8, [r0], -r4
  34:	000000bc 	strheq	r0, [r0], -ip
  38:	421c0e42 	andsmi	r0, ip, #1056	; 0x420
  3c:	028b018e 	addeq	r0, fp, #-2147483613	; 0x80000023
  40:	04870388 	streq	r0, [r7], #904	; 0x388
  44:	06850586 	streq	r0, [r5], r6, lsl #11
  48:	0b0c0784 	bleq	301e60 <PHY_OFFSET-0x6fd061a0>
  4c:	00000004 	andeq	r0, r0, r4
  50:	00000018 	andeq	r0, r0, r8, lsl r0
  54:	00000000 	andeq	r0, r0, r0
  58:	700081b0 	undefined instruction 0x700081b0
  5c:	00000260 	andeq	r0, r0, r0, ror #4
  60:	42080e42 	andmi	r0, r8, #1056	; 0x420
  64:	028b018e 	addeq	r0, fp, #-2147483613	; 0x80000023
  68:	00040b0c 	andeq	r0, r4, ip, lsl #22
  6c:	0000000c 	andeq	r0, r0, ip
  70:	ffffffff 	undefined instruction 0xffffffff
  74:	7c020001 	stcvc	0, cr0, [r2], {1}
  78:	000d0c0e 	andeq	r0, sp, lr, lsl #24
  7c:	00000018 	andeq	r0, r0, r8, lsl r0
  80:	0000006c 	andeq	r0, r0, ip, rrx
  84:	70008410 	andvc	r8, r0, r0, lsl r4
  88:	00000040 	andeq	r0, r0, r0, asr #32
  8c:	42080e42 	andmi	r0, r8, #1056	; 0x420
  90:	028b018e 	addeq	r0, fp, #-2147483613	; 0x80000023
  94:	00040b0c 	andeq	r0, r4, ip, lsl #22
  98:	00000018 	andeq	r0, r0, r8, lsl r0
  9c:	0000006c 	andeq	r0, r0, ip, rrx
  a0:	70008450 	andvc	r8, r0, r0, asr r4
  a4:	00000044 	andeq	r0, r0, r4, asr #32
  a8:	42080e42 	andmi	r0, r8, #1056	; 0x420
  ac:	028b018e 	addeq	r0, fp, #-2147483613	; 0x80000023
  b0:	00040b0c 	andeq	r0, r4, ip, lsl #22
  b4:	00000014 	andeq	r0, r0, r4, lsl r0
  b8:	0000006c 	andeq	r0, r0, ip, rrx
  bc:	70008494 	mulvc	r0, r4, r4
  c0:	00000074 	andeq	r0, r0, r4, ror r0
  c4:	42040e42 	andmi	r0, r4, #1056	; 0x420
  c8:	0b0d018b 	bleq	3406fc <PHY_OFFSET-0x6fcc7904>
  cc:	00000018 	andeq	r0, r0, r8, lsl r0
  d0:	0000006c 	andeq	r0, r0, ip, rrx
  d4:	70008508 	andvc	r8, r0, r8, lsl #10
  d8:	00000050 	andeq	r0, r0, r0, asr r0
  dc:	42080e42 	andmi	r0, r8, #1056	; 0x420
  e0:	028b018e 	addeq	r0, fp, #-2147483613	; 0x80000023
  e4:	00040b0c 	andeq	r0, r4, ip, lsl #22
  e8:	00000018 	andeq	r0, r0, r8, lsl r0
  ec:	0000006c 	andeq	r0, r0, ip, rrx
  f0:	70008558 	andvc	r8, r0, r8, asr r5
  f4:	00000060 	andeq	r0, r0, r0, rrx
  f8:	42080e42 	andmi	r0, r8, #1056	; 0x420
  fc:	028b018e 	addeq	r0, fp, #-2147483613	; 0x80000023
 100:	00040b0c 	andeq	r0, r4, ip, lsl #22
 104:	00000018 	andeq	r0, r0, r8, lsl r0
 108:	0000006c 	andeq	r0, r0, ip, rrx
 10c:	700085b8 	undefined instruction 0x700085b8
 110:	0000008c 	andeq	r0, r0, ip, lsl #1
 114:	42080e42 	andmi	r0, r8, #1056	; 0x420
 118:	028b018e 	addeq	r0, fp, #-2147483613	; 0x80000023
 11c:	00040b0c 	andeq	r0, r4, ip, lsl #22
 120:	0000000c 	andeq	r0, r0, ip
 124:	ffffffff 	undefined instruction 0xffffffff
 128:	7c020001 	stcvc	0, cr0, [r2], {1}
 12c:	000d0c0e 	andeq	r0, sp, lr, lsl #24
 130:	00000014 	andeq	r0, r0, r4, lsl r0
 134:	00000120 	andeq	r0, r0, r0, lsr #2
 138:	70008644 	andvc	r8, r0, r4, asr #12
 13c:	00000064 	andeq	r0, r0, r4, rrx
 140:	42040e42 	andmi	r0, r4, #1056	; 0x420
 144:	0b0d018b 	bleq	340778 <PHY_OFFSET-0x6fcc7888>
 148:	00000014 	andeq	r0, r0, r4, lsl r0
 14c:	00000120 	andeq	r0, r0, r0, lsr #2
 150:	700086a8 	andvc	r8, r0, r8, lsr #13
 154:	000000a0 	andeq	r0, r0, r0, lsr #1
 158:	42040e42 	andmi	r0, r4, #1056	; 0x420
 15c:	0b0d018b 	bleq	340790 <PHY_OFFSET-0x6fcc7870>
 160:	00000014 	andeq	r0, r0, r4, lsl r0
 164:	00000120 	andeq	r0, r0, r0, lsr #2
 168:	70008748 	andvc	r8, r0, r8, asr #14
 16c:	000000a0 	andeq	r0, r0, r0, lsr #1
 170:	42040e42 	andmi	r0, r4, #1056	; 0x420
 174:	0b0d018b 	bleq	3407a8 <PHY_OFFSET-0x6fcc7858>
 178:	00000014 	andeq	r0, r0, r4, lsl r0
 17c:	00000120 	andeq	r0, r0, r0, lsr #2
 180:	700087e8 	andvc	r8, r0, r8, ror #15
 184:	00000078 	andeq	r0, r0, r8, ror r0
 188:	42040e42 	andmi	r0, r4, #1056	; 0x420
 18c:	0b0d018b 	bleq	3407c0 <PHY_OFFSET-0x6fcc7840>
 190:	00000014 	andeq	r0, r0, r4, lsl r0
 194:	00000120 	andeq	r0, r0, r0, lsr #2
 198:	70008860 	andvc	r8, r0, r0, ror #16
 19c:	00000078 	andeq	r0, r0, r8, ror r0
 1a0:	42040e42 	andmi	r0, r4, #1056	; 0x420
 1a4:	0b0d018b 	bleq	3407d8 <PHY_OFFSET-0x6fcc7828>
 1a8:	00000018 	andeq	r0, r0, r8, lsl r0
 1ac:	00000120 	andeq	r0, r0, r0, lsr #2
 1b0:	700088d8 	ldrdvc	r8, [r0], -r8
 1b4:	000000bc 	strheq	r0, [r0], -ip
 1b8:	42080e42 	andmi	r0, r8, #1056	; 0x420
 1bc:	028b018e 	addeq	r0, fp, #-2147483613	; 0x80000023
 1c0:	00040b0c 	andeq	r0, r4, ip, lsl #22
 1c4:	00000014 	andeq	r0, r0, r4, lsl r0
 1c8:	00000120 	andeq	r0, r0, r0, lsr #2
 1cc:	70008994 	mulvc	r0, r4, r9
 1d0:	00000080 	andeq	r0, r0, r0, lsl #1
 1d4:	42040e42 	andmi	r0, r4, #1056	; 0x420
 1d8:	0b0d018b 	bleq	34080c <PHY_OFFSET-0x6fcc77f4>
 1dc:	00000014 	andeq	r0, r0, r4, lsl r0
 1e0:	00000120 	andeq	r0, r0, r0, lsr #2
 1e4:	70008a14 	andvc	r8, r0, r4, lsl sl
 1e8:	0000009c 	muleq	r0, ip, r0
 1ec:	42040e42 	andmi	r0, r4, #1056	; 0x420
 1f0:	0b0d018b 	bleq	340824 <PHY_OFFSET-0x6fcc77dc>
 1f4:	00000014 	andeq	r0, r0, r4, lsl r0
 1f8:	00000120 	andeq	r0, r0, r0, lsr #2
 1fc:	70008ab0 	undefined instruction 0x70008ab0
 200:	0000006c 	andeq	r0, r0, ip, rrx
 204:	42040e42 	andmi	r0, r4, #1056	; 0x420
 208:	0b0d018b 	bleq	34083c <PHY_OFFSET-0x6fcc77c4>
 20c:	0000000c 	andeq	r0, r0, ip
 210:	ffffffff 	undefined instruction 0xffffffff
 214:	7c020001 	stcvc	0, cr0, [r2], {1}
 218:	000d0c0e 	andeq	r0, sp, lr, lsl #24
 21c:	00000014 	andeq	r0, r0, r4, lsl r0
 220:	0000020c 	andeq	r0, r0, ip, lsl #4
 224:	70008b1c 	andvc	r8, r0, ip, lsl fp
 228:	00000054 	andeq	r0, r0, r4, asr r0
 22c:	42040e42 	andmi	r0, r4, #1056	; 0x420
 230:	0b0d018b 	bleq	340864 <PHY_OFFSET-0x6fcc779c>
 234:	00000018 	andeq	r0, r0, r8, lsl r0
 238:	0000020c 	andeq	r0, r0, ip, lsl #4
 23c:	70008b70 	andvc	r8, r0, r0, ror fp
 240:	00000128 	andeq	r0, r0, r8, lsr #2
 244:	42080e42 	andmi	r0, r8, #1056	; 0x420
 248:	028b018e 	addeq	r0, fp, #-2147483613	; 0x80000023
 24c:	00040b0c 	andeq	r0, r4, ip, lsl #22
 250:	00000018 	andeq	r0, r0, r8, lsl r0
 254:	0000020c 	andeq	r0, r0, ip, lsl #4
 258:	70008c98 	mulvc	r0, r8, ip
 25c:	00000080 	andeq	r0, r0, r0, lsl #1
 260:	42080e42 	andmi	r0, r8, #1056	; 0x420
 264:	028b018e 	addeq	r0, fp, #-2147483613	; 0x80000023
 268:	00040b0c 	andeq	r0, r4, ip, lsl #22
 26c:	00000018 	andeq	r0, r0, r8, lsl r0
 270:	0000020c 	andeq	r0, r0, ip, lsl #4
 274:	70008d18 	andvc	r8, r0, r8, lsl sp
 278:	00000148 	andeq	r0, r0, r8, asr #2
 27c:	42080e42 	andmi	r0, r8, #1056	; 0x420
 280:	028b018e 	addeq	r0, fp, #-2147483613	; 0x80000023
 284:	00040b0c 	andeq	r0, r4, ip, lsl #22
 288:	0000000c 	andeq	r0, r0, ip
 28c:	ffffffff 	undefined instruction 0xffffffff
 290:	7c020001 	stcvc	0, cr0, [r2], {1}
 294:	000d0c0e 	andeq	r0, sp, lr, lsl #24
 298:	00000014 	andeq	r0, r0, r4, lsl r0
 29c:	00000288 	andeq	r0, r0, r8, lsl #5
 2a0:	70008e60 	andvc	r8, r0, r0, ror #28
 2a4:	00000080 	andeq	r0, r0, r0, lsl #1
 2a8:	42040e42 	andmi	r0, r4, #1056	; 0x420
 2ac:	0b0d018b 	bleq	3408e0 <PHY_OFFSET-0x6fcc7720>
 2b0:	00000024 	andeq	r0, r0, r4, lsr #32
 2b4:	00000288 	andeq	r0, r0, r8, lsl #5
 2b8:	70008ee0 	andvc	r8, r0, r0, ror #29
 2bc:	0000009c 	muleq	r0, ip, r0
 2c0:	42100e42 	andsmi	r0, r0, #1056	; 0x420
 2c4:	8e42180e 	cdphi	8, 4, cr1, cr2, cr14, {0}
 2c8:	83068b05 	movwhi	r8, #27397	; 0x6b05
 2cc:	81028201 	tsthi	r2, r1, lsl #4
 2d0:	0c048003 	stceq	0, cr8, [r4], {3}
 2d4:	0000140b 	andeq	r1, r0, fp, lsl #8
 2d8:	00000018 	andeq	r0, r0, r8, lsl r0
 2dc:	00000288 	andeq	r0, r0, r8, lsl #5
 2e0:	70008f7c 	andvc	r8, r0, ip, ror pc
 2e4:	000008a4 	andeq	r0, r0, r4, lsr #17
 2e8:	42080e42 	andmi	r0, r8, #1056	; 0x420
 2ec:	028b018e 	addeq	r0, fp, #-2147483613	; 0x80000023
 2f0:	00040b0c 	andeq	r0, r4, ip, lsl #22
 2f4:	0000000c 	andeq	r0, r0, ip
 2f8:	ffffffff 	undefined instruction 0xffffffff
 2fc:	7c020001 	stcvc	0, cr0, [r2], {1}
 300:	000d0c0e 	andeq	r0, sp, lr, lsl #24
 304:	00000014 	andeq	r0, r0, r4, lsl r0
 308:	000002f4 	strdeq	r0, [r0], -r4
 30c:	70009820 	andvc	r9, r0, r0, lsr #16
 310:	00000050 	andeq	r0, r0, r0, asr r0
 314:	42040e42 	andmi	r0, r4, #1056	; 0x420
 318:	0b0d018b 	bleq	34094c <PHY_OFFSET-0x6fcc76b4>
 31c:	00000014 	andeq	r0, r0, r4, lsl r0
 320:	000002f4 	strdeq	r0, [r0], -r4
 324:	70009870 	andvc	r9, r0, r0, ror r8
 328:	00000070 	andeq	r0, r0, r0, ror r0
 32c:	42040e42 	andmi	r0, r4, #1056	; 0x420
 330:	0b0d018b 	bleq	340964 <PHY_OFFSET-0x6fcc769c>
 334:	00000018 	andeq	r0, r0, r8, lsl r0
 338:	000002f4 	strdeq	r0, [r0], -r4
 33c:	700098e0 	andvc	r9, r0, r0, ror #17
 340:	0000008c 	andeq	r0, r0, ip, lsl #1
 344:	42080e42 	andmi	r0, r8, #1056	; 0x420
 348:	028b018e 	addeq	r0, fp, #-2147483613	; 0x80000023
 34c:	00040b0c 	andeq	r0, r4, ip, lsl #22
 350:	00000018 	andeq	r0, r0, r8, lsl r0
 354:	000002f4 	strdeq	r0, [r0], -r4
 358:	7000996c 	andvc	r9, r0, ip, ror #18
 35c:	000000d8 	ldrdeq	r0, [r0], -r8
 360:	42080e42 	andmi	r0, r8, #1056	; 0x420
 364:	028b018e 	addeq	r0, fp, #-2147483613	; 0x80000023
 368:	00040b0c 	andeq	r0, r4, ip, lsl #22
 36c:	00000020 	andeq	r0, r0, r0, lsr #32
 370:	000002f4 	strdeq	r0, [r0], -r4
 374:	70009a44 	andvc	r9, r0, r4, asr #20
 378:	000001b8 	undefined instruction 0x000001b8
 37c:	42140e42 	andsmi	r0, r4, #1056	; 0x420
 380:	028b018e 	addeq	r0, fp, #-2147483613	; 0x80000023
 384:	04850386 	streq	r0, [r5], #902	; 0x386
 388:	0b0c0584 	bleq	3019a0 <PHY_OFFSET-0x6fd06660>
 38c:	00000004 	andeq	r0, r0, r4
 390:	0000001c 	andeq	r0, r0, ip, lsl r0
 394:	000002f4 	strdeq	r0, [r0], -r4
 398:	70009bfc 	strdvc	r9, [r0], -ip
 39c:	00000190 	muleq	r0, r0, r1
 3a0:	42100e42 	andsmi	r0, r0, #1056	; 0x420
 3a4:	028b018e 	addeq	r0, fp, #-2147483613	; 0x80000023
 3a8:	04840385 	streq	r0, [r4], #901	; 0x385
 3ac:	00040b0c 	andeq	r0, r4, ip, lsl #22
 3b0:	00000018 	andeq	r0, r0, r8, lsl r0
 3b4:	000002f4 	strdeq	r0, [r0], -r4
 3b8:	70009d8c 	andvc	r9, r0, ip, lsl #27
 3bc:	000000d8 	ldrdeq	r0, [r0], -r8
 3c0:	42080e42 	andmi	r0, r8, #1056	; 0x420
 3c4:	028b018e 	addeq	r0, fp, #-2147483613	; 0x80000023
 3c8:	00040b0c 	andeq	r0, r4, ip, lsl #22
 3cc:	00000018 	andeq	r0, r0, r8, lsl r0
 3d0:	000002f4 	strdeq	r0, [r0], -r4
 3d4:	70009e64 	andvc	r9, r0, r4, ror #28
 3d8:	00000084 	andeq	r0, r0, r4, lsl #1
 3dc:	42080e42 	andmi	r0, r8, #1056	; 0x420
 3e0:	028b018e 	addeq	r0, fp, #-2147483613	; 0x80000023
 3e4:	00040b0c 	andeq	r0, r4, ip, lsl #22
 3e8:	00000018 	andeq	r0, r0, r8, lsl r0
 3ec:	000002f4 	strdeq	r0, [r0], -r4
 3f0:	70009ee8 	andvc	r9, r0, r8, ror #29
 3f4:	00000084 	andeq	r0, r0, r4, lsl #1
 3f8:	42080e42 	andmi	r0, r8, #1056	; 0x420
 3fc:	028b018e 	addeq	r0, fp, #-2147483613	; 0x80000023
 400:	00040b0c 	andeq	r0, r4, ip, lsl #22
