
tz_driver.ko:     file format elf32-littlearm
tz_driver.ko

Sections:
Idx Name          Size      VMA       LMA       File off  Algn
  0 .text         00000728  00000000  00000000  00000034  2**2
                  CONTENTS, ALLOC, LOAD, RELOC, READONLY, CODE
  1 .exit.text    00000080  00000000  00000000  0000075c  2**2
                  CONTENTS, ALLOC, LOAD, RELOC, READONLY, CODE
  2 .init.text    0000015c  00000000  00000000  000007dc  2**2
                  CONTENTS, ALLOC, LOAD, RELOC, READONLY, CODE
  3 .ARM.extab.exit.text 0000000c  00000000  00000000  00000938  2**2
                  CONTENTS, ALLOC, LOAD, READONLY, DATA
  4 .ARM.exidx.exit.text 00000008  00000000  00000000  00000944  2**2
                  CONTENTS, ALLOC, LOAD, RELOC, READONLY, DATA
  5 .ARM.extab    00000030  00000000  00000000  0000094c  2**2
                  CONTENTS, ALLOC, LOAD, READONLY, DATA
  6 .ARM.exidx    00000020  00000000  00000000  0000097c  2**2
                  CONTENTS, ALLOC, LOAD, RELOC, READONLY, DATA
  7 .ARM.extab.init.text 0000000c  00000000  00000000  0000099c  2**2
                  CONTENTS, ALLOC, LOAD, READONLY, DATA
  8 .ARM.exidx.init.text 00000008  00000000  00000000  000009a8  2**2
                  CONTENTS, ALLOC, LOAD, RELOC, READONLY, DATA
  9 .modinfo      00000074  00000000  00000000  000009b0  2**2
                  CONTENTS, ALLOC, LOAD, READONLY, DATA
 10 .rodata.str1.1 0000038b  00000000  00000000  00000a24  2**0
                  CONTENTS, ALLOC, LOAD, READONLY, DATA
 11 .data         00000068  00000000  00000000  00000db0  2**2
                  CONTENTS, ALLOC, LOAD, RELOC, DATA
 12 .gnu.linkonce.this_module 0000015c  00000000  00000000  00000e18  2**2
                  CONTENTS, ALLOC, LOAD, RELOC, DATA, LINK_ONCE_DISCARD
 13 .note.gnu.build-id 00000024  00000000  00000000  00000f74  2**2
                  CONTENTS, ALLOC, LOAD, READONLY, DATA, LINK_ONCE_SAME_CONTENTS
 14 .bss          00000048  00000000  00000000  00000f98  2**2
                  ALLOC
 15 .debug_abbrev 000006d3  00000000  00000000  00000f98  2**0
                  CONTENTS, READONLY, DEBUGGING
 16 .debug_info   000083c6  00000000  00000000  0000166b  2**0
                  CONTENTS, RELOC, READONLY, DEBUGGING
 17 .debug_line   0000098c  00000000  00000000  00009a31  2**0
                  CONTENTS, RELOC, READONLY, DEBUGGING
 18 .debug_frame  00000124  00000000  00000000  0000a3c0  2**2
                  CONTENTS, RELOC, READONLY, DEBUGGING
 19 .debug_loc    000004cf  00000000  00000000  0000a4e4  2**0
                  CONTENTS, RELOC, READONLY, DEBUGGING
 20 .debug_aranges 00000030  00000000  00000000  0000a9b3  2**0
                  CONTENTS, RELOC, READONLY, DEBUGGING
 21 .debug_ranges 000002a0  00000000  00000000  0000a9e3  2**0
                  CONTENTS, RELOC, READONLY, DEBUGGING
 22 .debug_str    00003ee1  00000000  00000000  0000ac83  2**0
                  CONTENTS, READONLY, DEBUGGING
 23 .comment      00000054  00000000  00000000  0000eb64  2**0
                  CONTENTS, READONLY
 24 .note.GNU-stack 00000000  00000000  00000000  0000ebb8  2**0
                  CONTENTS, READONLY
 25 .ARM.attributes 0000002d  00000000  00000000  0000ebb8  2**0
                  CONTENTS, READONLY
 26 .debug_pubnames 00000024  00000000  00000000  0000ebe5  2**0
                  CONTENTS, RELOC, READONLY, DEBUGGING
SYMBOL TABLE:
00000000 l    d  .text	00000000 .text
00000000 l    d  .exit.text	00000000 .exit.text
00000000 l    d  .init.text	00000000 .init.text
00000000 l    d  .ARM.extab.exit.text	00000000 .ARM.extab.exit.text
00000000 l    d  .ARM.exidx.exit.text	00000000 .ARM.exidx.exit.text
00000000 l    d  .ARM.extab	00000000 .ARM.extab
00000000 l    d  .ARM.exidx	00000000 .ARM.exidx
00000000 l    d  .ARM.extab.init.text	00000000 .ARM.extab.init.text
00000000 l    d  .ARM.exidx.init.text	00000000 .ARM.exidx.init.text
00000000 l    d  .modinfo	00000000 .modinfo
00000000 l    d  .rodata.str1.1	00000000 .rodata.str1.1
00000000 l    d  .data	00000000 .data
00000000 l    d  .gnu.linkonce.this_module	00000000 .gnu.linkonce.this_module
00000000 l    d  .note.gnu.build-id	00000000 .note.gnu.build-id
00000000 l    d  .bss	00000000 .bss
00000000 l    d  .debug_abbrev	00000000 .debug_abbrev
00000000 l    d  .debug_info	00000000 .debug_info
00000000 l    d  .debug_line	00000000 .debug_line
00000000 l    d  .debug_frame	00000000 .debug_frame
00000000 l    d  .debug_loc	00000000 .debug_loc
00000000 l    d  .debug_aranges	00000000 .debug_aranges
00000000 l    d  .debug_ranges	00000000 .debug_ranges
00000000 l    d  .debug_str	00000000 .debug_str
00000000 l    d  .comment	00000000 .comment
00000000 l    d  .note.GNU-stack	00000000 .note.GNU-stack
00000000 l    d  .ARM.attributes	00000000 .ARM.attributes
00000000 l    d  .debug_pubnames	00000000 .debug_pubnames
00000000 l    df *ABS*	00000000 tz_driver.c
00000000 l     F .exit.text	00000080 tz_exit
00000000 l     F .text	000000f0 display_uuid
000000f0 l     F .text	00000054 tz_release
00000000 l     F .init.text	0000015c tz_init
00000144 l     F .text	00000108 tz_open
0000024c l     F .text	000004dc tz_ioctl
00000000 l     O .modinfo	00000022 __mod_description342
00000024 l     O .modinfo	00000015 __mod_license341
00000000 l     O .data	00000068 dev_fops
00000000 l     O .bss	0000003c tz_dev
0000003c l     O .bss	00000004 tz_class
00000040 l     O .bss	00000004 dev_num
00000044 l     O .bss	00000000 __key.14618
00000044 l     O .bss	00000004 tz_device
00000000 l    df *ABS*	00000000 tz_driver.mod.c
0000003c l     O .modinfo	00000009 __module_depends
00000048 l     O .modinfo	0000002c __mod_vermagic5
00000000         *UND*	00000000 alloc_chrdev_region
00000000         *UND*	00000000 __class_create
00000000 g     O .gnu.linkonce.this_module	0000015c __this_module
00000000         *UND*	00000000 class_destroy
00000000 g     F .exit.text	00000080 cleanup_module
00000000         *UND*	00000000 kfree
00000000 g     F .init.text	0000015c init_module
00000000         *UND*	00000000 kmem_cache_alloc
00000000         *UND*	00000000 cdev_add
00000000         *UND*	00000000 preempt_schedule
00000000         *UND*	00000000 generate_random_uuid
00000000         *UND*	00000000 device_create
00000000         *UND*	00000000 printk
00000000         *UND*	00000000 __memzero
00000000         *UND*	00000000 sprintf
00000000         *UND*	00000000 unregister_chrdev_region
00000000         *UND*	00000000 __gnu_mcount_nc
00000000         *UND*	00000000 device_destroy
00000000         *UND*	00000000 __tracepoint_kmalloc
00000000         *UND*	00000000 __aeabi_unwind_cpp_pr1
00000000         *UND*	00000000 __copy_to_user
00000000         *UND*	00000000 __copy_from_user
00000000         *UND*	00000000 cdev_init
00000000         *UND*	00000000 __kmalloc
00000000         *UND*	00000000 kmalloc_caches
00000000         *UND*	00000000 cdev_del



Disassembly of section .text:

00000000 <display_uuid>:
display_uuid():
/home/luojing/share/projects/2014-01-16/trustzone/tz_driver/tz_driver.c:44
   0:	e1a0c00d 	mov	ip, sp
   4:	e92ddff0 	push	{r4, r5, r6, r7, r8, r9, sl, fp, ip, lr, pc}
   8:	e24cb004 	sub	fp, ip, #4
   c:	e24dd084 	sub	sp, sp, #132	; 0x84
  10:	e92d4000 	push	{lr}
  14:	ebfffffe 	bl	0 <__gnu_mcount_nc>
  18:	e1a01000 	mov	r1, r0
/home/luojing/share/projects/2014-01-16/trustzone/tz_driver/tz_driver.c:46
  1c:	e5d1c00f 	ldrb	ip, [r1, #15]
  20:	e24b405c 	sub	r4, fp, #92	; 0x5c
  24:	e5d02000 	ldrb	r2, [r0]
  28:	e5d03001 	ldrb	r3, [r0, #1]
  2c:	e1a00004 	mov	r0, r4
  30:	e50bc074 	str	ip, [fp, #-116]	; 0x74
  34:	e5d1c009 	ldrb	ip, [r1, #9]
  38:	e5d16002 	ldrb	r6, [r1, #2]
  3c:	e5d15003 	ldrb	r5, [r1, #3]
  40:	e5d1e004 	ldrb	lr, [r1, #4]
  44:	e5d17005 	ldrb	r7, [r1, #5]
  48:	e5d18006 	ldrb	r8, [r1, #6]
  4c:	e5d1a007 	ldrb	sl, [r1, #7]
  50:	e5d19008 	ldrb	r9, [r1, #8]
  54:	e50bc060 	str	ip, [fp, #-96]	; 0x60
  58:	e5d1c00a 	ldrb	ip, [r1, #10]
  5c:	e50bc064 	str	ip, [fp, #-100]	; 0x64
  60:	e5d1c00b 	ldrb	ip, [r1, #11]
  64:	e50bc068 	str	ip, [fp, #-104]	; 0x68
  68:	e5d1c00c 	ldrb	ip, [r1, #12]
  6c:	e50bc06c 	str	ip, [fp, #-108]	; 0x6c
  70:	e5d1c00d 	ldrb	ip, [r1, #13]
  74:	e50bc070 	str	ip, [fp, #-112]	; 0x70
  78:	e5d1c00e 	ldrb	ip, [r1, #14]
  7c:	e58de008 	str	lr, [sp, #8]
  80:	e51be060 	ldr	lr, [fp, #-96]	; 0x60
  84:	e58d6000 	str	r6, [sp]
  88:	e58d5004 	str	r5, [sp, #4]
  8c:	e58de01c 	str	lr, [sp, #28]
  90:	e51be064 	ldr	lr, [fp, #-100]	; 0x64
  94:	e58d700c 	str	r7, [sp, #12]
  98:	e58d8010 	str	r8, [sp, #16]
  9c:	e58de020 	str	lr, [sp, #32]
  a0:	e51be068 	ldr	lr, [fp, #-104]	; 0x68
  a4:	e58da014 	str	sl, [sp, #20]
  a8:	e58d9018 	str	r9, [sp, #24]
  ac:	e58de024 	str	lr, [sp, #36]	; 0x24
  b0:	e51be06c 	ldr	lr, [fp, #-108]	; 0x6c
  b4:	e58dc030 	str	ip, [sp, #48]	; 0x30
  b8:	e51bc074 	ldr	ip, [fp, #-116]	; 0x74
  bc:	e58de028 	str	lr, [sp, #40]	; 0x28
  c0:	e51be070 	ldr	lr, [fp, #-112]	; 0x70
  c4:	e59f101c 	ldr	r1, [pc, #28]	; e8 <display_uuid+0xe8>
  c8:	e58dc034 	str	ip, [sp, #52]	; 0x34
  cc:	e58de02c 	str	lr, [sp, #44]	; 0x2c
  d0:	ebfffffe 	bl	0 <sprintf>
/home/luojing/share/projects/2014-01-16/trustzone/tz_driver/tz_driver.c:50
  d4:	e1a01004 	mov	r1, r4
  d8:	e59f000c 	ldr	r0, [pc, #12]	; ec <display_uuid+0xec>
  dc:	ebfffffe 	bl	0 <printk>
/home/luojing/share/projects/2014-01-16/trustzone/tz_driver/tz_driver.c:51
  e0:	e24bd028 	sub	sp, fp, #40	; 0x28
  e4:	e89daff0 	ldm	sp, {r4, r5, r6, r7, r8, r9, sl, fp, sp, pc}
  e8:	00000041 	andeq	r0, r0, r1, asr #32
  ec:	00000076 	andeq	r0, r0, r6, ror r0

000000f0 <tz_release>:
tz_release():
/home/luojing/share/projects/2014-01-16/trustzone/tz_driver/tz_driver.c:199
  f0:	e1a0c00d 	mov	ip, sp
  f4:	e92dd818 	push	{r3, r4, fp, ip, lr, pc}
  f8:	e24cb004 	sub	fp, ip, #4
  fc:	e92d4000 	push	{lr}
 100:	ebfffffe 	bl	0 <__gnu_mcount_nc>
 104:	e59f0030 	ldr	r0, [pc, #48]	; 13c <tz_release+0x4c>
 108:	e1a04001 	mov	r4, r1
/home/luojing/share/projects/2014-01-16/trustzone/tz_driver/tz_driver.c:201
 10c:	ebfffffe 	bl	0 <printk>
/home/luojing/share/projects/2014-01-16/trustzone/tz_driver/tz_driver.c:202
 110:	e5940088 	ldr	r0, [r4, #136]	; 0x88
 114:	e3500000 	cmp	r0, #0
 118:	0a000003 	beq	12c <tz_release+0x3c>
/home/luojing/share/projects/2014-01-16/trustzone/tz_driver/tz_driver.c:203
 11c:	ebffffb7 	bl	0 <display_uuid>
/home/luojing/share/projects/2014-01-16/trustzone/tz_driver/tz_driver.c:204
 120:	e5940088 	ldr	r0, [r4, #136]	; 0x88
 124:	ebfffffe 	bl	0 <kfree>
 128:	ea000001 	b	134 <tz_release+0x44>
/home/luojing/share/projects/2014-01-16/trustzone/tz_driver/tz_driver.c:207
 12c:	e59f000c 	ldr	r0, [pc, #12]	; 140 <tz_release+0x50>
 130:	ebfffffe 	bl	0 <printk>
/home/luojing/share/projects/2014-01-16/trustzone/tz_driver/tz_driver.c:210
 134:	e3a00000 	mov	r0, #0
 138:	e89da818 	ldm	sp, {r3, r4, fp, sp, pc}
 13c:	0000007c 	andeq	r0, r0, ip, ror r0
 140:	0000008d 	andeq	r0, r0, sp, lsl #1

00000144 <tz_open>:
tz_open():
/home/luojing/share/projects/2014-01-16/trustzone/tz_driver/tz_driver.c:213
 144:	e1a0c00d 	mov	ip, sp
 148:	e92dd9f0 	push	{r4, r5, r6, r7, r8, fp, ip, lr, pc}
 14c:	e24cb004 	sub	fp, ip, #4
 150:	e24dd00c 	sub	sp, sp, #12
 154:	e92d4000 	push	{lr}
 158:	ebfffffe 	bl	0 <__gnu_mcount_nc>
kmem_cache_alloc_notrace():
 15c:	e59f00d4 	ldr	r0, [pc, #212]	; 238 <tz_open+0xf4>
tz_open():
 160:	e1a08001 	mov	r8, r1
kmem_cache_alloc_notrace():
/home/luojing/share/projects/linux_kernel_s5pv210/kernel/include/linux/slub_def.h:226
 164:	e3a010d0 	mov	r1, #208	; 0xd0
 168:	ebfffffe 	bl	0 <kmem_cache_alloc>
trace_kmalloc():
/home/luojing/share/projects/linux_kernel_s5pv210/kernel/include/trace/events/kmem.h:47
 16c:	e59f20c8 	ldr	r2, [pc, #200]	; 23c <tz_open+0xf8>
kmalloc():
/home/luojing/share/projects/linux_kernel_s5pv210/kernel/include/linux/slub_def.h:257
 170:	e59f10c8 	ldr	r1, [pc, #200]	; 240 <tz_open+0xfc>
 174:	e59f70c8 	ldr	r7, [pc, #200]	; 244 <tz_open+0x100>
trace_kmalloc():
/home/luojing/share/projects/linux_kernel_s5pv210/kernel/include/trace/events/kmem.h:47
 178:	e5923004 	ldr	r3, [r2, #4]
kmalloc():
/home/luojing/share/projects/linux_kernel_s5pv210/kernel/include/linux/slub_def.h:257
 17c:	e59163dc 	ldr	r6, [r1, #988]	; 0x3dc
trace_kmalloc():
/home/luojing/share/projects/linux_kernel_s5pv210/kernel/include/trace/events/kmem.h:47
 180:	e3530000 	cmp	r3, #0
kmem_cache_alloc_notrace():
/home/luojing/share/projects/linux_kernel_s5pv210/kernel/include/linux/slub_def.h:226
 184:	e1a04000 	mov	r4, r0
trace_kmalloc():
/home/luojing/share/projects/linux_kernel_s5pv210/kernel/include/trace/events/kmem.h:47
 188:	0a00001d 	beq	204 <tz_open+0xc0>
current_thread_info():
/home/luojing/share/projects/linux_kernel_s5pv210/kernel/arch/arm/include/asm/thread_info.h:97
 18c:	e1a0100d 	mov	r1, sp
 190:	e3c13d7f 	bic	r3, r1, #8128	; 0x1fc0
 194:	e3c3303f 	bic	r3, r3, #63	; 0x3f
rcu_read_lock_sched_notrace():
/home/luojing/share/projects/linux_kernel_s5pv210/kernel/include/linux/rcupdate.h:203
 198:	e5931004 	ldr	r1, [r3, #4]
 19c:	e2811001 	add	r1, r1, #1
 1a0:	e5831004 	str	r1, [r3, #4]
trace_kmalloc():
/home/luojing/share/projects/linux_kernel_s5pv210/kernel/include/trace/events/kmem.h:47
 1a4:	e5925010 	ldr	r5, [r2, #16]
 1a8:	e3550000 	cmp	r5, #0
 1ac:	0a00000a 	beq	1dc <tz_open+0x98>
 1b0:	e3a030d0 	mov	r3, #208	; 0xd0
 1b4:	e1a00007 	mov	r0, r7
 1b8:	e58d3000 	str	r3, [sp]
 1bc:	e1a01004 	mov	r1, r4
 1c0:	e1a03006 	mov	r3, r6
 1c4:	e3a02014 	mov	r2, #20
 1c8:	e1a0e00f 	mov	lr, pc
 1cc:	e595f000 	ldr	pc, [r5]
 1d0:	e5b53004 	ldr	r3, [r5, #4]!
 1d4:	e3530000 	cmp	r3, #0
 1d8:	eafffff3 	b	1ac <tz_open+0x68>
current_thread_info():
/home/luojing/share/projects/linux_kernel_s5pv210/kernel/include/linux/rcupdate.h:223
 1dc:	e1a0200d 	mov	r2, sp
 1e0:	e3c23d7f 	bic	r3, r2, #8128	; 0x1fc0
 1e4:	e3c3303f 	bic	r3, r3, #63	; 0x3f
rcu_read_unlock_sched_notrace():
 1e8:	e5932004 	ldr	r2, [r3, #4]
 1ec:	e2422001 	sub	r2, r2, #1
 1f0:	e5832004 	str	r2, [r3, #4]
test_bit():
/home/luojing/share/projects/linux_kernel_s5pv210/kernel/include/asm-generic/bitops/non-atomic.h:105
 1f4:	e5933000 	ldr	r3, [r3]
rcu_read_unlock_sched_notrace():
/home/luojing/share/projects/linux_kernel_s5pv210/kernel/include/linux/rcupdate.h:223
 1f8:	e3130002 	tst	r3, #2
 1fc:	0a000000 	beq	204 <tz_open+0xc0>
 200:	ebfffffe 	bl	0 <preempt_schedule>
tz_open():
/home/luojing/share/projects/2014-01-16/trustzone/tz_driver/tz_driver.c:220
 204:	e3a01014 	mov	r1, #20
 208:	e1a00004 	mov	r0, r4
 20c:	ebfffffe 	bl	0 <__memzero>
/home/luojing/share/projects/2014-01-16/trustzone/tz_driver/tz_driver.c:221
 210:	e1a00004 	mov	r0, r4
 214:	ebfffffe 	bl	0 <generate_random_uuid>
/home/luojing/share/projects/2014-01-16/trustzone/tz_driver/tz_driver.c:222
 218:	e5884088 	str	r4, [r8, #136]	; 0x88
/home/luojing/share/projects/2014-01-16/trustzone/tz_driver/tz_driver.c:223
 21c:	e59f0024 	ldr	r0, [pc, #36]	; 248 <tz_open+0x104>
 220:	ebfffffe 	bl	0 <printk>
/home/luojing/share/projects/2014-01-16/trustzone/tz_driver/tz_driver.c:224
 224:	e1a00004 	mov	r0, r4
 228:	ebffff74 	bl	0 <display_uuid>
/home/luojing/share/projects/2014-01-16/trustzone/tz_driver/tz_driver.c:226
 22c:	e3a00000 	mov	r0, #0
 230:	e24bd020 	sub	sp, fp, #32
 234:	e89da9f0 	ldm	sp, {r4, r5, r6, r7, r8, fp, sp, pc}
 238:	000003d8 	ldrdeq	r0, [r0], -r8
	...
 244:	00000144 	andeq	r0, r0, r4, asr #2
 248:	0000019e 	muleq	r0, lr, r1

0000024c <tz_ioctl>:
tz_ioctl():
/home/luojing/share/projects/2014-01-16/trustzone/tz_driver/tz_driver.c:228
 24c:	e1a0c00d 	mov	ip, sp
 250:	e92dd9f0 	push	{r4, r5, r6, r7, r8, fp, ip, lr, pc}
 254:	e24cb004 	sub	fp, ip, #4
 258:	e24dd044 	sub	sp, sp, #68	; 0x44
 25c:	e92d4000 	push	{lr}
 260:	ebfffffe 	bl	0 <__gnu_mcount_nc>
 264:	e7e73451 	ubfx	r3, r1, #8, #8
 268:	e3530054 	cmp	r3, #84	; 0x54
/home/luojing/share/projects/2014-01-16/trustzone/tz_driver/tz_driver.c:230
 26c:	e5906088 	ldr	r6, [r0, #136]	; 0x88
/home/luojing/share/projects/2014-01-16/trustzone/tz_driver/tz_driver.c:228
 270:	e1a04002 	mov	r4, r2
/home/luojing/share/projects/2014-01-16/trustzone/tz_driver/tz_driver.c:232
 274:	159f0464 	ldrne	r0, [pc, #1124]	; 6e0 <tz_ioctl+0x494>
/home/luojing/share/projects/2014-01-16/trustzone/tz_driver/tz_driver.c:231
 278:	1a000113 	bne	6cc <tz_ioctl+0x480>
/home/luojing/share/projects/2014-01-16/trustzone/tz_driver/tz_driver.c:235
 27c:	e20130ff 	and	r3, r1, #255	; 0xff
 280:	e3530003 	cmp	r3, #3
/home/luojing/share/projects/2014-01-16/trustzone/tz_driver/tz_driver.c:236
 284:	859f0458 	ldrhi	r0, [pc, #1112]	; 6e4 <tz_ioctl+0x498>
/home/luojing/share/projects/2014-01-16/trustzone/tz_driver/tz_driver.c:235
 288:	8a00010f 	bhi	6cc <tz_ioctl+0x480>
/home/luojing/share/projects/2014-01-16/trustzone/tz_driver/tz_driver.c:240
 28c:	e59f3454 	ldr	r3, [pc, #1108]	; 6e8 <tz_ioctl+0x49c>
 290:	e1510003 	cmp	r1, r3
 294:	0a000008 	beq	2bc <tz_ioctl+0x70>
 298:	e59f344c 	ldr	r3, [pc, #1100]	; 6ec <tz_ioctl+0x4a0>
 29c:	e1510003 	cmp	r1, r3
 2a0:	0a000104 	beq	6b8 <tz_ioctl+0x46c>
 2a4:	e243370a 	sub	r3, r3, #2621440	; 0x280000
 2a8:	e2433001 	sub	r3, r3, #1
 2ac:	e1510003 	cmp	r1, r3
/home/luojing/share/projects/2014-01-16/trustzone/tz_driver/tz_driver.c:257
 2b0:	159f0438 	ldrne	r0, [pc, #1080]	; 6f0 <tz_ioctl+0x4a4>
/home/luojing/share/projects/2014-01-16/trustzone/tz_driver/tz_driver.c:240
 2b4:	1a000104 	bne	6cc <tz_ioctl+0x480>
 2b8:	ea0000f9 	b	6a4 <tz_ioctl+0x458>
copy_from_user():
/home/luojing/share/projects/linux_kernel_s5pv210/kernel/arch/arm/include/asm/uaccess.h:406
 2bc:	e1a0200d 	mov	r2, sp
 2c0:	e3c25d7f 	bic	r5, r2, #8128	; 0x1fc0
tz_ioctl():
/home/luojing/share/projects/2014-01-16/trustzone/tz_driver/tz_driver.c:242
 2c4:	e59f0428 	ldr	r0, [pc, #1064]	; 6f4 <tz_ioctl+0x4a8>
open_session():
/home/luojing/share/projects/linux_kernel_s5pv210/kernel/arch/arm/include/asm/uaccess.h:406
 2c8:	e3c5503f 	bic	r5, r5, #63	; 0x3f
tz_ioctl():
/home/luojing/share/projects/2014-01-16/trustzone/tz_driver/tz_driver.c:242
 2cc:	ebfffffe 	bl	0 <printk>
open_session():
/home/luojing/share/projects/2014-01-16/trustzone/tz_driver/tz_driver.c:90
 2d0:	e3a0205a 	mov	r2, #90	; 0x5a
 2d4:	e59f041c 	ldr	r0, [pc, #1052]	; 6f8 <tz_ioctl+0x4ac>
 2d8:	e59f141c 	ldr	r1, [pc, #1052]	; 6fc <tz_ioctl+0x4b0>
 2dc:	ebfffffe 	bl	0 <printk>
copy_from_user():
/home/luojing/share/projects/linux_kernel_s5pv210/kernel/arch/arm/include/asm/uaccess.h:406
 2e0:	e5953008 	ldr	r3, [r5, #8]
 2e4:	e294200c 	adds	r2, r4, #12
 2e8:	30d22003 	sbcscc	r2, r2, r3
 2ec:	33a03000 	movcc	r3, #0
 2f0:	e3530000 	cmp	r3, #0
 2f4:	e24b0034 	sub	r0, fp, #52	; 0x34
 2f8:	1a000005 	bne	314 <tz_ioctl+0xc8>
/home/luojing/share/projects/linux_kernel_s5pv210/kernel/arch/arm/include/asm/uaccess.h:407
 2fc:	e1a01004 	mov	r1, r4
 300:	e3a0200c 	mov	r2, #12
 304:	ebfffffe 	bl	0 <__copy_from_user>
open_session():
/home/luojing/share/projects/2014-01-16/trustzone/tz_driver/tz_driver.c:92
 308:	e3500000 	cmp	r0, #0
 30c:	0a000005 	beq	328 <tz_ioctl+0xdc>
 310:	ea000001 	b	31c <tz_ioctl+0xd0>
copy_from_user():
/home/luojing/share/projects/linux_kernel_s5pv210/kernel/arch/arm/include/asm/uaccess.h:409
 314:	e3a0100c 	mov	r1, #12
 318:	ebfffffe 	bl	0 <__memzero>
open_session():
/home/luojing/share/projects/2014-01-16/trustzone/tz_driver/tz_driver.c:96
 31c:	e59f03d4 	ldr	r0, [pc, #980]	; 6f8 <tz_ioctl+0x4ac>
 320:	e3a02060 	mov	r2, #96	; 0x60
 324:	ea000014 	b	37c <tz_ioctl+0x130>
/home/luojing/share/projects/2014-01-16/trustzone/tz_driver/tz_driver.c:99
 328:	e3a02063 	mov	r2, #99	; 0x63
 32c:	e59f13c8 	ldr	r1, [pc, #968]	; 6fc <tz_ioctl+0x4b0>
 330:	e59f03c0 	ldr	r0, [pc, #960]	; 6f8 <tz_ioctl+0x4ac>
 334:	ebfffffe 	bl	0 <printk>
copy_from_user():
/home/luojing/share/projects/linux_kernel_s5pv210/kernel/arch/arm/include/asm/uaccess.h:406
 338:	e5953008 	ldr	r3, [r5, #8]
open_session():
/home/luojing/share/projects/2014-01-16/trustzone/tz_driver/tz_driver.c:101
 33c:	e51b1034 	ldr	r1, [fp, #-52]	; 0x34
 340:	e24b005c 	sub	r0, fp, #92	; 0x5c
copy_from_user():
/home/luojing/share/projects/linux_kernel_s5pv210/kernel/arch/arm/include/asm/uaccess.h:406
 344:	e2912028 	adds	r2, r1, #40	; 0x28
 348:	30d22003 	sbcscc	r2, r2, r3
 34c:	33a03000 	movcc	r3, #0
 350:	e3530000 	cmp	r3, #0
 354:	1a000004 	bne	36c <tz_ioctl+0x120>
/home/luojing/share/projects/linux_kernel_s5pv210/kernel/arch/arm/include/asm/uaccess.h:407
 358:	e3a02028 	mov	r2, #40	; 0x28
 35c:	ebfffffe 	bl	0 <__copy_from_user>
open_session():
/home/luojing/share/projects/2014-01-16/trustzone/tz_driver/tz_driver.c:100
 360:	e3500000 	cmp	r0, #0
 364:	0a000008 	beq	38c <tz_ioctl+0x140>
 368:	ea000001 	b	374 <tz_ioctl+0x128>
copy_from_user():
/home/luojing/share/projects/linux_kernel_s5pv210/kernel/arch/arm/include/asm/uaccess.h:409
 36c:	e3a01028 	mov	r1, #40	; 0x28
 370:	ebfffffe 	bl	0 <__memzero>
open_session():
/home/luojing/share/projects/2014-01-16/trustzone/tz_driver/tz_driver.c:104
 374:	e59f037c 	ldr	r0, [pc, #892]	; 6f8 <tz_ioctl+0x4ac>
 378:	e3a02068 	mov	r2, #104	; 0x68
 37c:	e59f1378 	ldr	r1, [pc, #888]	; 6fc <tz_ioctl+0x4b0>
 380:	ebfffffe 	bl	0 <printk>
 384:	e59f5374 	ldr	r5, [pc, #884]	; 700 <tz_ioctl+0x4b4>
 388:	ea0000c0 	b	690 <tz_ioctl+0x444>
/home/luojing/share/projects/2014-01-16/trustzone/tz_driver/tz_driver.c:107
 38c:	e59f1368 	ldr	r1, [pc, #872]	; 6fc <tz_ioctl+0x4b0>
 390:	e3a0206b 	mov	r2, #107	; 0x6b
 394:	e59f035c 	ldr	r0, [pc, #860]	; 6f8 <tz_ioctl+0x4ac>
 398:	ebfffffe 	bl	0 <printk>
/home/luojing/share/projects/2014-01-16/trustzone/tz_driver/tz_driver.c:111
 39c:	e59f0354 	ldr	r0, [pc, #852]	; 6f8 <tz_ioctl+0x4ac>
 3a0:	e59f1354 	ldr	r1, [pc, #852]	; 6fc <tz_ioctl+0x4b0>
 3a4:	e3a0206f 	mov	r2, #111	; 0x6f
 3a8:	ebfffffe 	bl	0 <printk>
/home/luojing/share/projects/2014-01-16/trustzone/tz_driver/tz_driver.c:112
 3ac:	e51b3058 	ldr	r3, [fp, #-88]	; 0x58
 3b0:	e3530005 	cmp	r3, #5
 3b4:	0a000005 	beq	3d0 <tz_ioctl+0x184>
/home/luojing/share/projects/2014-01-16/trustzone/tz_driver/tz_driver.c:117
 3b8:	e59f0338 	ldr	r0, [pc, #824]	; 6f8 <tz_ioctl+0x4ac>
 3bc:	e3a02075 	mov	r2, #117	; 0x75
 3c0:	e59f1334 	ldr	r1, [pc, #820]	; 6fc <tz_ioctl+0x4b0>
 3c4:	ebfffffe 	bl	0 <printk>
 3c8:	e59f5330 	ldr	r5, [pc, #816]	; 700 <tz_ioctl+0x4b4>
 3cc:	ea0000c0 	b	6d4 <tz_ioctl+0x488>
/home/luojing/share/projects/2014-01-16/trustzone/tz_driver/tz_driver.c:120
 3d0:	e3a02078 	mov	r2, #120	; 0x78
 3d4:	e59f1320 	ldr	r1, [pc, #800]	; 6fc <tz_ioctl+0x4b0>
 3d8:	e59f0318 	ldr	r0, [pc, #792]	; 6f8 <tz_ioctl+0x4ac>
 3dc:	ebfffffe 	bl	0 <printk>
kmem_cache_alloc_notrace():
/home/luojing/share/projects/linux_kernel_s5pv210/kernel/include/linux/slub_def.h:226
 3e0:	e3a010d0 	mov	r1, #208	; 0xd0
 3e4:	e59f0318 	ldr	r0, [pc, #792]	; 704 <tz_ioctl+0x4b8>
 3e8:	ebfffffe 	bl	0 <kmem_cache_alloc>
trace_kmalloc():
/home/luojing/share/projects/linux_kernel_s5pv210/kernel/include/trace/events/kmem.h:47
 3ec:	e59f3314 	ldr	r3, [pc, #788]	; 708 <tz_ioctl+0x4bc>
kmalloc():
/home/luojing/share/projects/linux_kernel_s5pv210/kernel/include/linux/slub_def.h:257
 3f0:	e59f1314 	ldr	r1, [pc, #788]	; 70c <tz_ioctl+0x4c0>
 3f4:	e59f7314 	ldr	r7, [pc, #788]	; 710 <tz_ioctl+0x4c4>
trace_kmalloc():
/home/luojing/share/projects/linux_kernel_s5pv210/kernel/include/trace/events/kmem.h:47
 3f8:	e5932004 	ldr	r2, [r3, #4]
kmalloc():
/home/luojing/share/projects/linux_kernel_s5pv210/kernel/include/linux/slub_def.h:257
 3fc:	e5918480 	ldr	r8, [r1, #1152]	; 0x480
trace_kmalloc():
/home/luojing/share/projects/linux_kernel_s5pv210/kernel/include/trace/events/kmem.h:47
 400:	e3520000 	cmp	r2, #0
kmem_cache_alloc_notrace():
/home/luojing/share/projects/linux_kernel_s5pv210/kernel/include/linux/slub_def.h:226
 404:	e1a04000 	mov	r4, r0
trace_kmalloc():
/home/luojing/share/projects/linux_kernel_s5pv210/kernel/include/trace/events/kmem.h:47
 408:	0a00001a 	beq	478 <tz_ioctl+0x22c>
rcu_read_lock_sched_notrace():
/home/luojing/share/projects/linux_kernel_s5pv210/kernel/include/linux/rcupdate.h:203
 40c:	e5952004 	ldr	r2, [r5, #4]
 410:	e2822001 	add	r2, r2, #1
 414:	e5852004 	str	r2, [r5, #4]
trace_kmalloc():
/home/luojing/share/projects/linux_kernel_s5pv210/kernel/include/trace/events/kmem.h:47
 418:	e5935010 	ldr	r5, [r3, #16]
 41c:	e3550000 	cmp	r5, #0
 420:	0a00000a 	beq	450 <tz_ioctl+0x204>
 424:	e3a030d0 	mov	r3, #208	; 0xd0
 428:	e1a00007 	mov	r0, r7
 42c:	e58d3000 	str	r3, [sp]
 430:	e1a01004 	mov	r1, r4
 434:	e1a03008 	mov	r3, r8
 438:	e3a02044 	mov	r2, #68	; 0x44
 43c:	e1a0e00f 	mov	lr, pc
 440:	e595f000 	ldr	pc, [r5]
 444:	e5b53004 	ldr	r3, [r5, #4]!
 448:	e3530000 	cmp	r3, #0
 44c:	eafffff3 	b	420 <tz_ioctl+0x1d4>
current_thread_info():
/home/luojing/share/projects/linux_kernel_s5pv210/kernel/include/linux/rcupdate.h:223
 450:	e1a0200d 	mov	r2, sp
 454:	e3c23d7f 	bic	r3, r2, #8128	; 0x1fc0
 458:	e3c3303f 	bic	r3, r3, #63	; 0x3f
rcu_read_unlock_sched_notrace():
 45c:	e5932004 	ldr	r2, [r3, #4]
 460:	e2422001 	sub	r2, r2, #1
 464:	e5832004 	str	r2, [r3, #4]
test_bit():
/home/luojing/share/projects/linux_kernel_s5pv210/kernel/include/asm-generic/bitops/non-atomic.h:105
 468:	e5933000 	ldr	r3, [r3]
rcu_read_unlock_sched_notrace():
/home/luojing/share/projects/linux_kernel_s5pv210/kernel/include/linux/rcupdate.h:223
 46c:	e3130002 	tst	r3, #2
 470:	0a000000 	beq	478 <tz_ioctl+0x22c>
 474:	ebfffffe 	bl	0 <preempt_schedule>
copy_from_user():
/home/luojing/share/projects/linux_kernel_s5pv210/kernel/arch/arm/include/asm/uaccess.h:406
 478:	e1a0300d 	mov	r3, sp
 47c:	e3c35d7f 	bic	r5, r3, #8128	; 0x1fc0
 480:	e3c5503f 	bic	r5, r5, #63	; 0x3f
open_session():
/home/luojing/share/projects/2014-01-16/trustzone/tz_driver/tz_driver.c:122
 484:	e1a00004 	mov	r0, r4
 488:	e3a01044 	mov	r1, #68	; 0x44
 48c:	ebfffffe 	bl	0 <__memzero>
/home/luojing/share/projects/2014-01-16/trustzone/tz_driver/tz_driver.c:127
 490:	e51b1050 	ldr	r1, [fp, #-80]	; 0x50
copy_from_user():
/home/luojing/share/projects/linux_kernel_s5pv210/kernel/arch/arm/include/asm/uaccess.h:406
 494:	e5953008 	ldr	r3, [r5, #8]
open_session():
/home/luojing/share/projects/2014-01-16/trustzone/tz_driver/tz_driver.c:127
 498:	e2840004 	add	r0, r4, #4
copy_from_user():
/home/luojing/share/projects/linux_kernel_s5pv210/kernel/arch/arm/include/asm/uaccess.h:406
 49c:	e2912004 	adds	r2, r1, #4
 4a0:	30d22003 	sbcscc	r2, r2, r3
 4a4:	33a03000 	movcc	r3, #0
 4a8:	e3530000 	cmp	r3, #0
 4ac:	1a000004 	bne	4c4 <tz_ioctl+0x278>
/home/luojing/share/projects/linux_kernel_s5pv210/kernel/arch/arm/include/asm/uaccess.h:407
 4b0:	e3a02004 	mov	r2, #4
 4b4:	ebfffffe 	bl	0 <__copy_from_user>
open_session():
/home/luojing/share/projects/2014-01-16/trustzone/tz_driver/tz_driver.c:127
 4b8:	e3500000 	cmp	r0, #0
 4bc:	0a00000a 	beq	4ec <tz_ioctl+0x2a0>
 4c0:	ea000001 	b	4cc <tz_ioctl+0x280>
copy_from_user():
/home/luojing/share/projects/linux_kernel_s5pv210/kernel/arch/arm/include/asm/uaccess.h:409
 4c4:	e3a01004 	mov	r1, #4
 4c8:	ebfffffe 	bl	0 <__memzero>
open_session():
/home/luojing/share/projects/2014-01-16/trustzone/tz_driver/tz_driver.c:130
 4cc:	e59f1228 	ldr	r1, [pc, #552]	; 6fc <tz_ioctl+0x4b0>
 4d0:	e3a02082 	mov	r2, #130	; 0x82
 4d4:	e59f021c 	ldr	r0, [pc, #540]	; 6f8 <tz_ioctl+0x4ac>
/home/luojing/share/projects/2014-01-16/trustzone/tz_driver/tz_driver.c:131
 4d8:	e3e05015 	mvn	r5, #21
/home/luojing/share/projects/2014-01-16/trustzone/tz_driver/tz_driver.c:130
 4dc:	ebfffffe 	bl	0 <printk>
/home/luojing/share/projects/2014-01-16/trustzone/tz_driver/tz_driver.c:131
 4e0:	e59f022c 	ldr	r0, [pc, #556]	; 714 <tz_ioctl+0x4c8>
 4e4:	ebfffffe 	bl	0 <printk>
 4e8:	ea000066 	b	688 <tz_ioctl+0x43c>
kmalloc():
/home/luojing/share/projects/linux_kernel_s5pv210/kernel/include/linux/slub_def.h:262
 4ec:	e3a010d0 	mov	r1, #208	; 0xd0
 4f0:	e5940004 	ldr	r0, [r4, #4]
 4f4:	ebfffffe 	bl	0 <__kmalloc>
open_session():
/home/luojing/share/projects/2014-01-16/trustzone/tz_driver/tz_driver.c:138
 4f8:	e5942004 	ldr	r2, [r4, #4]
/home/luojing/share/projects/2014-01-16/trustzone/tz_driver/tz_driver.c:134
 4fc:	e5840000 	str	r0, [r4]
/home/luojing/share/projects/2014-01-16/trustzone/tz_driver/tz_driver.c:137
 500:	e51b1054 	ldr	r1, [fp, #-84]	; 0x54
copy_from_user():
/home/luojing/share/projects/linux_kernel_s5pv210/kernel/arch/arm/include/asm/uaccess.h:406
 504:	e5953008 	ldr	r3, [r5, #8]
 508:	e091c002 	adds	ip, r1, r2
 50c:	30dcc003 	sbcscc	ip, ip, r3
 510:	33a03000 	movcc	r3, #0
 514:	e3530000 	cmp	r3, #0
 518:	1a000003 	bne	52c <tz_ioctl+0x2e0>
/home/luojing/share/projects/linux_kernel_s5pv210/kernel/arch/arm/include/asm/uaccess.h:407
 51c:	ebfffffe 	bl	0 <__copy_from_user>
open_session():
/home/luojing/share/projects/2014-01-16/trustzone/tz_driver/tz_driver.c:136
 520:	e3500000 	cmp	r0, #0
 524:	1a000004 	bne	53c <tz_ioctl+0x2f0>
 528:	ea000006 	b	548 <tz_ioctl+0x2fc>
copy_from_user():
/home/luojing/share/projects/linux_kernel_s5pv210/kernel/arch/arm/include/asm/uaccess.h:409
 52c:	e3520000 	cmp	r2, #0
 530:	0a000004 	beq	548 <tz_ioctl+0x2fc>
 534:	e1a01002 	mov	r1, r2
 538:	ebfffffe 	bl	0 <__memzero>
open_session():
/home/luojing/share/projects/2014-01-16/trustzone/tz_driver/tz_driver.c:139
 53c:	e59f01b4 	ldr	r0, [pc, #436]	; 6f8 <tz_ioctl+0x4ac>
 540:	e3a0208b 	mov	r2, #139	; 0x8b
 544:	ea00004a 	b	674 <tz_ioctl+0x428>
/home/luojing/share/projects/2014-01-16/trustzone/tz_driver/tz_driver.c:144
 548:	e59f11ac 	ldr	r1, [pc, #428]	; 6fc <tz_ioctl+0x4b0>
 54c:	e3a02090 	mov	r2, #144	; 0x90
 550:	e59f01a0 	ldr	r0, [pc, #416]	; 6f8 <tz_ioctl+0x4ac>
 554:	ebfffffe 	bl	0 <printk>
/home/luojing/share/projects/2014-01-16/trustzone/tz_driver/tz_driver.c:146
 558:	e5846008 	str	r6, [r4, #8]
/home/luojing/share/projects/2014-01-16/trustzone/tz_driver/tz_driver.c:147
 55c:	e3a03010 	mov	r3, #16
 560:	e584300c 	str	r3, [r4, #12]
/home/luojing/share/projects/2014-01-16/trustzone/tz_driver/tz_driver.c:150
 564:	e5963010 	ldr	r3, [r6, #16]
/home/luojing/share/projects/2014-01-16/trustzone/tz_driver/tz_driver.c:153
 568:	e3a02102 	mov	r2, #-2147483648	; 0x80000000
/home/luojing/share/projects/2014-01-16/trustzone/tz_driver/tz_driver.c:158
 56c:	e59f1188 	ldr	r1, [pc, #392]	; 6fc <tz_ioctl+0x4b0>
/home/luojing/share/projects/2014-01-16/trustzone/tz_driver/tz_driver.c:153
 570:	e5842024 	str	r2, [r4, #36]	; 0x24
/home/luojing/share/projects/2014-01-16/trustzone/tz_driver/tz_driver.c:154
 574:	e3002155 	movw	r2, #341	; 0x155
/home/luojing/share/projects/2014-01-16/trustzone/tz_driver/tz_driver.c:150
 578:	e5843010 	str	r3, [r4, #16]
/home/luojing/share/projects/2014-01-16/trustzone/tz_driver/tz_driver.c:154
 57c:	e5842020 	str	r2, [r4, #32]
/home/luojing/share/projects/2014-01-16/trustzone/tz_driver/tz_driver.c:158
 580:	e3a0209e 	mov	r2, #158	; 0x9e
 584:	e59f016c 	ldr	r0, [pc, #364]	; 6f8 <tz_ioctl+0x4ac>
 588:	ebfffffe 	bl	0 <printk>
CallTZFunction():
/home/luojing/share/projects/2014-01-16/trustzone/tz_driver/tz_driver.c:56
 58c:	e3e03000 	mvn	r3, #0
/home/luojing/share/projects/2014-01-16/trustzone/tz_driver/tz_driver.c:57
 590:	e3a00106 	mov	r0, #-2147483647	; 0x80000001
/home/luojing/share/projects/2014-01-16/trustzone/tz_driver/tz_driver.c:56
 594:	e50b3028 	str	r3, [fp, #-40]	; 0x28
/home/luojing/share/projects/2014-01-16/trustzone/tz_driver/tz_driver.c:58
 598:	e1a01004 	mov	r1, r4
/home/luojing/share/projects/2014-01-16/trustzone/tz_driver/tz_driver.c:59
 59c:	e3a02000 	mov	r2, #0
/home/luojing/share/projects/2014-01-16/trustzone/tz_driver/tz_driver.c:60
 5a0:	e1600070 	smc	0
/home/luojing/share/projects/2014-01-16/trustzone/tz_driver/tz_driver.c:72
 5a4:	e50b0028 	str	r0, [fp, #-40]	; 0x28
/home/luojing/share/projects/2014-01-16/trustzone/tz_driver/tz_driver.c:73
 5a8:	e59f114c 	ldr	r1, [pc, #332]	; 6fc <tz_ioctl+0x4b0>
 5ac:	e282204a 	add	r2, r2, #74	; 0x4a
 5b0:	e59f0140 	ldr	r0, [pc, #320]	; 6f8 <tz_ioctl+0x4ac>
 5b4:	ebfffffe 	bl	0 <printk>
/home/luojing/share/projects/2014-01-16/trustzone/tz_driver/tz_driver.c:75
 5b8:	e51b5028 	ldr	r5, [fp, #-40]	; 0x28
open_session():
/home/luojing/share/projects/2014-01-16/trustzone/tz_driver/tz_driver.c:162
 5bc:	e59f0134 	ldr	r0, [pc, #308]	; 6f8 <tz_ioctl+0x4ac>
 5c0:	e3a020a2 	mov	r2, #162	; 0xa2
 5c4:	e59f1130 	ldr	r1, [pc, #304]	; 6fc <tz_ioctl+0x4b0>
 5c8:	ebfffffe 	bl	0 <printk>
/home/luojing/share/projects/2014-01-16/trustzone/tz_driver/tz_driver.c:163
 5cc:	e3550000 	cmp	r5, #0
 5d0:	1a00002a 	bne	680 <tz_ioctl+0x434>
copy_to_user():
/home/luojing/share/projects/linux_kernel_s5pv210/kernel/arch/arm/include/asm/uaccess.h:415
 5d4:	e1a0200d 	mov	r2, sp
 5d8:	e3c26d7f 	bic	r6, r2, #8128	; 0x1fc0
 5dc:	e3c6603f 	bic	r6, r6, #63	; 0x3f
open_session():
/home/luojing/share/projects/2014-01-16/trustzone/tz_driver/tz_driver.c:170
 5e0:	e3a020aa 	mov	r2, #170	; 0xaa
 5e4:	e59f010c 	ldr	r0, [pc, #268]	; 6f8 <tz_ioctl+0x4ac>
 5e8:	e59f110c 	ldr	r1, [pc, #268]	; 6fc <tz_ioctl+0x4b0>
 5ec:	ebfffffe 	bl	0 <printk>
copy_to_user():
/home/luojing/share/projects/linux_kernel_s5pv210/kernel/arch/arm/include/asm/uaccess.h:415
 5f0:	e5963008 	ldr	r3, [r6, #8]
open_session():
/home/luojing/share/projects/2014-01-16/trustzone/tz_driver/tz_driver.c:171
 5f4:	e51b0030 	ldr	r0, [fp, #-48]	; 0x30
copy_to_user():
/home/luojing/share/projects/linux_kernel_s5pv210/kernel/arch/arm/include/asm/uaccess.h:415
 5f8:	e2902014 	adds	r2, r0, #20
 5fc:	30d22003 	sbcscc	r2, r2, r3
 600:	33a03000 	movcc	r3, #0
 604:	e3530000 	cmp	r3, #0
 608:	1a000004 	bne	620 <tz_ioctl+0x3d4>
/home/luojing/share/projects/linux_kernel_s5pv210/kernel/arch/arm/include/asm/uaccess.h:416
 60c:	e2841028 	add	r1, r4, #40	; 0x28
 610:	e3a02014 	mov	r2, #20
 614:	ebfffffe 	bl	0 <__copy_to_user>
open_session():
/home/luojing/share/projects/2014-01-16/trustzone/tz_driver/tz_driver.c:171
 618:	e3500000 	cmp	r0, #0
 61c:	0a000002 	beq	62c <tz_ioctl+0x3e0>
/home/luojing/share/projects/2014-01-16/trustzone/tz_driver/tz_driver.c:175
 620:	e59f00d0 	ldr	r0, [pc, #208]	; 6f8 <tz_ioctl+0x4ac>
 624:	e3a020af 	mov	r2, #175	; 0xaf
 628:	ea000011 	b	674 <tz_ioctl+0x428>
/home/luojing/share/projects/2014-01-16/trustzone/tz_driver/tz_driver.c:179
 62c:	e3a020b3 	mov	r2, #179	; 0xb3
 630:	e59f00c0 	ldr	r0, [pc, #192]	; 6f8 <tz_ioctl+0x4ac>
 634:	e59f10c0 	ldr	r1, [pc, #192]	; 6fc <tz_ioctl+0x4b0>
 638:	ebfffffe 	bl	0 <printk>
copy_to_user():
/home/luojing/share/projects/linux_kernel_s5pv210/kernel/arch/arm/include/asm/uaccess.h:415
 63c:	e5963008 	ldr	r3, [r6, #8]
open_session():
/home/luojing/share/projects/2014-01-16/trustzone/tz_driver/tz_driver.c:180
 640:	e51b002c 	ldr	r0, [fp, #-44]	; 0x2c
copy_to_user():
/home/luojing/share/projects/linux_kernel_s5pv210/kernel/arch/arm/include/asm/uaccess.h:415
 644:	e2902004 	adds	r2, r0, #4
 648:	30d22003 	sbcscc	r2, r2, r3
 64c:	33a03000 	movcc	r3, #0
 650:	e3530000 	cmp	r3, #0
 654:	1a000004 	bne	66c <tz_ioctl+0x420>
/home/luojing/share/projects/linux_kernel_s5pv210/kernel/arch/arm/include/asm/uaccess.h:416
 658:	e2841040 	add	r1, r4, #64	; 0x40
 65c:	e3a02004 	mov	r2, #4
 660:	ebfffffe 	bl	0 <__copy_to_user>
open_session():
/home/luojing/share/projects/2014-01-16/trustzone/tz_driver/tz_driver.c:180
 664:	e3500000 	cmp	r0, #0
 668:	0a000004 	beq	680 <tz_ioctl+0x434>
/home/luojing/share/projects/2014-01-16/trustzone/tz_driver/tz_driver.c:184
 66c:	e59f0084 	ldr	r0, [pc, #132]	; 6f8 <tz_ioctl+0x4ac>
 670:	e3a020b8 	mov	r2, #184	; 0xb8
 674:	e59f1080 	ldr	r1, [pc, #128]	; 6fc <tz_ioctl+0x4b0>
 678:	ebfffffe 	bl	0 <printk>
 67c:	e59f507c 	ldr	r5, [pc, #124]	; 700 <tz_ioctl+0x4b4>
/home/luojing/share/projects/2014-01-16/trustzone/tz_driver/tz_driver.c:189
 680:	e5940000 	ldr	r0, [r4]
 684:	ebfffffe 	bl	0 <kfree>
/home/luojing/share/projects/2014-01-16/trustzone/tz_driver/tz_driver.c:191
 688:	e1a00004 	mov	r0, r4
 68c:	ebfffffe 	bl	0 <kfree>
/home/luojing/share/projects/2014-01-16/trustzone/tz_driver/tz_driver.c:193
 690:	e59f1064 	ldr	r1, [pc, #100]	; 6fc <tz_ioctl+0x4b0>
 694:	e3a020c1 	mov	r2, #193	; 0xc1
 698:	e59f0058 	ldr	r0, [pc, #88]	; 6f8 <tz_ioctl+0x4ac>
 69c:	ebfffffe 	bl	0 <printk>
 6a0:	ea00000b 	b	6d4 <tz_ioctl+0x488>
tz_ioctl():
/home/luojing/share/projects/2014-01-16/trustzone/tz_driver/tz_driver.c:247
 6a4:	e59f006c 	ldr	r0, [pc, #108]	; 718 <tz_ioctl+0x4cc>
/home/luojing/share/projects/2014-01-16/trustzone/tz_driver/tz_driver.c:248
 6a8:	e3e05015 	mvn	r5, #21
/home/luojing/share/projects/2014-01-16/trustzone/tz_driver/tz_driver.c:247
 6ac:	ebfffffe 	bl	0 <printk>
/home/luojing/share/projects/2014-01-16/trustzone/tz_driver/tz_driver.c:248
 6b0:	e59f0064 	ldr	r0, [pc, #100]	; 71c <tz_ioctl+0x4d0>
 6b4:	ea000005 	b	6d0 <tz_ioctl+0x484>
/home/luojing/share/projects/2014-01-16/trustzone/tz_driver/tz_driver.c:252
 6b8:	e59f0060 	ldr	r0, [pc, #96]	; 720 <tz_ioctl+0x4d4>
/home/luojing/share/projects/2014-01-16/trustzone/tz_driver/tz_driver.c:253
 6bc:	e3e05015 	mvn	r5, #21
/home/luojing/share/projects/2014-01-16/trustzone/tz_driver/tz_driver.c:252
 6c0:	ebfffffe 	bl	0 <printk>
/home/luojing/share/projects/2014-01-16/trustzone/tz_driver/tz_driver.c:253
 6c4:	e59f0058 	ldr	r0, [pc, #88]	; 724 <tz_ioctl+0x4d8>
 6c8:	ea000000 	b	6d0 <tz_ioctl+0x484>
/home/luojing/share/projects/2014-01-16/trustzone/tz_driver/tz_driver.c:257
 6cc:	e3e05015 	mvn	r5, #21
 6d0:	ebfffffe 	bl	0 <printk>
/home/luojing/share/projects/2014-01-16/trustzone/tz_driver/tz_driver.c:262
 6d4:	e1a00005 	mov	r0, r5
 6d8:	e24bd020 	sub	sp, fp, #32
 6dc:	e89da9f0 	ldm	sp, {r4, r5, r6, r7, r8, fp, sp, pc}
 6e0:	000001ac 	andeq	r0, r0, ip, lsr #3
 6e4:	000001d4 	ldrdeq	r0, [r0], -r4
 6e8:	c00c5401 	andgt	r5, ip, r1, lsl #8
 6ec:	c02c5403 	eorgt	r5, ip, r3, lsl #8
 6f0:	00000353 	andeq	r0, r0, r3, asr r3
 6f4:	000001fd 	strdeq	r0, [r0], -sp
 6f8:	0000021f 	andeq	r0, r0, pc, lsl r2
 6fc:	00000234 	andeq	r0, r0, r4, lsr r2
 700:	ffff0006 	undefined instruction 0xffff0006
 704:	0000047c 	andeq	r0, r0, ip, ror r4
	...
 710:	000003d0 	ldrdeq	r0, [r0], -r0
 714:	0000027c 	andeq	r0, r0, ip, ror r2
 718:	000002a5 	andeq	r0, r0, r5, lsr #5
 71c:	000002c8 	andeq	r0, r0, r8, asr #5
 720:	000002fb 	strdeq	r0, [r0], -fp
 724:	0000031f 	andeq	r0, r0, pc, lsl r3

Disassembly of section .exit.text:

00000000 <cleanup_module>:
tz_exit():
/home/luojing/share/projects/2014-01-16/trustzone/tz_driver/tz_driver.c:326
   0:	e1a0c00d 	mov	ip, sp
   4:	e92dd830 	push	{r4, r5, fp, ip, lr, pc}
   8:	e24cb004 	sub	fp, ip, #4
   c:	e92d4000 	push	{lr}
  10:	ebfffffe 	bl	0 <__gnu_mcount_nc>
/home/luojing/share/projects/2014-01-16/trustzone/tz_driver/tz_driver.c:328
  14:	e59f4054 	ldr	r4, [pc, #84]	; 70 <cleanup_module+0x70>
/home/luojing/share/projects/2014-01-16/trustzone/tz_driver/tz_driver.c:327
  18:	e59f0054 	ldr	r0, [pc, #84]	; 74 <cleanup_module+0x74>
  1c:	ebfffffe 	bl	0 <printk>
/home/luojing/share/projects/2014-01-16/trustzone/tz_driver/tz_driver.c:331
  20:	e59f5050 	ldr	r5, [pc, #80]	; 78 <cleanup_module+0x78>
/home/luojing/share/projects/2014-01-16/trustzone/tz_driver/tz_driver.c:328
  24:	e1a00004 	mov	r0, r4
  28:	ebfffffe 	bl	0 <cdev_del>
/home/luojing/share/projects/2014-01-16/trustzone/tz_driver/tz_driver.c:329
  2c:	e59f0048 	ldr	r0, [pc, #72]	; 7c <cleanup_module+0x7c>
  30:	ebfffffe 	bl	0 <printk>
/home/luojing/share/projects/2014-01-16/trustzone/tz_driver/tz_driver.c:330
  34:	e5941040 	ldr	r1, [r4, #64]	; 0x40
  38:	e594003c 	ldr	r0, [r4, #60]	; 0x3c
  3c:	ebfffffe 	bl	0 <device_destroy>
/home/luojing/share/projects/2014-01-16/trustzone/tz_driver/tz_driver.c:331
  40:	e1a00005 	mov	r0, r5
  44:	ebfffffe 	bl	0 <printk>
/home/luojing/share/projects/2014-01-16/trustzone/tz_driver/tz_driver.c:332
  48:	e594003c 	ldr	r0, [r4, #60]	; 0x3c
  4c:	ebfffffe 	bl	0 <class_destroy>
/home/luojing/share/projects/2014-01-16/trustzone/tz_driver/tz_driver.c:333
  50:	e1a00005 	mov	r0, r5
  54:	ebfffffe 	bl	0 <printk>
/home/luojing/share/projects/2014-01-16/trustzone/tz_driver/tz_driver.c:334
  58:	e5940040 	ldr	r0, [r4, #64]	; 0x40
  5c:	e3a01001 	mov	r1, #1
  60:	ebfffffe 	bl	0 <unregister_chrdev_region>
/home/luojing/share/projects/2014-01-16/trustzone/tz_driver/tz_driver.c:335
  64:	e1a00005 	mov	r0, r5
  68:	ebfffffe 	bl	0 <printk>
/home/luojing/share/projects/2014-01-16/trustzone/tz_driver/tz_driver.c:336
  6c:	e89da830 	ldm	sp, {r4, r5, fp, sp, pc}
	...
  78:	0000002c 	andeq	r0, r0, ip, lsr #32
  7c:	0000001d 	andeq	r0, r0, sp, lsl r0

Disassembly of section .init.text:

00000000 <init_module>:
tz_init():
/home/luojing/share/projects/2014-01-16/trustzone/tz_driver/tz_driver.c:273
   0:	e1a0c00d 	mov	ip, sp
   4:	e92dd870 	push	{r4, r5, r6, fp, ip, lr, pc}
   8:	e24cb004 	sub	fp, ip, #4
   c:	e24dd00c 	sub	sp, sp, #12
/home/luojing/share/projects/2014-01-16/trustzone/tz_driver/tz_driver.c:277
  10:	e59f5110 	ldr	r5, [pc, #272]	; 128 <init_module+0x128>
  14:	e59f4110 	ldr	r4, [pc, #272]	; 12c <init_module+0x12c>
/home/luojing/share/projects/2014-01-16/trustzone/tz_driver/tz_driver.c:275
  18:	e59f0110 	ldr	r0, [pc, #272]	; 130 <init_module+0x130>
  1c:	ebfffffe 	bl	0 <printk>
/home/luojing/share/projects/2014-01-16/trustzone/tz_driver/tz_driver.c:277
  20:	e2840040 	add	r0, r4, #64	; 0x40
  24:	e3a01000 	mov	r1, #0
  28:	e3a02001 	mov	r2, #1
  2c:	e1a03005 	mov	r3, r5
  30:	ebfffffe 	bl	0 <alloc_chrdev_region>
/home/luojing/share/projects/2014-01-16/trustzone/tz_driver/tz_driver.c:278
  34:	e2506000 	subs	r6, r0, #0
/home/luojing/share/projects/2014-01-16/trustzone/tz_driver/tz_driver.c:279
  38:	159f00f4 	ldrne	r0, [pc, #244]	; 134 <init_module+0x134>
/home/luojing/share/projects/2014-01-16/trustzone/tz_driver/tz_driver.c:278
  3c:	1a00002d 	bne	f8 <init_module+0xf8>
/home/luojing/share/projects/2014-01-16/trustzone/tz_driver/tz_driver.c:282
  40:	e59f00f0 	ldr	r0, [pc, #240]	; 138 <init_module+0x138>
  44:	ebfffffe 	bl	0 <printk>
/home/luojing/share/projects/2014-01-16/trustzone/tz_driver/tz_driver.c:284
  48:	e59f00ec 	ldr	r0, [pc, #236]	; 13c <init_module+0x13c>
  4c:	e1a01005 	mov	r1, r5
  50:	e2842044 	add	r2, r4, #68	; 0x44
  54:	ebfffffe 	bl	0 <__class_create>
/home/luojing/share/projects/2014-01-16/trustzone/tz_driver/tz_driver.c:285
  58:	e3700a01 	cmn	r0, #4096	; 0x1000
/home/luojing/share/projects/2014-01-16/trustzone/tz_driver/tz_driver.c:284
  5c:	e584003c 	str	r0, [r4, #60]	; 0x3c
/home/luojing/share/projects/2014-01-16/trustzone/tz_driver/tz_driver.c:285
  60:	9a000003 	bls	74 <init_module+0x74>
/home/luojing/share/projects/2014-01-16/trustzone/tz_driver/tz_driver.c:287
  64:	e59f00d4 	ldr	r0, [pc, #212]	; 140 <init_module+0x140>
  68:	e3e06000 	mvn	r6, #0
  6c:	ebfffffe 	bl	0 <printk>
/home/luojing/share/projects/2014-01-16/trustzone/tz_driver/tz_driver.c:288
  70:	ea000025 	b	10c <init_module+0x10c>
/home/luojing/share/projects/2014-01-16/trustzone/tz_driver/tz_driver.c:290
  74:	e59f00c8 	ldr	r0, [pc, #200]	; 144 <init_module+0x144>
  78:	ebfffffe 	bl	0 <printk>
/home/luojing/share/projects/2014-01-16/trustzone/tz_driver/tz_driver.c:292
  7c:	e1a01006 	mov	r1, r6
  80:	e594003c 	ldr	r0, [r4, #60]	; 0x3c
  84:	e1a03006 	mov	r3, r6
  88:	e5942040 	ldr	r2, [r4, #64]	; 0x40
  8c:	e58d5000 	str	r5, [sp]
  90:	ebfffffe 	bl	0 <device_create>
/home/luojing/share/projects/2014-01-16/trustzone/tz_driver/tz_driver.c:294
  94:	e3500000 	cmp	r0, #0
/home/luojing/share/projects/2014-01-16/trustzone/tz_driver/tz_driver.c:292
  98:	e5840044 	str	r0, [r4, #68]	; 0x44
/home/luojing/share/projects/2014-01-16/trustzone/tz_driver/tz_driver.c:294
  9c:	1a000003 	bne	b0 <init_module+0xb0>
/home/luojing/share/projects/2014-01-16/trustzone/tz_driver/tz_driver.c:296
  a0:	e59f00a0 	ldr	r0, [pc, #160]	; 148 <init_module+0x148>
  a4:	e3e06000 	mvn	r6, #0
  a8:	ebfffffe 	bl	0 <printk>
/home/luojing/share/projects/2014-01-16/trustzone/tz_driver/tz_driver.c:297
  ac:	ea000013 	b	100 <init_module+0x100>
/home/luojing/share/projects/2014-01-16/trustzone/tz_driver/tz_driver.c:299
  b0:	e59f0094 	ldr	r0, [pc, #148]	; 14c <init_module+0x14c>
  b4:	ebfffffe 	bl	0 <printk>
/home/luojing/share/projects/2014-01-16/trustzone/tz_driver/tz_driver.c:302
  b8:	e1a00004 	mov	r0, r4
  bc:	e59f108c 	ldr	r1, [pc, #140]	; 150 <init_module+0x150>
  c0:	ebfffffe 	bl	0 <cdev_init>
/home/luojing/share/projects/2014-01-16/trustzone/tz_driver/tz_driver.c:303
  c4:	e1a00004 	mov	r0, r4
  c8:	e5941040 	ldr	r1, [r4, #64]	; 0x40
  cc:	e3a02001 	mov	r2, #1
  d0:	ebfffffe 	bl	0 <cdev_add>
/home/luojing/share/projects/2014-01-16/trustzone/tz_driver/tz_driver.c:304
  d4:	e2506000 	subs	r6, r0, #0
  d8:	0a000005 	beq	f4 <init_module+0xf4>
/home/luojing/share/projects/2014-01-16/trustzone/tz_driver/tz_driver.c:305
  dc:	e59f0070 	ldr	r0, [pc, #112]	; 154 <init_module+0x154>
  e0:	ebfffffe 	bl	0 <printk>
/home/luojing/share/projects/2014-01-16/trustzone/tz_driver/tz_driver.c:316
  e4:	e5941040 	ldr	r1, [r4, #64]	; 0x40
  e8:	e594003c 	ldr	r0, [r4, #60]	; 0x3c
  ec:	ebfffffe 	bl	0 <device_destroy>
  f0:	ea000002 	b	100 <init_module+0x100>
/home/luojing/share/projects/2014-01-16/trustzone/tz_driver/tz_driver.c:308
  f4:	e59f005c 	ldr	r0, [pc, #92]	; 158 <init_module+0x158>
  f8:	ebfffffe 	bl	0 <printk>
/home/luojing/share/projects/2014-01-16/trustzone/tz_driver/tz_driver.c:310
  fc:	ea000006 	b	11c <init_module+0x11c>
/home/luojing/share/projects/2014-01-16/trustzone/tz_driver/tz_driver.c:318
 100:	e59f3024 	ldr	r3, [pc, #36]	; 12c <init_module+0x12c>
 104:	e593003c 	ldr	r0, [r3, #60]	; 0x3c
 108:	ebfffffe 	bl	0 <class_destroy>
/home/luojing/share/projects/2014-01-16/trustzone/tz_driver/tz_driver.c:320
 10c:	e59f3018 	ldr	r3, [pc, #24]	; 12c <init_module+0x12c>
 110:	e3a01001 	mov	r1, #1
 114:	e5930040 	ldr	r0, [r3, #64]	; 0x40
 118:	ebfffffe 	bl	0 <unregister_chrdev_region>
/home/luojing/share/projects/2014-01-16/trustzone/tz_driver/tz_driver.c:323
 11c:	e1a00006 	mov	r0, r6
 120:	e24bd018 	sub	sp, fp, #24
 124:	e89da870 	ldm	sp, {r4, r5, r6, fp, sp, pc}
 128:	000000c5 	andeq	r0, r0, r5, asr #1
 12c:	00000000 	andeq	r0, r0, r0
 130:	000000aa 	andeq	r0, r0, sl, lsr #1
 134:	000000d6 	ldrdeq	r0, [r0], -r6
 138:	000000f7 	strdeq	r0, [r0], -r7
 13c:	00000000 	andeq	r0, r0, r0
 140:	00000114 	andeq	r0, r0, r4, lsl r1
 144:	0000012e 	andeq	r0, r0, lr, lsr #2
 148:	00000144 	andeq	r0, r0, r4, asr #2
 14c:	0000015f 	andeq	r0, r0, pc, asr r1
 150:	00000000 	andeq	r0, r0, r0
 154:	00000176 	andeq	r0, r0, r6, ror r1
 158:	0000018c 	andeq	r0, r0, ip, lsl #3

Disassembly of section .ARM.extab.exit.text:

00000000 <.ARM.extab.exit.text>:
   0:	81019b44 	tsthi	r1, r4, asr #22
   4:	8683b0b0 	undefined instruction 0x8683b0b0
   8:	00000000 	andeq	r0, r0, r0

Disassembly of section .ARM.exidx.exit.text:

00000000 <.ARM.exidx.exit.text>:
	...

Disassembly of section .ARM.extab:

00000000 <.ARM.extab>:
   0:	81019b49 	tsthi	r1, r9, asr #22
   4:	86ffb0b0 	undefined instruction 0x86ffb0b0
   8:	00000000 	andeq	r0, r0, r0
   c:	81019b44 	tsthi	r1, r4, asr #22
  10:	b1088681 	smlabblt	r8, r1, r6, r8
  14:	00000000 	andeq	r0, r0, r0
  18:	81019b47 	tsthi	r1, r7, asr #22
  1c:	869fb0b0 	undefined instruction 0x869fb0b0
  20:	00000000 	andeq	r0, r0, r0
  24:	81019b47 	tsthi	r1, r7, asr #22
  28:	869fb0b0 	undefined instruction 0x869fb0b0
  2c:	00000000 	andeq	r0, r0, r0

Disassembly of section .ARM.exidx:

00000000 <.ARM.exidx>:
	...
   8:	000000f0 	strdeq	r0, [r0], -r0
   c:	0000000c 	andeq	r0, r0, ip
  10:	00000144 	andeq	r0, r0, r4, asr #2
  14:	00000018 	andeq	r0, r0, r8, lsl r0
  18:	0000024c 	andeq	r0, r0, ip, asr #4
  1c:	00000024 	andeq	r0, r0, r4, lsr #32

Disassembly of section .ARM.extab.init.text:

00000000 <.ARM.extab.init.text>:
   0:	81019b45 	tsthi	r1, r5, asr #22
   4:	8687b0b0 	undefined instruction 0x8687b0b0
   8:	00000000 	andeq	r0, r0, r0

Disassembly of section .ARM.exidx.init.text:

00000000 <.ARM.exidx.init.text>:
	...

Disassembly of section .modinfo:

00000000 <__mod_description342>:
   0:	63736564 	cmnvs	r3, #419430400	; 0x19000000
   4:	74706972 	ldrbtvc	r6, [r0], #-2418	; 0x972
   8:	3d6e6f69 	stclcc	15, cr6, [lr, #-420]!	; 0xfffffe5c
   c:	534f2d54 	movtpl	r2, #64852	; 0xfd54
  10:	55525420 	ldrbpl	r5, [r2, #-1056]	; 0x420
  14:	4f5a5453 	svcmi	0x005a5453
  18:	4420454e 	strtmi	r4, [r0], #-1358	; 0x54e
  1c:	45564952 	ldrbmi	r4, [r6, #-2386]	; 0x952
  20:	00000052 	andeq	r0, r0, r2, asr r0

00000024 <__mod_license341>:
  24:	6563696c 	strbvs	r6, [r3, #-2412]!	; 0x96c
  28:	3d65736e 	stclcc	3, cr7, [r5, #-440]!	; 0xfffffe48
  2c:	6c617544 	cfstr64vs	mvdx7, [r1], #-272	; 0xfffffef0
  30:	44534220 	ldrbmi	r4, [r3], #-544	; 0x220
  34:	4c50472f 	mrrcmi	7, 2, r4, r0, cr15
  38:	00000000 	andeq	r0, r0, r0

0000003c <__module_depends>:
  3c:	65706564 	ldrbvs	r6, [r0, #-1380]!	; 0x564
  40:	3d73646e 	cfldrdcc	mvd6, [r3, #-440]!	; 0xfffffe48
  44:	00000000 	andeq	r0, r0, r0

00000048 <__mod_vermagic5>:
  48:	6d726576 	cfldr64vs	mvdx6, [r2, #-472]!	; 0xfffffe28
  4c:	63696761 	cmnvs	r9, #25427968	; 0x1840000
  50:	362e323d 	undefined instruction 0x362e323d
  54:	2e32332e 	cdpcs	3, 3, cr3, cr2, cr14, {1}
  58:	72702039 	rsbsvc	r2, r0, #57	; 0x39
  5c:	706d6565 	rsbvc	r6, sp, r5, ror #10
  60:	6f6d2074 	svcvs	0x006d2074
  64:	6e755f64 	cdpvs	15, 7, cr5, cr5, cr4, {3}
  68:	64616f6c 	strbtvs	r6, [r1], #-3948	; 0xf6c
  6c:	4d524120 	ldfmie	f4, [r2, #-128]	; 0xffffff80
  70:	00203776 	eoreq	r3, r0, r6, ror r7

Disassembly of section .rodata.str1.1:

00000000 <.rodata.str1.1>:
   0:	473e313c 	undefined instruction 0x473e313c
   4:	62646f6f 	rsbvs	r6, r4, #444	; 0x1bc
   8:	74206579 	strtvc	r6, [r0], #-1401	; 0x579
   c:	74737572 	ldrbtvc	r7, [r3], #-1394	; 0x572
  10:	656e6f7a 	strbvs	r6, [lr, #-3962]!	; 0xf7a
  14:	69726420 	ldmdbvs	r2!, {r5, sl, sp, lr}^
  18:	0a726576 	beq	1c995f8 <tz_ioctl+0x1c993ac>
  1c:	3e313c00 	cdpcc	12, 3, cr3, cr1, cr0, {0}
  20:	76656463 	strbtvc	r6, [r5], -r3, ror #8
  24:	6c65645f 	cfstrdvs	mvd6, [r5], #-380	; 0xfffffe84
  28:	000a2928 	andeq	r2, sl, r8, lsr #18
  2c:	643e313c 	ldrtvs	r3, [lr], #-316	; 0x13c
  30:	63697665 	cmnvs	r9, #105906176	; 0x6500000
  34:	65645f65 	strbvs	r5, [r4, #-3941]!	; 0xf65
  38:	6f727473 	svcvs	0x00727473
  3c:	0a292879 	beq	a4a228 <tz_ioctl+0xa49fdc>
  40:	78322500 	ldmdavc	r2!, {r8, sl, sp}
  44:	25783225 	ldrbcs	r3, [r8, #-549]!	; 0x225
  48:	32257832 	eorcc	r7, r5, #3276800	; 0x320000
  4c:	32252d78 	eorcc	r2, r5, #7680	; 0x1e00
  50:	78322578 	ldmdavc	r2!, {r3, r4, r5, r6, r8, sl, sp}
  54:	7832252d 	ldmdavc	r2!, {r0, r2, r3, r5, r8, sl, sp}
  58:	2d783225 	lfmcs	f3, 2, [r8, #-148]!	; (ldclcs 2, cr3, [r8, #-148]!)	; 0xffffff6c
  5c:	25783225 	ldrbcs	r3, [r8, #-549]!	; 0x225
  60:	252d7832 	strcs	r7, [sp, #-2098]!	; 0x832
  64:	32257832 	eorcc	r7, r5, #3276800	; 0x320000
  68:	78322578 	ldmdavc	r2!, {r3, r4, r5, r6, r8, sl, sp}
  6c:	25783225 	ldrbcs	r3, [r8, #-549]!	; 0x225
  70:	32257832 	eorcc	r7, r5, #3276800	; 0x320000
  74:	313c0078 	teqcc	ip, r8, ror r0
  78:	0073253e 	rsbseq	r2, r3, lr, lsr r5
  7c:	743e313c 	ldrtvc	r3, [lr], #-316	; 0x13c
  80:	65725f7a 	ldrbvs	r5, [r2, #-3962]!	; 0xf7a
  84:	7361656c 	cmnvc	r1, #452984832	; 0x1b000000
  88:	0a292865 	beq	a4a224 <tz_ioctl+0xa49fd8>
  8c:	3e313c00 	cdpcc	12, 3, cr3, cr1, cr0, {0}
  90:	656c6966 	strbvs	r6, [ip, #-2406]!	; 0x966
  94:	6972702e 	ldmdbvs	r2!, {r1, r2, r3, r5, ip, sp, lr}^
  98:	65746176 	ldrbvs	r6, [r4, #-374]!	; 0x176
  9c:	7461645f 	strbtvc	r6, [r1], #-1119	; 0x45f
  a0:	73692061 	cmnvc	r9, #97	; 0x61
  a4:	6c756e20 	ldclvs	14, cr6, [r5], #-128	; 0xffffff80
  a8:	313c006c 	teqcc	ip, ip, rrx
  ac:	6c65483e 	stclvs	8, cr4, [r5], #-248	; 0xffffff08
  b0:	74206f6c 	strtvc	r6, [r0], #-3948	; 0xf6c
  b4:	74737572 	ldrbtvc	r7, [r3], #-1394	; 0x572
  b8:	656e6f7a 	strbvs	r6, [lr, #-3962]!	; 0xf7a
  bc:	69726420 	ldmdbvs	r2!, {r5, sl, sp, lr}^
  c0:	0a726576 	beq	1c996a0 <tz_ioctl+0x1c99454>
  c4:	75727400 	ldrbvc	r7, [r2, #-1024]!	; 0x400
  c8:	6f7a7473 	svcvs	0x007a7473
  cc:	645f656e 	ldrbvs	r6, [pc], #1390	; d4 <.rodata.str1.1+0xd4>
  d0:	65766972 	ldrbvs	r6, [r6, #-2418]!	; 0x972
  d4:	313c0072 	teqcc	ip, r2, ror r0
  d8:	6c6c613e 	stfvse	f6, [ip], #-248	; 0xffffff08
  dc:	635f636f 	cmpvs	pc, #-1140850687	; 0xbc000001
  e0:	65647268 	strbvs	r7, [r4, #-616]!	; 0x268
  e4:	65725f76 	ldrbvs	r5, [r2, #-3958]!	; 0xf76
  e8:	6e6f6967 	cdpvs	9, 6, cr6, cr15, cr7, {3}
  ec:	66202928 	strtvs	r2, [r0], -r8, lsr #18
  f0:	656c6961 	strbvs	r6, [ip, #-2401]!	; 0x961
  f4:	3c000a64 	stccc	10, cr0, [r0], {100}	; 0x64
  f8:	6c613e31 	stclvs	14, cr3, [r1], #-196	; 0xffffff3c
  fc:	5f636f6c 	svcpl	0x00636f6c
 100:	64726863 	ldrbtvs	r6, [r2], #-2147	; 0x863
 104:	725f7665 	subsvc	r7, pc, #105906176	; 0x6500000
 108:	6f696765 	svcvs	0x00696765
 10c:	2029286e 	eorcs	r2, r9, lr, ror #16
 110:	000a6b6f 	andeq	r6, sl, pc, ror #22
 114:	633e313c 	teqvs	lr, #15
 118:	7373616c 	cmnvc	r3, #27
 11c:	6572635f 	ldrbvs	r6, [r2, #-863]!	; 0x35f
 120:	28657461 	stmdacs	r5!, {r0, r5, r6, sl, ip, sp, lr}^
 124:	61662029 	cmnvs	r6, r9, lsr #32
 128:	64656c69 	strbtvs	r6, [r5], #-3177	; 0xc69
 12c:	313c000a 	teqcc	ip, sl
 130:	616c633e 	cmnvs	ip, lr, lsr r3
 134:	635f7373 	cmpvs	pc, #-872415231	; 0xcc000001
 138:	74616572 	strbtvc	r6, [r1], #-1394	; 0x572
 13c:	20292865 	eorcs	r2, r9, r5, ror #16
 140:	000a6b6f 	andeq	r6, sl, pc, ror #22
 144:	643e313c 	ldrtvs	r3, [lr], #-316	; 0x13c
 148:	63697665 	cmnvs	r9, #105906176	; 0x6500000
 14c:	72635f65 	rsbvc	r5, r3, #404	; 0x194
 150:	65746165 	ldrbvs	r6, [r4, #-357]!	; 0x165
 154:	66202928 	strtvs	r2, [r0], -r8, lsr #18
 158:	656c6961 	strbvs	r6, [ip, #-2401]!	; 0x961
 15c:	3c000a64 	stccc	10, cr0, [r0], {100}	; 0x64
 160:	65643e31 	strbvs	r3, [r4, #-3633]!	; 0xe31
 164:	65636976 	strbvs	r6, [r3, #-2422]!	; 0x976
 168:	6572635f 	ldrbvs	r6, [r2, #-863]!	; 0x35f
 16c:	28657461 	stmdacs	r5!, {r0, r5, r6, sl, ip, sp, lr}^
 170:	6b6f2029 	blvs	1bc821c <tz_ioctl+0x1bc7fd0>
 174:	313c000a 	teqcc	ip, sl
 178:	6564633e 	strbvs	r6, [r4, #-830]!	; 0x33e
 17c:	64615f76 	strbtvs	r5, [r1], #-3958	; 0xf76
 180:	20292864 	eorcs	r2, r9, r4, ror #16
 184:	6c696166 	stfvse	f6, [r9], #-408	; 0xfffffe68
 188:	000a6465 	andeq	r6, sl, r5, ror #8
 18c:	633e313c 	teqvs	lr, #15
 190:	5f766564 	svcpl	0x00766564
 194:	28646461 	stmdacs	r4!, {r0, r5, r6, sl, sp, lr}^
 198:	6b6f2029 	blvs	1bc8244 <tz_ioctl+0x1bc7ff8>
 19c:	313c000a 	teqcc	ip, sl
 1a0:	5f7a743e 	svcpl	0x007a743e
 1a4:	6e65706f 	cdpvs	0, 6, cr7, cr5, cr15, {3}
 1a8:	000a2928 	andeq	r2, sl, r8, lsr #18
 1ac:	653e313c 	ldrvs	r3, [lr, #-316]!	; 0x13c
 1b0:	726f7272 	rsbvc	r7, pc, #536870919	; 0x20000007
 1b4:	7a743a20 	bvc	1d0ea3c <tz_ioctl+0x1d0e7f0>
 1b8:	636f695f 	cmnvs	pc, #1556480	; 0x17c000
 1bc:	29286c74 	stmdbcs	r8!, {r2, r4, r5, r6, sl, fp, sp, lr}
 1c0:	766e6920 	strbtvc	r6, [lr], -r0, lsr #18
 1c4:	64696c61 	strbtvs	r6, [r9], #-3169	; 0xc61
 1c8:	67616d20 	strbvs	r6, [r1, -r0, lsr #26]!
 1cc:	6e206369 	cdpvs	3, 2, cr6, cr0, cr9, {3}
 1d0:	000a6d75 	andeq	r6, sl, r5, ror sp
 1d4:	653e313c 	ldrvs	r3, [lr, #-316]!	; 0x13c
 1d8:	726f7272 	rsbvc	r7, pc, #536870919	; 0x20000007
 1dc:	7a743a20 	bvc	1d0ea64 <tz_ioctl+0x1d0e818>
 1e0:	636f695f 	cmnvs	pc, #1556480	; 0x17c000
 1e4:	29286c74 	stmdbcs	r8!, {r2, r4, r5, r6, sl, fp, sp, lr}
 1e8:	72616c20 	rsbvc	r6, r1, #8192	; 0x2000
 1ec:	20726567 	rsbscs	r6, r2, r7, ror #10
 1f0:	6e616874 	mcrvs	8, 3, r6, cr1, cr4, {3}
 1f4:	78616d20 	stmdavc	r1!, {r5, r8, sl, fp, sp, lr}^
 1f8:	0a726e20 	beq	1c9ba80 <tz_ioctl+0x1c9b834>
 1fc:	3e313c00 	cdpcc	12, 3, cr3, cr1, cr0, {0}
 200:	20676f6c 	rsbcs	r6, r7, ip, ror #30
 204:	7a743a20 	bvc	1d0ea8c <tz_ioctl+0x1d0e840>
 208:	636f695f 	cmnvs	pc, #1556480	; 0x17c000
 20c:	29286c74 	stmdbcs	r8!, {r2, r4, r5, r6, sl, fp, sp, lr}
 210:	65706f20 	ldrbvs	r6, [r0, #-3872]!	; 0xf20
 214:	6573206e 	ldrbvs	r2, [r3, #-110]!	; 0x6e
 218:	6f697373 	svcvs	0x00697373
 21c:	3c000a6e 	stccc	10, cr0, [r0], {110}	; 0x6e
 220:	78653e31 	stmdavc	r5!, {r0, r4, r5, r9, sl, fp, ip, sp}^
 224:	74756365 	ldrbtvc	r6, [r5], #-869	; 0x365
 228:	20676e69 	rsbcs	r6, r7, r9, ror #28
 22c:	25207325 	strcs	r7, [r0, #-805]!	; 0x325
 230:	000a2064 	andeq	r2, sl, r4, rrx
 234:	6d6f682f 	stclvs	8, cr6, [pc, #-188]!	; 0xffffff44
 238:	756c2f65 	strbvc	r2, [ip, #-3941]!	; 0xf65
 23c:	6e696a6f 	vnmulvs.f32	s13, s18, s31
 240:	68732f67 	ldmdavs	r3!, {r0, r1, r2, r5, r6, r8, r9, sl, fp, sp}^
 244:	2f657261 	svccs	0x00657261
 248:	6a6f7270 	bvs	1bdcc10 <tz_ioctl+0x1bdc9c4>
 24c:	73746365 	cmnvc	r4, #-1811939327	; 0x94000001
 250:	3130322f 	teqcc	r0, pc, lsr #4
 254:	31302d34 	teqcc	r0, r4, lsr sp
 258:	2f36312d 	svccs	0x0036312d
 25c:	73757274 	cmnvc	r5, #1073741831	; 0x40000007
 260:	6e6f7a74 	mcrvs	10, 3, r7, cr15, cr4, {3}
 264:	7a742f65 	bvc	1d0c000 <tz_ioctl+0x1d0bdb4>
 268:	6972645f 	ldmdbvs	r2!, {r0, r1, r2, r3, r4, r6, sl, sp, lr}^
 26c:	2f726576 	svccs	0x00726576
 270:	645f7a74 	ldrbvs	r7, [pc], #2676	; 278 <.rodata.str1.1+0x278>
 274:	65766972 	ldrbvs	r6, [r6, #-2418]!	; 0x972
 278:	00632e72 	rsbeq	r2, r3, r2, ror lr
 27c:	673e313c 	undefined instruction 0x673e313c
 280:	70207465 	eorvc	r7, r0, r5, ror #8
 284:	6d617261 	sfmvs	f7, 2, [r1, #-388]!	; (stclvs 2, cr7, [r1, #-388]!)	; 0xfffffe7c
 288:	5d305b73 	fldmdbxpl	r0!, {d5-d61}	;@ Deprecated
 28c:	7a69732e 	bvc	1a5cf4c <tz_ioctl+0x1a5cd00>
 290:	72662065 	rsbvc	r2, r6, #101	; 0x65
 294:	75206d6f 	strvc	r6, [r0, #-3439]!	; 0xd6f
 298:	20726573 	rsbscs	r6, r2, r3, ror r5
 29c:	6c696166 	stfvse	f6, [r9], #-408	; 0xfffffe68
 2a0:	0a216465 	beq	85943c <tz_ioctl+0x8591f0>
 2a4:	3e313c00 	cdpcc	12, 3, cr3, cr1, cr0, {0}
 2a8:	20676f6c 	rsbcs	r6, r7, ip, ror #30
 2ac:	7a743a20 	bvc	1d0eb34 <tz_ioctl+0x1d0e8e8>
 2b0:	636f695f 	cmnvs	pc, #1556480	; 0x17c000
 2b4:	29286c74 	stmdbcs	r8!, {r2, r4, r5, r6, sl, fp, sp, lr}
 2b8:	6f6c6320 	svcvs	0x006c6320
 2bc:	73206573 	teqvc	r0, #482344960	; 0x1cc00000
 2c0:	69737365 	ldmdbvs	r3!, {r0, r2, r5, r6, r8, r9, ip, sp, lr}^
 2c4:	000a6e6f 	andeq	r6, sl, pc, ror #28
 2c8:	6c3e313c 	ldfvss	f3, [lr], #-240	; 0xffffff10
 2cc:	2020676f 	eorcs	r6, r0, pc, ror #14
 2d0:	5f7a743a 	svcpl	0x007a743a
 2d4:	74636f69 	strbtvc	r6, [r3], #-3945	; 0xf69
 2d8:	2029286c 	eorcs	r2, r9, ip, ror #16
 2dc:	736f6c63 	cmnvc	pc, #25344	; 0x6300
 2e0:	65732065 	ldrbvs	r2, [r3, #-101]!	; 0x65
 2e4:	6f697373 	svcvs	0x00697373
 2e8:	6f6e206e 	svcvs	0x006e206e
 2ec:	6d692074 	stclvs	0, cr2, [r9, #-464]!	; 0xfffffe30
 2f0:	6d656c70 	stclvs	12, cr6, [r5, #-448]!	; 0xfffffe40
 2f4:	65746e65 	ldrbvs	r6, [r4, #-3685]!	; 0xe65
 2f8:	3c000a64 	stccc	10, cr0, [r0], {100}	; 0x64
 2fc:	6f6c3e31 	svcvs	0x006c3e31
 300:	3a202067 	bcc	8084a4 <tz_ioctl+0x808258>
 304:	695f7a74 	ldmdbvs	pc, {r2, r4, r5, r6, r9, fp, ip, sp, lr}^
 308:	6c74636f 	ldclvs	3, cr6, [r4], #-444	; 0xfffffe44
 30c:	69202928 	stmdbvs	r0!, {r3, r5, r8, fp, sp}
 310:	6b6f766e 	blvs	1bddcd0 <tz_ioctl+0x1bdda84>
 314:	65732065 	ldrbvs	r2, [r3, #-101]!	; 0x65
 318:	6f697373 	svcvs	0x00697373
 31c:	3c000a6e 	stccc	10, cr0, [r0], {110}	; 0x6e
 320:	6f6c3e31 	svcvs	0x006c3e31
 324:	3a202067 	bcc	8084c8 <tz_ioctl+0x80827c>
 328:	695f7a74 	ldmdbvs	pc, {r2, r4, r5, r6, r9, fp, ip, sp, lr}^
 32c:	6c74636f 	ldclvs	3, cr6, [r4], #-444	; 0xfffffe44
 330:	69202928 	stmdbvs	r0!, {r3, r5, r8, fp, sp}
 334:	6b6f766e 	blvs	1bddcf4 <tz_ioctl+0x1bddaa8>
 338:	65732065 	ldrbvs	r2, [r3, #-101]!	; 0x65
 33c:	6f697373 	svcvs	0x00697373
 340:	6f6e206e 	svcvs	0x006e206e
 344:	6d692074 	stclvs	0, cr2, [r9, #-464]!	; 0xfffffe30
 348:	6d656c70 	stclvs	12, cr6, [r5, #-448]!	; 0xfffffe40
 34c:	65746e65 	ldrbvs	r6, [r4, #-3685]!	; 0xe65
 350:	4b000a64 	blmi	2ce8 <tz_ioctl+0x2a9c>
 354:	5f4e5245 	svcpl	0x004e5245
 358:	52454c41 	subpl	r4, r5, #16640	; 0x4100
 35c:	72652054 	rsbvc	r2, r5, #84	; 0x54
 360:	20726f72 	rsbscs	r6, r2, r2, ror pc
 364:	5f7a743a 	svcpl	0x007a743a
 368:	74636f69 	strbtvc	r6, [r3], #-3945	; 0xf69
 36c:	2029286c 	eorcs	r2, r9, ip, ror #16
 370:	20746f6e 	rsbscs	r6, r4, lr, ror #30
 374:	6e756f66 	cdpvs	15, 7, cr6, cr5, cr6, {3}
 378:	20612064 	rsbcs	r2, r1, r4, rrx
 37c:	696c6176 	stmdbvs	ip!, {r1, r2, r4, r5, r6, r8, sp, lr}^
 380:	6f632064 	svcvs	0x00632064
 384:	6e616d6d 	cdpvs	13, 6, cr6, cr1, cr13, {3}
 388:	Address 0x00000388 is out of bounds.


Disassembly of section .data:

00000000 <dev_fops>:
	...

Disassembly of section .gnu.linkonce.this_module:

00000000 <__this_module>:
	...
   c:	645f7a74 	ldrbvs	r7, [pc], #2676	; 14 <__this_module+0x14>
  10:	65766972 	ldrbvs	r6, [r6, #-2418]!	; 0x972
  14:	00000072 	andeq	r0, r0, r2, ror r0
	...

Disassembly of section .note.gnu.build-id:

00000000 <.note.gnu.build-id>:
   0:	00000004 	andeq	r0, r0, r4
   4:	00000014 	andeq	r0, r0, r4, lsl r0
   8:	00000003 	andeq	r0, r0, r3
   c:	00554e47 	subseq	r4, r5, r7, asr #28
  10:	5909ed45 	stmdbpl	r9, {r0, r2, r6, r8, sl, fp, sp, lr, pc}
  14:	064c47bf 	undefined instruction 0x064c47bf
  18:	ff6b76fc 	undefined instruction 0xff6b76fc
  1c:	bd11f7b0 	ldclt	7, cr15, [r1, #-704]	; 0xfffffd40
  20:	94568c4b 	ldrbls	r8, [r6], #-3147	; 0xc4b

Disassembly of section .bss:

00000000 <tz_dev>:
	...

0000003c <tz_class>:
display_uuid():
/home/luojing/share/projects/2014-01-16/trustzone/tz_driver/tz_driver.c:46
  3c:	00000000 	andeq	r0, r0, r0

00000040 <dev_num>:
  40:	00000000 	andeq	r0, r0, r0

00000044 <__key.14618>:
  44:	00000000 	andeq	r0, r0, r0

Disassembly of section .debug_abbrev:

00000000 <.debug_abbrev>:
/home/luojing/share/projects/2014-01-16/trustzone/tz_driver/tz_driver.c:44
   0:	25011101 	strcs	r1, [r1, #-257]	; 0x101
   4:	030b130e 	movweq	r1, #45838	; 0xb30e
   8:	110e1b0e 	tstne	lr, lr, lsl #22
   c:	55015201 	strpl	r5, [r1, #-513]	; 0x201
  10:	00061006 	andeq	r1, r6, r6
  14:	00240200 	eoreq	r0, r4, r0, lsl #4
  18:	0b3e0b0b 	bleq	f82c4c <tz_ioctl+0xf82a00>
/home/luojing/share/projects/2014-01-16/trustzone/tz_driver/tz_driver.c:46
  1c:	00000e03 	andeq	r0, r0, r3, lsl #28
  20:	49010103 	stmdbmi	r1, {r0, r1, r8}
  24:	00130113 	andseq	r0, r3, r3, lsl r1
  28:	00210400 	eoreq	r0, r1, r0, lsl #8
  2c:	0b2f1349 	bleq	bc4d58 <tz_ioctl+0xbc4b0c>
  30:	24050000 	strcs	r0, [r5]
  34:	3e0b0b00 	vmlacc.f64	d0, d11, d0
  38:	0600000b 	streq	r0, [r0], -fp
  3c:	0b0b000f 	bleq	2c0080 <tz_ioctl+0x2bfe34>
  40:	00001349 	andeq	r1, r0, r9, asr #6
  44:	49002607 	stmdbmi	r0, {r0, r1, r2, r9, sl, sp}
  48:	08000013 	stmdaeq	r0, {r0, r1, r4}
  4c:	0c270015 	stceq	0, cr0, [r7], #-84	; 0xffffffac
  50:	00001349 	andeq	r1, r0, r9, asr #6
  54:	0b002409 	bleq	9080 <tz_ioctl+0x8e34>
  58:	030b3e0b 	movweq	r3, #48651	; 0xbe0b
  5c:	0a000008 	beq	84 <.debug_abbrev+0x84>
  60:	0c270015 	stceq	0, cr0, [r7], #-84	; 0xffffffac
  64:	160b0000 	strne	r0, [fp], -r0
  68:	3a0e0300 	bcc	380c70 <tz_ioctl+0x380a24>
  6c:	490b3b0b 	stmdbmi	fp, {r0, r1, r3, r8, r9, fp, ip, sp}
  70:	0c000013 	stceq	0, cr0, [r0], {19}
  74:	08030016 	stmdaeq	r3, {r1, r2, r4}
  78:	0b3b0b3a 	bleq	ec2d68 <tz_ioctl+0xec2b1c>
  7c:	00001349 	andeq	r1, r0, r9, asr #6
  80:	0b01130d 	bleq	44cbc <tz_ioctl+0x44a70>
  84:	3b0b3a0b 	blcc	2ce8b8 <tz_ioctl+0x2ce66c>
  88:	0013010b 	andseq	r0, r3, fp, lsl #2
  8c:	000d0e00 	andeq	r0, sp, r0, lsl #28
  90:	0b3a0e03 	bleq	e838a4 <tz_ioctl+0xe83658>
  94:	13490b3b 	movtne	r0, #39739	; 0x9b3b
  98:	00000a38 	andeq	r0, r0, r8, lsr sl
  9c:	4900350f 	stmdbmi	r0, {r0, r1, r2, r3, r8, sl, ip, sp}
  a0:	10000013 	andne	r0, r0, r3, lsl r0
  a4:	0e030113 	mcreq	1, 0, r0, cr3, cr3, {0}
  a8:	0b3a0b0b 	bleq	e82cdc <tz_ioctl+0xe82a90>
  ac:	13010b3b 	movwne	r0, #6971	; 0x1b3b
  b0:	13110000 	tstne	r1, #0
  b4:	0b0e0301 	bleq	380cc0 <tz_ioctl+0x380a74>
  b8:	3b0b3a0b 	blcc	2ce8ec <tz_ioctl+0x2ce6a0>
  bc:	00130105 	andseq	r0, r3, r5, lsl #2
  c0:	000d1200 	andeq	r1, sp, r0, lsl #4
  c4:	0b3a0e03 	bleq	e838d8 <tz_ioctl+0xe8368c>
  c8:	1349053b 	movtne	r0, #38203	; 0x953b
  cc:	00000a38 	andeq	r0, r0, r8, lsr sl
  d0:	0b000f13 	bleq	3d24 <tz_ioctl+0x3ad8>
/home/luojing/share/projects/2014-01-16/trustzone/tz_driver/tz_driver.c:50
  d4:	1400000b 	strne	r0, [r0], #-11
  d8:	0803000d 	stmdaeq	r3, {r0, r2, r3}
  dc:	0b3b0b3a 	bleq	ec2dcc <tz_ioctl+0xec2b80>
/home/luojing/share/projects/2014-01-16/trustzone/tz_driver/tz_driver.c:51
  e0:	0a381349 	beq	e04e0c <tz_ioctl+0xe04bc0>
  e4:	13150000 	tstne	r5, #0
  e8:	3c0e0300 	stccc	3, cr0, [lr], {0}
  ec:	1600000c 	strne	r0, [r0], -ip
tz_release():
/home/luojing/share/projects/2014-01-16/trustzone/tz_driver/tz_driver.c:199
  f0:	0b0b0117 	bleq	2c0554 <tz_ioctl+0x2c0308>
  f4:	0b3b0b3a 	bleq	ec2de4 <tz_ioctl+0xec2b98>
  f8:	00001301 	andeq	r1, r0, r1, lsl #6
  fc:	49000d17 	stmdbmi	r0, {r0, r1, r2, r4, r8, sl, fp}
 100:	18000013 	stmdane	r0, {r0, r1, r4}
 104:	0e03000d 	cdpeq	0, 0, cr0, cr3, cr13, {0}
 108:	0b3b0b3a 	bleq	ec2df8 <tz_ioctl+0xec2bac>
/home/luojing/share/projects/2014-01-16/trustzone/tz_driver/tz_driver.c:201
 10c:	00001349 	andeq	r1, r0, r9, asr #6
/home/luojing/share/projects/2014-01-16/trustzone/tz_driver/tz_driver.c:202
 110:	49000d19 	stmdbmi	r0, {r0, r3, r4, r8, sl, fp}
 114:	000a3813 	andeq	r3, sl, r3, lsl r8
 118:	01151a00 	tsteq	r5, r0, lsl #20
/home/luojing/share/projects/2014-01-16/trustzone/tz_driver/tz_driver.c:203
 11c:	13490c27 	movtne	r0, #39975	; 0x9c27
/home/luojing/share/projects/2014-01-16/trustzone/tz_driver/tz_driver.c:204
 120:	00001301 	andeq	r1, r0, r1, lsl #6
 124:	4900051b 	stmdbmi	r0, {r0, r1, r3, r4, r8, sl}
 128:	1c000013 	stcne	0, cr0, [r0], {19}
/home/luojing/share/projects/2014-01-16/trustzone/tz_driver/tz_driver.c:207
 12c:	0e030113 	mcreq	1, 0, r0, cr3, cr3, {0}
 130:	0b3a050b 	bleq	e81564 <tz_ioctl+0xe81318>
/home/luojing/share/projects/2014-01-16/trustzone/tz_driver/tz_driver.c:210
 134:	13010b3b 	movwne	r0, #6971	; 0x1b3b
 138:	171d0000 	ldrne	r0, [sp, -r0]
 13c:	0b0e0301 	bleq	380d48 <tz_ioctl+0x380afc>
 140:	3b0b3a05 	blcc	2ce95c <tz_ioctl+0x2ce710>
tz_open():
/home/luojing/share/projects/2014-01-16/trustzone/tz_driver/tz_driver.c:213
 144:	0013010b 	andseq	r0, r3, fp, lsl #2
 148:	01171e00 	tsteq	r7, r0, lsl #28
 14c:	0b0b0e03 	bleq	2c3960 <tz_ioctl+0x2c3714>
 150:	0b3b0b3a 	bleq	ec2e40 <tz_ioctl+0xec2bf4>
 154:	00001301 	andeq	r1, r0, r1, lsl #6
 158:	0b00131f 	bleq	4ddc <tz_ioctl+0x4b90>
kmem_cache_alloc_notrace():
 15c:	3b0b3a0b 	blcc	2ce990 <tz_ioctl+0x2ce744>
tz_open():
 160:	2000000b 	andcs	r0, r0, fp
kmem_cache_alloc_notrace():
/home/luojing/share/projects/linux_kernel_s5pv210/kernel/include/linux/slub_def.h:226
 164:	0e030013 	mcreq	0, 0, r0, cr3, cr3, {0}
 168:	0b3a0b0b 	bleq	e82d9c <tz_ioctl+0xe82b50>
trace_kmalloc():
/home/luojing/share/projects/linux_kernel_s5pv210/kernel/include/trace/events/kmem.h:47
 16c:	0000053b 	andeq	r0, r0, fp, lsr r5
kmalloc():
/home/luojing/share/projects/linux_kernel_s5pv210/kernel/include/linux/slub_def.h:257
 170:	27011521 	strcs	r1, [r1, -r1, lsr #10]
 174:	0013010c 	andseq	r0, r3, ip, lsl #2
trace_kmalloc():
/home/luojing/share/projects/linux_kernel_s5pv210/kernel/include/trace/events/kmem.h:47
 178:	01132200 	tsteq	r3, r0, lsl #4
kmalloc():
/home/luojing/share/projects/linux_kernel_s5pv210/kernel/include/linux/slub_def.h:257
 17c:	050b0e03 	streq	r0, [fp, #-3587]	; 0xe03
trace_kmalloc():
/home/luojing/share/projects/linux_kernel_s5pv210/kernel/include/trace/events/kmem.h:47
 180:	053b0b3a 	ldreq	r0, [fp, #-2874]!	; 0xb3a
kmem_cache_alloc_notrace():
/home/luojing/share/projects/linux_kernel_s5pv210/kernel/include/linux/slub_def.h:226
 184:	00001301 	andeq	r1, r0, r1, lsl #6
trace_kmalloc():
/home/luojing/share/projects/linux_kernel_s5pv210/kernel/include/trace/events/kmem.h:47
 188:	03000d23 	movweq	r0, #3363	; 0xd23
current_thread_info():
/home/luojing/share/projects/linux_kernel_s5pv210/kernel/arch/arm/include/asm/thread_info.h:97
 18c:	3b0b3a08 	blcc	2ce9b4 <tz_ioctl+0x2ce768>
 190:	38134905 	ldmdacc	r3, {r0, r2, r8, fp, lr}
 194:	2400000a 	strcs	r0, [r0], #-10
rcu_read_lock_sched_notrace():
/home/luojing/share/projects/linux_kernel_s5pv210/kernel/include/linux/rcupdate.h:203
 198:	0b0b0113 	bleq	2c05ec <tz_ioctl+0x2c03a0>
 19c:	053b0b3a 	ldreq	r0, [fp, #-2874]!	; 0xb3a
 1a0:	00001301 	andeq	r1, r0, r1, lsl #6
trace_kmalloc():
/home/luojing/share/projects/linux_kernel_s5pv210/kernel/include/trace/events/kmem.h:47
 1a4:	03001625 	movweq	r1, #1573	; 0x625
 1a8:	3b0b3a0e 	blcc	2ce9e8 <tz_ioctl+0x2ce79c>
 1ac:	00134905 	andseq	r4, r3, r5, lsl #18
 1b0:	000d2600 	andeq	r2, sp, r0, lsl #12
 1b4:	0b3a0e03 	bleq	e839c8 <tz_ioctl+0xe8377c>
 1b8:	13490b3b 	movtne	r0, #39739	; 0x9b3b
 1bc:	0b0d0b0b 	bleq	342df0 <tz_ioctl+0x342ba4>
 1c0:	0a380b0c 	beq	e02df8 <tz_ioctl+0xe02bac>
 1c4:	21270000 	teqcs	r7, r0
 1c8:	2f134900 	svccs	0x00134900
 1cc:	28000005 	stmdacs	r0, {r0, r2}
 1d0:	0803000d 	stmdaeq	r3, {r0, r2, r3}
 1d4:	0b3b0b3a 	bleq	ec2ec4 <tz_ioctl+0xec2c78>
 1d8:	00001349 	andeq	r1, r0, r9, asr #6
current_thread_info():
/home/luojing/share/projects/linux_kernel_s5pv210/kernel/include/linux/rcupdate.h:223
 1dc:	03002629 	movweq	r2, #1577	; 0x629
 1e0:	0013490e 	andseq	r4, r3, lr, lsl #18
 1e4:	01042a00 	tsteq	r4, r0, lsl #20
rcu_read_unlock_sched_notrace():
 1e8:	0b0b0e03 	bleq	2c39fc <tz_ioctl+0x2c37b0>
 1ec:	0b3b0b3a 	bleq	ec2edc <tz_ioctl+0xec2c90>
 1f0:	00001301 	andeq	r1, r0, r1, lsl #6
test_bit():
/home/luojing/share/projects/linux_kernel_s5pv210/kernel/include/asm-generic/bitops/non-atomic.h:105
 1f4:	0300282b 	movweq	r2, #2091	; 0x82b
rcu_read_unlock_sched_notrace():
/home/luojing/share/projects/linux_kernel_s5pv210/kernel/include/linux/rcupdate.h:223
 1f8:	000d1c0e 	andeq	r1, sp, lr, lsl #24
 1fc:	01132c00 	tsteq	r3, r0, lsl #24
 200:	0b0b0803 	bleq	2c2214 <tz_ioctl+0x2c1fc8>
tz_open():
/home/luojing/share/projects/2014-01-16/trustzone/tz_driver/tz_driver.c:220
 204:	0b3b0b3a 	bleq	ec2ef4 <tz_ioctl+0xec2ca8>
 208:	00001301 	andeq	r1, r0, r1, lsl #6
 20c:	0b01172d 	bleq	45ec8 <tz_ioctl+0x45c7c>
/home/luojing/share/projects/2014-01-16/trustzone/tz_driver/tz_driver.c:221
 210:	3b0b3a0b 	blcc	2cea44 <tz_ioctl+0x2ce7f8>
 214:	00130105 	andseq	r0, r3, r5, lsl #2
/home/luojing/share/projects/2014-01-16/trustzone/tz_driver/tz_driver.c:222
 218:	000d2e00 	andeq	r2, sp, r0, lsl #28
/home/luojing/share/projects/2014-01-16/trustzone/tz_driver/tz_driver.c:223
 21c:	0b3a0803 	bleq	e82230 <tz_ioctl+0xe81fe4>
 220:	1349053b 	movtne	r0, #38203	; 0x953b
/home/luojing/share/projects/2014-01-16/trustzone/tz_driver/tz_driver.c:224
 224:	0d2f0000 	stceq	0, cr0, [pc]
 228:	3a0e0300 	bcc	380e30 <tz_ioctl+0x380be4>
/home/luojing/share/projects/2014-01-16/trustzone/tz_driver/tz_driver.c:226
 22c:	49053b0b 	stmdbmi	r5, {r0, r1, r3, r8, r9, fp, ip, sp}
 230:	30000013 	andcc	r0, r0, r3, lsl r0
 234:	00000026 	andeq	r0, r0, r6, lsr #32
 238:	03010431 	movweq	r0, #5169	; 0x1431
 23c:	3a0b0b0e 	bcc	2c2e7c <tz_ioctl+0x2c2c30>
 240:	01053b0b 	tsteq	r5, fp, lsl #22
 244:	32000013 	andcc	r0, r0, #19
 248:	0e03000d 	cdpeq	0, 0, cr0, cr3, cr13, {0}
tz_ioctl():
/home/luojing/share/projects/2014-01-16/trustzone/tz_driver/tz_driver.c:228
 24c:	053b0b3a 	ldreq	r0, [fp, #-2874]!	; 0xb3a
 250:	0b0b1349 	bleq	2c4f7c <tz_ioctl+0x2c4d30>
 254:	0b0c0b0d 	bleq	302e90 <tz_ioctl+0x302c44>
 258:	00000a38 	andeq	r0, r0, r8, lsr sl
 25c:	03001333 	movweq	r1, #819	; 0x333
 260:	3a0b0b0e 	bcc	2c2ea0 <tz_ioctl+0x2c2c54>
 264:	000b3b0b 	andeq	r3, fp, fp, lsl #22
 268:	012e3400 	teqeq	lr, r0, lsl #8
/home/luojing/share/projects/2014-01-16/trustzone/tz_driver/tz_driver.c:230
 26c:	0b3a0e03 	bleq	e83a80 <tz_ioctl+0xe83834>
/home/luojing/share/projects/2014-01-16/trustzone/tz_driver/tz_driver.c:228
 270:	0c270b3b 	stceq	11, cr0, [r7], #-236	; 0xffffff14
/home/luojing/share/projects/2014-01-16/trustzone/tz_driver/tz_driver.c:232
 274:	0b201349 	bleq	804fa0 <tz_ioctl+0x804d54>
/home/luojing/share/projects/2014-01-16/trustzone/tz_driver/tz_driver.c:231
 278:	00001301 	andeq	r1, r0, r1, lsl #6
/home/luojing/share/projects/2014-01-16/trustzone/tz_driver/tz_driver.c:235
 27c:	03000535 	movweq	r0, #1333	; 0x535
 280:	3b0b3a08 	blcc	2ceaa8 <tz_ioctl+0x2ce85c>
/home/luojing/share/projects/2014-01-16/trustzone/tz_driver/tz_driver.c:236
 284:	0013490b 	andseq	r4, r3, fp, lsl #18
/home/luojing/share/projects/2014-01-16/trustzone/tz_driver/tz_driver.c:235
 288:	00053600 	andeq	r3, r5, r0, lsl #12
/home/luojing/share/projects/2014-01-16/trustzone/tz_driver/tz_driver.c:240
 28c:	0b3a0e03 	bleq	e83aa0 <tz_ioctl+0xe83854>
 290:	13490b3b 	movtne	r0, #39739	; 0x9b3b
 294:	34370000 	ldrtcc	r0, [r7]
 298:	3a080300 	bcc	200ea0 <tz_ioctl+0x200c54>
 29c:	490b3b0b 	stmdbmi	fp, {r0, r1, r3, r8, r9, fp, ip, sp}
 2a0:	38000013 	stmdacc	r0, {r0, r1, r4}
 2a4:	0000010b 	andeq	r0, r0, fp, lsl #2
 2a8:	31000539 	tstcc	r0, r9, lsr r5
 2ac:	3a000013 	bcc	300 <.debug_abbrev+0x300>
/home/luojing/share/projects/2014-01-16/trustzone/tz_driver/tz_driver.c:257
 2b0:	0e03012e 	adfeqsp	f0, f3, #0.5
/home/luojing/share/projects/2014-01-16/trustzone/tz_driver/tz_driver.c:240
 2b4:	0b3b0b3a 	bleq	ec2fa4 <tz_ioctl+0xec2d58>
 2b8:	0b200c27 	bleq	80335c <tz_ioctl+0x803110>
copy_from_user():
/home/luojing/share/projects/linux_kernel_s5pv210/kernel/arch/arm/include/asm/uaccess.h:406
 2bc:	00001301 	andeq	r1, r0, r1, lsl #6
 2c0:	01010b3b 	tsteq	r1, fp, lsr fp
tz_ioctl():
/home/luojing/share/projects/2014-01-16/trustzone/tz_driver/tz_driver.c:242
 2c4:	3c000013 	stccc	0, cr0, [r0], {19}
open_session():
/home/luojing/share/projects/linux_kernel_s5pv210/kernel/arch/arm/include/asm/uaccess.h:406
 2c8:	13310034 	teqne	r1, #52	; 0x34
tz_ioctl():
/home/luojing/share/projects/2014-01-16/trustzone/tz_driver/tz_driver.c:242
 2cc:	343d0000 	ldrtcc	r0, [sp]
open_session():
/home/luojing/share/projects/2014-01-16/trustzone/tz_driver/tz_driver.c:90
 2d0:	3a0e0300 	bcc	380ed8 <tz_ioctl+0x380c8c>
 2d4:	490b3b0b 	stmdbmi	fp, {r0, r1, r3, r8, r9, fp, ip, sp}
 2d8:	3e000013 	mcrcc	0, 0, r0, cr0, cr3, {0}
 2dc:	0e03000a 	cdpeq	0, 0, cr0, cr3, cr10, {0}
copy_from_user():
/home/luojing/share/projects/linux_kernel_s5pv210/kernel/arch/arm/include/asm/uaccess.h:406
 2e0:	0b3b0b3a 	bleq	ec2fd0 <tz_ioctl+0xec2d84>
 2e4:	0a3f0000 	beq	fc02ec <tz_ioctl+0xfc00a0>
 2e8:	00133100 	andseq	r3, r3, r0, lsl #2
 2ec:	000a4000 	andeq	r4, sl, r0
 2f0:	0b3a0e03 	bleq	e83b04 <tz_ioctl+0xe838b8>
 2f4:	0000053b 	andeq	r0, r0, fp, lsr r5
 2f8:	03012e41 	movweq	r2, #7745	; 0x1e41
/home/luojing/share/projects/linux_kernel_s5pv210/kernel/arch/arm/include/asm/uaccess.h:407
 2fc:	3b0b3a0e 	blcc	2ceb3c <tz_ioctl+0x2ce8f0>
 300:	490c2705 	stmdbmi	ip, {r0, r2, r8, r9, sl, sp}
 304:	010b2013 	tsteq	fp, r3, lsl r0
open_session():
/home/luojing/share/projects/2014-01-16/trustzone/tz_driver/tz_driver.c:92
 308:	42000013 	andmi	r0, r0, #19
 30c:	08030005 	stmdaeq	r3, {r0, r2}
 310:	053b0b3a 	ldreq	r0, [fp, #-2874]!	; 0xb3a
copy_from_user():
/home/luojing/share/projects/linux_kernel_s5pv210/kernel/arch/arm/include/asm/uaccess.h:409
 314:	00001349 	andeq	r1, r0, r9, asr #6
 318:	03000543 	movweq	r0, #1347	; 0x543
open_session():
/home/luojing/share/projects/2014-01-16/trustzone/tz_driver/tz_driver.c:96
 31c:	3b0b3a0e 	blcc	2ceb5c <tz_ioctl+0x2ce910>
 320:	00134905 	andseq	r4, r3, r5, lsl #18
 324:	00344400 	eorseq	r4, r4, r0, lsl #8
/home/luojing/share/projects/2014-01-16/trustzone/tz_driver/tz_driver.c:99
 328:	0b3a0e03 	bleq	e83b3c <tz_ioctl+0xe838f0>
 32c:	1349053b 	movtne	r0, #38203	; 0x953b
 330:	34450000 	strbcc	r0, [r5]
 334:	3a080300 	bcc	200f3c <tz_ioctl+0x200cf0>
copy_from_user():
/home/luojing/share/projects/linux_kernel_s5pv210/kernel/arch/arm/include/asm/uaccess.h:406
 338:	49053b0b 	stmdbmi	r5, {r0, r1, r3, r8, r9, fp, ip, sp}
open_session():
/home/luojing/share/projects/2014-01-16/trustzone/tz_driver/tz_driver.c:101
 33c:	46000013 	undefined instruction 0x46000013
 340:	0e03002e 	cdpeq	0, 0, cr0, cr3, cr14, {1}
copy_from_user():
/home/luojing/share/projects/linux_kernel_s5pv210/kernel/arch/arm/include/asm/uaccess.h:406
 344:	053b0b3a 	ldreq	r0, [fp, #-2874]!	; 0xb3a
 348:	01110c27 	tsteq	r1, r7, lsr #24
 34c:	06400112 	undefined instruction 0x06400112
 350:	2e470000 	cdpcs	0, 4, cr0, cr7, cr0, {0}
 354:	3a0e0301 	bcc	380f60 <tz_ioctl+0x380d14>
/home/luojing/share/projects/linux_kernel_s5pv210/kernel/arch/arm/include/asm/uaccess.h:407
 358:	270b3b0b 	strcs	r3, [fp, -fp, lsl #22]
 35c:	1201110c 	andne	r1, r1, #3
open_session():
/home/luojing/share/projects/2014-01-16/trustzone/tz_driver/tz_driver.c:100
 360:	01064001 	tsteq	r6, r1
 364:	48000013 	stmdami	r0, {r0, r1, r4}
 368:	0e030005 	cdpeq	0, 0, cr0, cr3, cr5, {0}
copy_from_user():
/home/luojing/share/projects/linux_kernel_s5pv210/kernel/arch/arm/include/asm/uaccess.h:409
 36c:	0b3b0b3a 	bleq	ec305c <tz_ioctl+0xec2e10>
 370:	06021349 	streq	r1, [r2], -r9, asr #6
open_session():
/home/luojing/share/projects/2014-01-16/trustzone/tz_driver/tz_driver.c:104
 374:	34490000 	strbcc	r0, [r9]
 378:	3a080300 	bcc	200f80 <tz_ioctl+0x200d34>
 37c:	490b3b0b 	stmdbmi	fp, {r0, r1, r3, r8, r9, fp, ip, sp}
 380:	000a0213 	andeq	r0, sl, r3, lsl r2
 384:	012e4a00 	teqeq	lr, r0, lsl #20
 388:	0b3a0e03 	bleq	e83b9c <tz_ioctl+0xe83950>
/home/luojing/share/projects/2014-01-16/trustzone/tz_driver/tz_driver.c:107
 38c:	0c270b3b 	stceq	11, cr0, [r7], #-236	; 0xffffff14
 390:	01111349 	tsteq	r1, r9, asr #6
 394:	06400112 	undefined instruction 0x06400112
 398:	00001301 	andeq	r1, r0, r1, lsl #6
/home/luojing/share/projects/2014-01-16/trustzone/tz_driver/tz_driver.c:111
 39c:	03012e4b 	movweq	r2, #7755	; 0x1e4b
 3a0:	3b0b3a0e 	blcc	2cebe0 <tz_ioctl+0x2ce994>
 3a4:	490c2705 	stmdbmi	ip, {r0, r2, r8, r9, sl, sp}
 3a8:	12011113 	andne	r1, r1, #-1073741820	; 0xc0000004
/home/luojing/share/projects/2014-01-16/trustzone/tz_driver/tz_driver.c:112
 3ac:	01064001 	tsteq	r6, r1
 3b0:	4c000013 	stcmi	0, cr0, [r0], {19}
 3b4:	08030034 	stmdaeq	r3, {r2, r4, r5}
/home/luojing/share/projects/2014-01-16/trustzone/tz_driver/tz_driver.c:117
 3b8:	053b0b3a 	ldreq	r0, [fp, #-2874]!	; 0xb3a
 3bc:	06021349 	streq	r1, [r2], -r9, asr #6
 3c0:	0a4d0000 	beq	13403c8 <tz_ioctl+0x134017c>
 3c4:	3a0e0300 	bcc	380fcc <tz_ioctl+0x380d80>
 3c8:	11053b0b 	tstne	r5, fp, lsl #22
 3cc:	4e000001 	cdpmi	0, 0, cr0, cr0, cr1, {0}
/home/luojing/share/projects/2014-01-16/trustzone/tz_driver/tz_driver.c:120
 3d0:	0111010b 	tsteq	r1, fp, lsl #2
 3d4:	00000112 	andeq	r0, r0, r2, lsl r1
 3d8:	0300344f 	movweq	r3, #1103	; 0x44f
 3dc:	3b0b3a0e 	blcc	2cec1c <tz_ioctl+0x2ce9d0>
kmem_cache_alloc_notrace():
/home/luojing/share/projects/linux_kernel_s5pv210/kernel/include/linux/slub_def.h:226
 3e0:	02134905 	andseq	r4, r3, #81920	; 0x14000
 3e4:	5000000a 	andpl	r0, r0, sl
 3e8:	1331011d 	teqne	r1, #1073741831	; 0x40000007
trace_kmalloc():
/home/luojing/share/projects/linux_kernel_s5pv210/kernel/include/trace/events/kmem.h:47
 3ec:	06550152 	undefined instruction 0x06550152
kmalloc():
/home/luojing/share/projects/linux_kernel_s5pv210/kernel/include/linux/slub_def.h:257
 3f0:	0b590b58 	bleq	1643158 <tz_ioctl+0x1642f0c>
 3f4:	00001301 	andeq	r1, r0, r1, lsl #6
trace_kmalloc():
/home/luojing/share/projects/linux_kernel_s5pv210/kernel/include/trace/events/kmem.h:47
 3f8:	55010b51 	strpl	r0, [r1, #-2897]	; 0xb51
kmalloc():
/home/luojing/share/projects/linux_kernel_s5pv210/kernel/include/linux/slub_def.h:257
 3fc:	52000006 	andpl	r0, r0, #6
trace_kmalloc():
/home/luojing/share/projects/linux_kernel_s5pv210/kernel/include/trace/events/kmem.h:47
 400:	13310034 	teqne	r1, #52	; 0x34
kmem_cache_alloc_notrace():
/home/luojing/share/projects/linux_kernel_s5pv210/kernel/include/linux/slub_def.h:226
 404:	00000a02 	andeq	r0, r0, r2, lsl #20
trace_kmalloc():
/home/luojing/share/projects/linux_kernel_s5pv210/kernel/include/trace/events/kmem.h:47
 408:	31011d53 	tstcc	r1, r3, asr sp
rcu_read_lock_sched_notrace():
/home/luojing/share/projects/linux_kernel_s5pv210/kernel/include/linux/rcupdate.h:203
 40c:	55015213 	strpl	r5, [r1, #-531]	; 0x213
 410:	590b5806 	stmdbpl	fp, {r1, r2, fp, ip, lr}
 414:	00130105 	andseq	r0, r3, r5, lsl #2
trace_kmalloc():
/home/luojing/share/projects/linux_kernel_s5pv210/kernel/include/trace/events/kmem.h:47
 418:	00345400 	eorseq	r5, r4, r0, lsl #8
 41c:	06021331 	undefined instruction 0x06021331
 420:	1d550000 	ldclne	0, cr0, [r5]
 424:	11133101 	tstne	r3, r1, lsl #2
 428:	58011201 	stmdapl	r1, {r0, r9, ip}
 42c:	010b590b 	tsteq	fp, fp, lsl #18
 430:	56000013 	undefined instruction 0x56000013
 434:	1331011d 	teqne	r1, #1073741831	; 0x40000007
 438:	01120111 	tsteq	r2, r1, lsl r1
 43c:	0b590b58 	bleq	16431a4 <tz_ioctl+0x1642f58>
 440:	0b570000 	bleq	15c0448 <tz_ioctl+0x15c01fc>
 444:	12011101 	andne	r1, r1, #1073741824	; 0x40000000
 448:	00130101 	andseq	r0, r3, r1, lsl #2
 44c:	000a5800 	andeq	r5, sl, r0, lsl #16
current_thread_info():
/home/luojing/share/projects/linux_kernel_s5pv210/kernel/include/linux/rcupdate.h:223
 450:	01111331 	tsteq	r1, r1, lsr r3
 454:	05590000 	ldrbeq	r0, [r9]
 458:	3a080300 	bcc	201060 <tz_ioctl+0x200e14>
rcu_read_unlock_sched_notrace():
 45c:	490b3b0b 	stmdbmi	fp, {r0, r1, r3, r8, r9, fp, ip, sp}
 460:	00060213 	andeq	r0, r6, r3, lsl r2
 464:	011d5a00 	tsteq	sp, r0, lsl #20
test_bit():
/home/luojing/share/projects/linux_kernel_s5pv210/kernel/include/asm-generic/bitops/non-atomic.h:105
 468:	01521331 	cmpeq	r2, r1, lsr r3
rcu_read_unlock_sched_notrace():
/home/luojing/share/projects/linux_kernel_s5pv210/kernel/include/linux/rcupdate.h:223
 46c:	0b580655 	bleq	1601dc8 <tz_ioctl+0x1601b7c>
 470:	00000b59 	andeq	r0, r0, r9, asr fp
 474:	55010b5b 	strpl	r0, [r1, #-2907]	; 0xb5b
copy_from_user():
/home/luojing/share/projects/linux_kernel_s5pv210/kernel/arch/arm/include/asm/uaccess.h:406
 478:	00130106 	andseq	r0, r3, r6, lsl #2
 47c:	001d5c00 	andseq	r5, sp, r0, lsl #24
 480:	01111331 	tsteq	r1, r1, lsr r3
open_session():
/home/luojing/share/projects/2014-01-16/trustzone/tz_driver/tz_driver.c:122
 484:	0b580112 	bleq	16008d4 <tz_ioctl+0x1600688>
 488:	00000b59 	andeq	r0, r0, r9, asr fp
 48c:	3100055d 	tstcc	r0, sp, asr r5
/home/luojing/share/projects/2014-01-16/trustzone/tz_driver/tz_driver.c:127
 490:	00060213 	andeq	r0, r6, r3, lsl r2
copy_from_user():
/home/luojing/share/projects/linux_kernel_s5pv210/kernel/arch/arm/include/asm/uaccess.h:406
 494:	00345e00 	eorseq	r5, r4, r0, lsl #28
open_session():
/home/luojing/share/projects/2014-01-16/trustzone/tz_driver/tz_driver.c:127
 498:	0b3a0e03 	bleq	e83cac <tz_ioctl+0xe83a60>
copy_from_user():
/home/luojing/share/projects/linux_kernel_s5pv210/kernel/arch/arm/include/asm/uaccess.h:406
 49c:	13490b3b 	movtne	r0, #39739	; 0x9b3b
 4a0:	00000a02 	andeq	r0, r0, r2, lsl #20
 4a4:	0300345f 	movweq	r3, #1119	; 0x45f
 4a8:	3b0b3a0e 	blcc	2cece8 <tz_ioctl+0x2cea9c>
 4ac:	3f13490b 	svccc	0x0013490b
/home/luojing/share/projects/linux_kernel_s5pv210/kernel/arch/arm/include/asm/uaccess.h:407
 4b0:	000c3c0c 	andeq	r3, ip, ip, lsl #24
 4b4:	00216000 	eoreq	r6, r1, r0
open_session():
/home/luojing/share/projects/2014-01-16/trustzone/tz_driver/tz_driver.c:127
 4b8:	34610000 	strbtcc	r0, [r1]
 4bc:	3a0e0300 	bcc	3810c4 <tz_ioctl+0x380e78>
 4c0:	49053b0b 	stmdbmi	r5, {r0, r1, r3, r8, r9, fp, ip, sp}
copy_from_user():
/home/luojing/share/projects/linux_kernel_s5pv210/kernel/arch/arm/include/asm/uaccess.h:409
 4c4:	3c0c3f13 	stccc	15, cr3, [ip], {19}
 4c8:	6200000c 	andvs	r0, r0, #12
open_session():
/home/luojing/share/projects/2014-01-16/trustzone/tz_driver/tz_driver.c:130
 4cc:	13490021 	movtne	r0, #36897	; 0x9021
 4d0:	01000000 	tsteq	r0, r0
 4d4:	0e250111 	mcreq	1, 1, r0, cr5, cr1, {0}
/home/luojing/share/projects/2014-01-16/trustzone/tz_driver/tz_driver.c:131
 4d8:	0e030b13 	vmoveq.32	d3[0], r0
/home/luojing/share/projects/2014-01-16/trustzone/tz_driver/tz_driver.c:130
 4dc:	01110e1b 	tsteq	r1, fp, lsl lr
/home/luojing/share/projects/2014-01-16/trustzone/tz_driver/tz_driver.c:131
 4e0:	06100112 	undefined instruction 0x06100112
 4e4:	24020000 	strcs	r0, [r2]
 4e8:	3e0b0b00 	vmlacc.f64	d0, d11, d0
kmalloc():
/home/luojing/share/projects/linux_kernel_s5pv210/kernel/include/linux/slub_def.h:262
 4ec:	000e030b 	andeq	r0, lr, fp, lsl #6
 4f0:	01010300 	tsteq	r1, r0, lsl #6
 4f4:	13011349 	movwne	r1, #4937	; 0x1349
open_session():
/home/luojing/share/projects/2014-01-16/trustzone/tz_driver/tz_driver.c:138
 4f8:	21040000 	tstcs	r4, r0
/home/luojing/share/projects/2014-01-16/trustzone/tz_driver/tz_driver.c:134
 4fc:	2f134900 	svccs	0x00134900
/home/luojing/share/projects/2014-01-16/trustzone/tz_driver/tz_driver.c:137
 500:	0500000b 	streq	r0, [r0, #-11]
copy_from_user():
/home/luojing/share/projects/linux_kernel_s5pv210/kernel/arch/arm/include/asm/uaccess.h:406
 504:	0b0b0024 	bleq	2c059c <tz_ioctl+0x2c0350>
 508:	00000b3e 	andeq	r0, r0, lr, lsr fp
 50c:	0b000f06 	bleq	412c <tz_ioctl+0x3ee0>
 510:	0013490b 	andseq	r4, r3, fp, lsl #18
 514:	00260700 	eoreq	r0, r6, r0, lsl #14
 518:	00001349 	andeq	r1, r0, r9, asr #6
/home/luojing/share/projects/linux_kernel_s5pv210/kernel/arch/arm/include/asm/uaccess.h:407
 51c:	03001608 	movweq	r1, #1544	; 0x608
open_session():
/home/luojing/share/projects/2014-01-16/trustzone/tz_driver/tz_driver.c:136
 520:	3b0b3a0e 	blcc	2ced60 <tz_ioctl+0x2ceb14>
 524:	0013490b 	andseq	r4, r3, fp, lsl #18
 528:	00240900 	eoreq	r0, r4, r0, lsl #18
copy_from_user():
/home/luojing/share/projects/linux_kernel_s5pv210/kernel/arch/arm/include/asm/uaccess.h:409
 52c:	0b3e0b0b 	bleq	f83160 <tz_ioctl+0xf82f14>
 530:	00000803 	andeq	r0, r0, r3, lsl #16
 534:	0300160a 	movweq	r1, #1546	; 0x60a
 538:	3b0b3a08 	blcc	2ced60 <tz_ioctl+0x2ceb14>
open_session():
/home/luojing/share/projects/2014-01-16/trustzone/tz_driver/tz_driver.c:139
 53c:	0013490b 	andseq	r4, r3, fp, lsl #18
 540:	01130b00 	tsteq	r3, r0, lsl #22
 544:	0b3a0b0b 	bleq	e83178 <tz_ioctl+0xe82f2c>
/home/luojing/share/projects/2014-01-16/trustzone/tz_driver/tz_driver.c:144
 548:	13010b3b 	movwne	r0, #6971	; 0x1b3b
 54c:	0d0c0000 	stceq	0, cr0, [ip]
 550:	3a0e0300 	bcc	381158 <tz_ioctl+0x380f0c>
 554:	490b3b0b 	stmdbmi	fp, {r0, r1, r3, r8, r9, fp, ip, sp}
/home/luojing/share/projects/2014-01-16/trustzone/tz_driver/tz_driver.c:146
 558:	000a3813 	andeq	r3, sl, r3, lsl r8
/home/luojing/share/projects/2014-01-16/trustzone/tz_driver/tz_driver.c:147
 55c:	00350d00 	eorseq	r0, r5, r0, lsl #26
 560:	00001349 	andeq	r1, r0, r9, asr #6
/home/luojing/share/projects/2014-01-16/trustzone/tz_driver/tz_driver.c:150
 564:	0301130e 	movweq	r1, #4878	; 0x130e
/home/luojing/share/projects/2014-01-16/trustzone/tz_driver/tz_driver.c:153
 568:	3a0b0b0e 	bcc	2c31a8 <tz_ioctl+0x2c2f5c>
/home/luojing/share/projects/2014-01-16/trustzone/tz_driver/tz_driver.c:158
 56c:	010b3b0b 	tsteq	fp, fp, lsl #22
/home/luojing/share/projects/2014-01-16/trustzone/tz_driver/tz_driver.c:153
 570:	0f000013 	svceq	0x00000013
/home/luojing/share/projects/2014-01-16/trustzone/tz_driver/tz_driver.c:154
 574:	0b0b000f 	bleq	2c05b8 <tz_ioctl+0x2c036c>
/home/luojing/share/projects/2014-01-16/trustzone/tz_driver/tz_driver.c:150
 578:	13100000 	tstne	r0, #0
/home/luojing/share/projects/2014-01-16/trustzone/tz_driver/tz_driver.c:154
 57c:	3c0e0300 	stccc	3, cr0, [lr], {0}
/home/luojing/share/projects/2014-01-16/trustzone/tz_driver/tz_driver.c:158
 580:	1100000c 	tstne	r0, ip
 584:	0c270015 	stceq	0, cr0, [r7], #-84	; 0xffffffac
 588:	00001349 	andeq	r1, r0, r9, asr #6
CallTZFunction():
/home/luojing/share/projects/2014-01-16/trustzone/tz_driver/tz_driver.c:56
 58c:	27001512 	smladcs	r0, r2, r5, r1
/home/luojing/share/projects/2014-01-16/trustzone/tz_driver/tz_driver.c:57
 590:	1300000c 	movwne	r0, #12
/home/luojing/share/projects/2014-01-16/trustzone/tz_driver/tz_driver.c:56
 594:	0803000d 	stmdaeq	r3, {r0, r2, r3}
/home/luojing/share/projects/2014-01-16/trustzone/tz_driver/tz_driver.c:58
 598:	0b3b0b3a 	bleq	ec3288 <tz_ioctl+0xec303c>
/home/luojing/share/projects/2014-01-16/trustzone/tz_driver/tz_driver.c:59
 59c:	0a381349 	beq	e052c8 <tz_ioctl+0xe0507c>
/home/luojing/share/projects/2014-01-16/trustzone/tz_driver/tz_driver.c:60
 5a0:	13140000 	tstne	r4, #0
/home/luojing/share/projects/2014-01-16/trustzone/tz_driver/tz_driver.c:72
 5a4:	0b0e0301 	bleq	3811b0 <tz_ioctl+0x380f64>
/home/luojing/share/projects/2014-01-16/trustzone/tz_driver/tz_driver.c:73
 5a8:	3b0b3a0b 	blcc	2ceddc <tz_ioctl+0x2ceb90>
 5ac:	00130105 	andseq	r0, r3, r5, lsl #2
 5b0:	000d1500 	andeq	r1, sp, r0, lsl #10
 5b4:	0b3a0e03 	bleq	e83dc8 <tz_ioctl+0xe83b7c>
/home/luojing/share/projects/2014-01-16/trustzone/tz_driver/tz_driver.c:75
 5b8:	1349053b 	movtne	r0, #38203	; 0x953b
open_session():
/home/luojing/share/projects/2014-01-16/trustzone/tz_driver/tz_driver.c:162
 5bc:	00000a38 	andeq	r0, r0, r8, lsr sl
 5c0:	03011316 	movweq	r1, #4886	; 0x1316
 5c4:	3a050b0e 	bcc	143204 <tz_ioctl+0x142fb8>
 5c8:	01053b0b 	tsteq	r5, fp, lsl #22
/home/luojing/share/projects/2014-01-16/trustzone/tz_driver/tz_driver.c:163
 5cc:	17000013 	smladne	r0, r3, r0, r0
 5d0:	0803000d 	stmdaeq	r3, {r0, r2, r3}
copy_to_user():
/home/luojing/share/projects/linux_kernel_s5pv210/kernel/arch/arm/include/asm/uaccess.h:415
 5d4:	053b0b3a 	ldreq	r0, [fp, #-2874]!	; 0xb3a
 5d8:	0a381349 	beq	e05304 <tz_ioctl+0xe050b8>
 5dc:	13180000 	tstne	r8, #0
open_session():
/home/luojing/share/projects/2014-01-16/trustzone/tz_driver/tz_driver.c:170
 5e0:	0b0e0301 	bleq	3811ec <tz_ioctl+0x380fa0>
 5e4:	3b0b3a05 	blcc	2cee00 <tz_ioctl+0x2cebb4>
 5e8:	0013010b 	andseq	r0, r3, fp, lsl #2
 5ec:	01151900 	tsteq	r5, r0, lsl #18
copy_to_user():
/home/luojing/share/projects/linux_kernel_s5pv210/kernel/arch/arm/include/asm/uaccess.h:415
 5f0:	13010c27 	movwne	r0, #7207	; 0x1c27
open_session():
/home/luojing/share/projects/2014-01-16/trustzone/tz_driver/tz_driver.c:171
 5f4:	051a0000 	ldreq	r0, [sl]
copy_to_user():
/home/luojing/share/projects/linux_kernel_s5pv210/kernel/arch/arm/include/asm/uaccess.h:415
 5f8:	00134900 	andseq	r4, r3, r0, lsl #18
 5fc:	01131b00 	tsteq	r3, r0, lsl #22
 600:	0b3a0b0b 	bleq	e83234 <tz_ioctl+0xe82fe8>
 604:	1301053b 	movwne	r0, #5435	; 0x153b
 608:	161c0000 	ldrne	r0, [ip], -r0
/home/luojing/share/projects/linux_kernel_s5pv210/kernel/arch/arm/include/asm/uaccess.h:416
 60c:	3a0e0300 	bcc	381214 <tz_ioctl+0x380fc8>
 610:	49053b0b 	stmdbmi	r5, {r0, r1, r3, r8, r9, fp, ip, sp}
 614:	1d000013 	stcne	0, cr0, [r0, #-76]	; 0xffffffb4
open_session():
/home/luojing/share/projects/2014-01-16/trustzone/tz_driver/tz_driver.c:171
 618:	0e03000d 	cdpeq	0, 0, cr0, cr3, cr13, {0}
 61c:	0b3b0b3a 	bleq	ec330c <tz_ioctl+0xec30c0>
/home/luojing/share/projects/2014-01-16/trustzone/tz_driver/tz_driver.c:175
 620:	0b0b1349 	bleq	2c534c <tz_ioctl+0x2c5100>
 624:	0b0c0b0d 	bleq	303260 <tz_ioctl+0x303014>
 628:	00000a38 	andeq	r0, r0, r8, lsr sl
/home/luojing/share/projects/2014-01-16/trustzone/tz_driver/tz_driver.c:179
 62c:	2701151e 	smladcs	r1, lr, r5, r1
 630:	0113490c 	tsteq	r3, ip, lsl #18
 634:	1f000013 	svcne	0x00000013
 638:	13490021 	movtne	r0, #36897	; 0x9021
copy_to_user():
/home/luojing/share/projects/linux_kernel_s5pv210/kernel/arch/arm/include/asm/uaccess.h:415
 63c:	0000052f 	andeq	r0, r0, pc, lsr #10
open_session():
/home/luojing/share/projects/2014-01-16/trustzone/tz_driver/tz_driver.c:180
 640:	49000d20 	stmdbmi	r0, {r5, r8, sl, fp}
copy_to_user():
/home/luojing/share/projects/linux_kernel_s5pv210/kernel/arch/arm/include/asm/uaccess.h:415
 644:	000a3813 	andeq	r3, sl, r3, lsl r8
 648:	01172100 	tsteq	r7, r0, lsl #2
 64c:	0b3a0b0b 	bleq	e83280 <tz_ioctl+0xe83034>
 650:	13010b3b 	movwne	r0, #6971	; 0x1b3b
 654:	0d220000 	stceq	0, cr0, [r2]
/home/luojing/share/projects/linux_kernel_s5pv210/kernel/arch/arm/include/asm/uaccess.h:416
 658:	3a080300 	bcc	201260 <tz_ioctl+0x201014>
 65c:	490b3b0b 	stmdbmi	fp, {r0, r1, r3, r8, r9, fp, ip, sp}
 660:	23000013 	movwcs	r0, #19
open_session():
/home/luojing/share/projects/2014-01-16/trustzone/tz_driver/tz_driver.c:180
 664:	0e030026 	cdpeq	0, 0, cr0, cr3, cr6, {1}
 668:	00001349 	andeq	r1, r0, r9, asr #6
/home/luojing/share/projects/2014-01-16/trustzone/tz_driver/tz_driver.c:184
 66c:	03010424 	movweq	r0, #5156	; 0x1424
 670:	3a0b0b0e 	bcc	2c32b0 <tz_ioctl+0x2c3064>
 674:	010b3b0b 	tsteq	fp, fp, lsl #22
 678:	25000013 	strcs	r0, [r0, #-19]
 67c:	0e030028 	cdpeq	0, 0, cr0, cr3, cr8, {1}
/home/luojing/share/projects/2014-01-16/trustzone/tz_driver/tz_driver.c:189
 680:	00000d1c 	andeq	r0, r0, ip, lsl sp
 684:	03003426 	movweq	r3, #1062	; 0x426
/home/luojing/share/projects/2014-01-16/trustzone/tz_driver/tz_driver.c:191
 688:	3b0b3a0e 	blcc	2ceec8 <tz_ioctl+0x2cec7c>
 68c:	0213490b 	andseq	r4, r3, #180224	; 0x2c000
/home/luojing/share/projects/2014-01-16/trustzone/tz_driver/tz_driver.c:193
 690:	2700000a 	strcs	r0, [r0, -sl]
 694:	0e030034 	mcreq	0, 0, r0, cr3, cr4, {1}
 698:	0b3b0b3a 	bleq	ec3388 <tz_ioctl+0xec313c>
 69c:	0c3f1349 	ldceq	3, cr1, [pc], #-292	; 0xfffffedc
 6a0:	00000c3c 	andeq	r0, r0, ip, lsr ip
tz_ioctl():
/home/luojing/share/projects/2014-01-16/trustzone/tz_driver/tz_driver.c:247
 6a4:	00002128 	andeq	r2, r0, r8, lsr #2
/home/luojing/share/projects/2014-01-16/trustzone/tz_driver/tz_driver.c:248
 6a8:	00342900 	eorseq	r2, r4, r0, lsl #18
/home/luojing/share/projects/2014-01-16/trustzone/tz_driver/tz_driver.c:247
 6ac:	0b3a0e03 	bleq	e83ec0 <tz_ioctl+0xe83c74>
/home/luojing/share/projects/2014-01-16/trustzone/tz_driver/tz_driver.c:248
 6b0:	1349053b 	movtne	r0, #38203	; 0x953b
 6b4:	0c3c0c3f 	ldceq	12, cr0, [ip], #-252	; 0xffffff04
/home/luojing/share/projects/2014-01-16/trustzone/tz_driver/tz_driver.c:252
 6b8:	212a0000 	teqcs	sl, r0
/home/luojing/share/projects/2014-01-16/trustzone/tz_driver/tz_driver.c:253
 6bc:	00134900 	andseq	r4, r3, r0, lsl #18
/home/luojing/share/projects/2014-01-16/trustzone/tz_driver/tz_driver.c:252
 6c0:	00342b00 	eorseq	r2, r4, r0, lsl #22
/home/luojing/share/projects/2014-01-16/trustzone/tz_driver/tz_driver.c:253
 6c4:	0b3a0e03 	bleq	e83ed8 <tz_ioctl+0xe83c8c>
 6c8:	13490b3b 	movtne	r0, #39739	; 0x9b3b
/home/luojing/share/projects/2014-01-16/trustzone/tz_driver/tz_driver.c:257
 6cc:	0a020c3f 	beq	837d0 <tz_ioctl+0x83584>
 6d0:	Address 0x000006d0 is out of bounds.


Disassembly of section .debug_info:

00000000 <.debug_info>:
display_uuid():
/home/luojing/share/projects/2014-01-16/trustzone/tz_driver/tz_driver.c:44
       0:	00006cb6 	undefined instruction 0x00006cb6
       4:	00000002 	andeq	r0, r0, r2
       8:	01040000 	tsteq	r4, r0
       c:	0000250e 	andeq	r2, r0, lr, lsl #10
      10:	002c3801 	eoreq	r3, ip, r1, lsl #16
      14:	00202a00 	eoreq	r2, r0, r0, lsl #20
	...
/home/luojing/share/projects/2014-01-16/trustzone/tz_driver/tz_driver.c:46
      20:	00026000 	andeq	r6, r2, r0
      24:	00000000 	andeq	r0, r0, r0
      28:	07040200 	streq	r0, [r4, -r0, lsl #4]
      2c:	00001fa8 	andeq	r1, r0, r8, lsr #31
      30:	00002903 	andeq	r2, r0, r3, lsl #18
      34:	00004000 	andeq	r4, r0, r0
      38:	00400400 	subeq	r0, r0, r0, lsl #8
      3c:	00010000 	andeq	r0, r1, r0
      40:	06070405 	streq	r0, [r7], -r5, lsl #8
      44:	00004904 	andeq	r4, r0, r4, lsl #18
      48:	004e0700 	subeq	r0, lr, r0, lsl #14
      4c:	01020000 	tsteq	r2, r0
      50:	00208a08 	eoreq	r8, r0, r8, lsl #20
      54:	07040200 	streq	r0, [r4, -r0, lsl #4]
      58:	00002ecc 	andeq	r2, r0, ip, asr #29
      5c:	00620406 	rsbeq	r0, r2, r6, lsl #8
      60:	01080000 	tsteq	r8, r0
      64:	00000068 	andeq	r0, r0, r8, rrx
      68:	69050409 	stmdbvs	r5, {r0, r3, sl}
      6c:	0600746e 	streq	r7, [r0], -lr, ror #8
      70:	00007504 	andeq	r7, r0, r4, lsl #10
      74:	0b010a00 	bleq	4287c <tz_ioctl+0x42630>
      78:	000002e5 	andeq	r0, r0, r5, ror #5
      7c:	006f8a08 	rsbeq	r8, pc, r8, lsl #20
      80:	ec0b0000 	stc	0, cr0, [fp], {0}
      84:	09000007 	stmdbeq	r0, {r0, r1, r2}
      88:	00008d13 	andeq	r8, r0, r3, lsl sp
      8c:	06010200 	streq	r0, [r1], -r0, lsl #4
      90:	00001a01 	andeq	r1, r0, r1, lsl #20
      94:	00099e0b 	andeq	r9, r9, fp, lsl #28
      98:	9f140900 	svcls	0x00140900
      9c:	02000000 	andeq	r0, r0, #0
      a0:	0c270801 	stceq	8, cr0, [r7], #-4
      a4:	950b0000 	strls	r0, [fp]
      a8:	09000012 	stmdbeq	r0, {r1, r4}
      ac:	0000b116 	andeq	fp, r0, r6, lsl r1
      b0:	05020200 	streq	r0, [r2, #-512]	; 0x200
      b4:	00002f7a 	andeq	r2, r0, sl, ror pc
      b8:	001b5b0b 	andseq	r5, fp, fp, lsl #22
      bc:	c3170900 	tstgt	r7, #0
      c0:	02000000 	andeq	r0, r0, #0
      c4:	19e00702 	stmibne	r0!, {r1, r8, r9, sl}^
      c8:	bc0b0000 	stclt	0, cr0, [fp], {0}
      cc:	09000013 	stmdbeq	r0, {r0, r1, r4}
      d0:	00006819 	andeq	r6, r0, r9, lsl r8
/home/luojing/share/projects/2014-01-16/trustzone/tz_driver/tz_driver.c:50
      d4:	1cbb0b00 	vldmiane	fp!, {d0-d-1}
      d8:	1a090000 	bne	2400e0 <tz_ioctl+0x23fe94>
      dc:	00000055 	andeq	r0, r0, r5, asr r0
/home/luojing/share/projects/2014-01-16/trustzone/tz_driver/tz_driver.c:51
      e0:	75050802 	strvc	r0, [r5, #-2050]	; 0x802
      e4:	0b00002b 	bleq	198 <.debug_info+0x198>
      e8:	00001f17 	andeq	r1, r0, r7, lsl pc
      ec:	00f21e09 	rscseq	r1, r2, r9, lsl #28
tz_release():
/home/luojing/share/projects/2014-01-16/trustzone/tz_driver/tz_driver.c:199
      f0:	08020000 	stmdaeq	r2, {}
      f4:	00289207 	eoreq	r9, r8, r7, lsl #4
      f8:	31750c00 	cmncc	r5, r0, lsl #24
      fc:	2e090036 	mcrcs	0, 0, r0, cr9, cr6, {1}
     100:	000000c3 	andeq	r0, r0, r3, asr #1
     104:	3233750c 	eorscc	r7, r3, #50331648	; 0x3000000
     108:	55310900 	ldrpl	r0, [r1, #-2304]!	; 0x900
/home/luojing/share/projects/2014-01-16/trustzone/tz_driver/tz_driver.c:201
     10c:	0c000000 	stceq	0, cr0, [r0], {0}
/home/luojing/share/projects/2014-01-16/trustzone/tz_driver/tz_driver.c:202
     110:	00343675 	eorseq	r3, r4, r5, ror r6
     114:	00f23409 	rscseq	r3, r2, r9, lsl #8
     118:	f00b0000 	undefined instruction 0xf00b0000
/home/luojing/share/projects/2014-01-16/trustzone/tz_driver/tz_driver.c:203
     11c:	0a000020 	beq	1a4 <.debug_info+0x1a4>
/home/luojing/share/projects/2014-01-16/trustzone/tz_driver/tz_driver.c:204
     120:	0000c308 	andeq	ip, r0, r8, lsl #6
     124:	1c280b00 	stcne	11, cr0, [r8]
     128:	170b0000 	strne	r0, [fp, -r0]
/home/luojing/share/projects/2014-01-16/trustzone/tz_driver/tz_driver.c:207
     12c:	000000c3 	andeq	r0, r0, r3, asr #1
     130:	2d050402 	cfstrscs	mvf0, [r5, #-8]
/home/luojing/share/projects/2014-01-16/trustzone/tz_driver/tz_driver.c:210
     134:	0b00001d 	bleq	1b0 <.debug_info+0x1b0>
     138:	00000540 	andeq	r0, r0, r0, asr #10
     13c:	00551e0b 	subseq	r1, r5, fp, lsl #28
     140:	6a0b0000 	bvs	2c0008 <tz_ioctl+0x2bfdbc>
tz_open():
/home/luojing/share/projects/2014-01-16/trustzone/tz_driver/tz_driver.c:213
     144:	0b00001f 	bleq	1c8 <.debug_info+0x1c8>
     148:	0000681f 	andeq	r6, r0, pc, lsl r8
     14c:	27c00b00 	strbcs	r0, [r0, r0, lsl #22]
     150:	210b0000 	tstcs	fp, r0
     154:	00000130 	andeq	r0, r0, r0, lsr r1
     158:	00287f0b 	eoreq	r7, r8, fp, lsl #30
kmem_cache_alloc_notrace():
     15c:	68250b00 	stmdavs	r5!, {r8, r9, fp}
tz_open():
     160:	06000000 	streq	r0, [r0], -r0
kmem_cache_alloc_notrace():
/home/luojing/share/projects/linux_kernel_s5pv210/kernel/include/linux/slub_def.h:226
     164:	00004e04 	andeq	r4, r0, r4, lsl #28
     168:	08800b00 	stmeq	r0, {r8, r9, fp}
trace_kmalloc():
/home/luojing/share/projects/linux_kernel_s5pv210/kernel/include/trace/events/kmem.h:47
     16c:	2a0b0000 	bcs	2c0174 <tz_ioctl+0x2bff28>
kmalloc():
/home/luojing/share/projects/linux_kernel_s5pv210/kernel/include/linux/slub_def.h:257
     170:	00000055 	andeq	r0, r0, r5, asr r0
     174:	00246c0b 	eoreq	r6, r4, fp, lsl #24
trace_kmalloc():
/home/luojing/share/projects/linux_kernel_s5pv210/kernel/include/trace/events/kmem.h:47
     178:	552b0b00 	strpl	r0, [fp, #-2816]!	; 0xb00
kmalloc():
/home/luojing/share/projects/linux_kernel_s5pv210/kernel/include/linux/slub_def.h:257
     17c:	0b000000 	bleq	184 <.debug_info+0x184>
trace_kmalloc():
/home/luojing/share/projects/linux_kernel_s5pv210/kernel/include/trace/events/kmem.h:47
     180:	00000b59 	andeq	r0, r0, r9, asr fp
kmem_cache_alloc_notrace():
/home/luojing/share/projects/linux_kernel_s5pv210/kernel/include/linux/slub_def.h:226
     184:	00e0320b 	rsceq	r3, r0, fp, lsl #4
trace_kmalloc():
/home/luojing/share/projects/linux_kernel_s5pv210/kernel/include/trace/events/kmem.h:47
     188:	a60b0000 	strge	r0, [fp], -r0
current_thread_info():
/home/luojing/share/projects/linux_kernel_s5pv210/kernel/arch/arm/include/asm/thread_info.h:97
     18c:	0c00000c 	stceq	0, cr0, [r0], {12}
     190:	0000d512 	andeq	sp, r0, r2, lsl r5
     194:	2b380b00 	blcs	e02c08 <tz_ioctl+0xe029bc>
rcu_read_lock_sched_notrace():
/home/luojing/share/projects/linux_kernel_s5pv210/kernel/include/linux/rcupdate.h:203
     198:	150c0000 	strne	r0, [ip]
     19c:	0000018a 	andeq	r0, r0, sl, lsl #3
     1a0:	0028460b 	eoreq	r4, r8, fp, lsl #12
trace_kmalloc():
/home/luojing/share/projects/linux_kernel_s5pv210/kernel/include/trace/events/kmem.h:47
     1a4:	25170c00 	ldrcs	r0, [r7, #-3072]	; 0xc00
     1a8:	0b000001 	bleq	1b4 <.debug_info+0x1b4>
     1ac:	00002236 	andeq	r2, r0, r6, lsr r2
     1b0:	01581f0c 	cmpeq	r8, ip, lsl #30
     1b4:	e10b0000 	tst	fp, r0
     1b8:	0c000004 	stceq	0, cr0, [r0], {4}
     1bc:	0001c122 	andeq	ip, r1, r2, lsr #2
     1c0:	02010200 	andeq	r0, r1, #0
     1c4:	00000133 	andeq	r0, r0, r3, lsr r1
     1c8:	0028e70b 	eoreq	lr, r8, fp, lsl #14
     1cc:	69240c00 	stmdbvs	r4!, {sl, fp}
     1d0:	0b000001 	bleq	1dc <.debug_info+0x1dc>
     1d4:	000000cc 	andeq	r0, r0, ip, asr #1
     1d8:	0174250c 	cmneq	r4, ip, lsl #10
current_thread_info():
/home/luojing/share/projects/linux_kernel_s5pv210/kernel/include/linux/rcupdate.h:223
     1dc:	d80b0000 	stmdale	fp, {}
     1e0:	0c00002b 	stceq	0, cr0, [r0], {43}	; 0x2b
     1e4:	00017f32 	andeq	r7, r1, r2, lsr pc
rcu_read_unlock_sched_notrace():
     1e8:	116f0b00 	cmnne	pc, r0, lsl #22
     1ec:	3b0c0000 	blcc	3001f4 <tz_ioctl+0x2fffa8>
     1f0:	00000137 	andeq	r0, r0, r7, lsr r1
test_bit():
/home/luojing/share/projects/linux_kernel_s5pv210/kernel/include/asm-generic/bitops/non-atomic.h:105
     1f4:	0025e00b 	eoreq	lr, r5, fp
rcu_read_unlock_sched_notrace():
/home/luojing/share/projects/linux_kernel_s5pv210/kernel/include/linux/rcupdate.h:223
     1f8:	42400c00 	submi	r0, r0, #0
     1fc:	0b000001 	bleq	208 <.debug_info+0x208>
     200:	0000032a 	andeq	r0, r0, sl, lsr #6
tz_open():
/home/luojing/share/projects/2014-01-16/trustzone/tz_driver/tz_driver.c:220
     204:	014d4a0c 	cmpeq	sp, ip, lsl #20
     208:	9c0b0000 	stcls	0, cr0, [fp], {0}
     20c:	0c000005 	stceq	0, cr0, [r0], {5}
/home/luojing/share/projects/2014-01-16/trustzone/tz_driver/tz_driver.c:221
     210:	0000ca6b 	andeq	ip, r0, fp, ror #20
     214:	119f0b00 	orrsne	r0, pc, r0, lsl #22
/home/luojing/share/projects/2014-01-16/trustzone/tz_driver/tz_driver.c:222
     218:	6f0c0000 	svcvs	0x000c0000
/home/luojing/share/projects/2014-01-16/trustzone/tz_driver/tz_driver.c:223
     21c:	00000094 	muleq	r0, r4, r0
     220:	0002f90b 	andeq	pc, r2, fp, lsl #18
/home/luojing/share/projects/2014-01-16/trustzone/tz_driver/tz_driver.c:224
     224:	b8700c00 	ldmdalt	r0!, {sl, fp}^
     228:	0b000000 	bleq	230 <.debug_info+0x230>
/home/luojing/share/projects/2014-01-16/trustzone/tz_driver/tz_driver.c:226
     22c:	00001e74 	andeq	r1, r0, r4, ror lr
     230:	00d5710c 	sbcseq	r7, r5, ip, lsl #2
     234:	300b0000 	andcc	r0, fp, r0
     238:	0c00000e 	stceq	0, cr0, [r0], {14}
     23c:	00010f87 	andeq	r0, r1, r7, lsl #31
     240:	1fc00b00 	svcne	0x00c00b00
     244:	880c0000 	stmdahi	ip, {}
     248:	0000010f 	andeq	r0, r0, pc, lsl #2
tz_ioctl():
/home/luojing/share/projects/2014-01-16/trustzone/tz_driver/tz_driver.c:228
     24c:	0023740b 	eoreq	r7, r3, fp, lsl #8
     250:	55b30c00 	ldrpl	r0, [r3, #3072]!	; 0xc00
     254:	0b000000 	bleq	25c <.debug_info+0x25c>
     258:	00001771 	andeq	r1, r0, r1, ror r7
     25c:	0055b40c 	subseq	fp, r5, ip, lsl #8
     260:	1b0b0000 	blne	2c0008 <tz_ioctl+0x2bfdbc>
     264:	0c00000c 	stceq	0, cr0, [r0], {12}
     268:	000104b9 	undefined instruction 0x000104b9
/home/luojing/share/projects/2014-01-16/trustzone/tz_driver/tz_driver.c:230
     26c:	247d0b00 	ldrbtcs	r0, [sp], #-2816	; 0xb00
/home/luojing/share/projects/2014-01-16/trustzone/tz_driver/tz_driver.c:228
     270:	bc0c0000 	stclt	0, cr0, [ip], {0}
/home/luojing/share/projects/2014-01-16/trustzone/tz_driver/tz_driver.c:232
     274:	00000262 	andeq	r0, r0, r2, ror #4
/home/luojing/share/projects/2014-01-16/trustzone/tz_driver/tz_driver.c:231
     278:	be0c040d 	cdplt	4, 0, cr0, cr12, cr13, {0}
/home/luojing/share/projects/2014-01-16/trustzone/tz_driver/tz_driver.c:235
     27c:	0000028f 	andeq	r0, r0, pc, lsl #5
     280:	00037f0e 	andeq	r7, r3, lr, lsl #30
/home/luojing/share/projects/2014-01-16/trustzone/tz_driver/tz_driver.c:236
     284:	8fbf0c00 	svchi	0x00bf0c00
/home/luojing/share/projects/2014-01-16/trustzone/tz_driver/tz_driver.c:235
     288:	02000002 	andeq	r0, r0, #2
/home/luojing/share/projects/2014-01-16/trustzone/tz_driver/tz_driver.c:240
     28c:	0f000023 	svceq	0x00000023
     290:	00000068 	andeq	r0, r0, r8, rrx
     294:	000c070b 	andeq	r0, ip, fp, lsl #14
     298:	78c00c00 	stmiavc	r0, {sl, fp}^
     29c:	10000002 	andne	r0, r0, r2
     2a0:	00002641 	andeq	r2, r0, r1, asr #12
     2a4:	c8130d08 	ldmdagt	r3, {r3, r8, sl, fp}
     2a8:	0e000002 	cdpeq	0, 0, cr0, cr0, cr2, {0}
     2ac:	00000372 	andeq	r0, r0, r2, ror r3
/home/luojing/share/projects/2014-01-16/trustzone/tz_driver/tz_driver.c:257
     2b0:	02c8140d 	sbceq	r1, r8, #218103808	; 0xd000000
/home/luojing/share/projects/2014-01-16/trustzone/tz_driver/tz_driver.c:240
     2b4:	23020000 	movwcs	r0, #8192	; 0x2000
     2b8:	2fc30e00 	svccs	0x00c30e00
copy_from_user():
/home/luojing/share/projects/linux_kernel_s5pv210/kernel/arch/arm/include/asm/uaccess.h:406
     2bc:	140d0000 	strne	r0, [sp]
     2c0:	000002c8 	andeq	r0, r0, r8, asr #5
tz_ioctl():
/home/luojing/share/projects/2014-01-16/trustzone/tz_driver/tz_driver.c:242
     2c4:	00042302 	andeq	r2, r4, r2, lsl #6
open_session():
/home/luojing/share/projects/linux_kernel_s5pv210/kernel/arch/arm/include/asm/uaccess.h:406
     2c8:	029f0406 	addseq	r0, pc, #100663296	; 0x6000000
tz_ioctl():
/home/luojing/share/projects/2014-01-16/trustzone/tz_driver/tz_driver.c:242
     2cc:	22110000 	andscs	r0, r1, #0
open_session():
/home/luojing/share/projects/2014-01-16/trustzone/tz_driver/tz_driver.c:90
     2d0:	04000008 	streq	r0, [r0], #-8
     2d4:	eb021c0d 	bl	87310 <tz_ioctl+0x870c4>
     2d8:	12000002 	andne	r0, r0, #2
     2dc:	00001331 	andeq	r1, r0, r1, lsr r3
copy_from_user():
/home/luojing/share/projects/linux_kernel_s5pv210/kernel/arch/arm/include/asm/uaccess.h:406
     2e0:	17021d0d 	strne	r1, [r2, -sp, lsl #26]
     2e4:	02000003 	andeq	r0, r0, #3
     2e8:	11000023 	tstne	r0, r3, lsr #32
     2ec:	0000039f 	muleq	r0, pc, r3
     2f0:	021d0d08 	andseq	r0, sp, #512	; 0x200
     2f4:	00000317 	andeq	r0, r0, r7, lsl r3
     2f8:	00037212 	andeq	r7, r3, r2, lsl r2
/home/luojing/share/projects/linux_kernel_s5pv210/kernel/arch/arm/include/asm/uaccess.h:407
     2fc:	02210d00 	eoreq	r0, r1, #0
     300:	00000317 	andeq	r0, r0, r7, lsl r3
     304:	12002302 	andne	r2, r0, #134217728	; 0x8000000
open_session():
/home/luojing/share/projects/2014-01-16/trustzone/tz_driver/tz_driver.c:92
     308:	00001ffd 	strdeq	r1, [r0], -sp
     30c:	1d02210d 	stfnes	f2, [r2, #-52]	; 0xffffffcc
     310:	02000003 	andeq	r0, r0, #3
copy_from_user():
/home/luojing/share/projects/linux_kernel_s5pv210/kernel/arch/arm/include/asm/uaccess.h:409
     314:	06000423 	streq	r0, [r0], -r3, lsr #8
     318:	0002eb04 	andeq	lr, r2, r4, lsl #22
open_session():
/home/luojing/share/projects/2014-01-16/trustzone/tz_driver/tz_driver.c:96
     31c:	17040600 	strne	r0, [r4, -r0, lsl #12]
     320:	13000003 	movwne	r0, #3
     324:	00290304 	eoreq	r0, r9, r4, lsl #6
/home/luojing/share/projects/2014-01-16/trustzone/tz_driver/tz_driver.c:99
     328:	03350000 	teqeq	r5, #0
     32c:	40040000 	andmi	r0, r4, r0
     330:	02000000 	andeq	r0, r0, #0
     334:	004e0300 	subeq	r0, lr, r0, lsl #6
copy_from_user():
/home/luojing/share/projects/linux_kernel_s5pv210/kernel/arch/arm/include/asm/uaccess.h:406
     338:	03450000 	movteq	r0, #20480	; 0x5000
open_session():
/home/luojing/share/projects/2014-01-16/trustzone/tz_driver/tz_driver.c:101
     33c:	40040000 	andmi	r0, r4, r0
     340:	07000000 	streq	r0, [r0, -r0]
copy_from_user():
/home/luojing/share/projects/linux_kernel_s5pv210/kernel/arch/arm/include/asm/uaccess.h:406
     344:	0e100d00 	cdpeq	13, 1, cr0, cr0, cr0, {0}
     348:	00038615 	andeq	r8, r3, r5, lsl r6
     34c:	24fa0e00 	ldrbtcs	r0, [sl], #3584	; 0xe00
     350:	160e0000 	strne	r0, [lr], -r0
     354:	00000029 	andeq	r0, r0, r9, lsr #32
/home/luojing/share/projects/linux_kernel_s5pv210/kernel/arch/arm/include/asm/uaccess.h:407
     358:	0e002302 	cdpeq	3, 0, cr2, cr0, cr2, {0}
     35c:	000024ff 	strdeq	r2, [r0], -pc
open_session():
/home/luojing/share/projects/2014-01-16/trustzone/tz_driver/tz_driver.c:100
     360:	0029160e 	eoreq	r1, r9, lr, lsl #12
     364:	23020000 	movwcs	r0, #8192	; 0x2000
     368:	25040e04 	strcs	r0, [r4, #-3588]	; 0xe04
copy_from_user():
/home/luojing/share/projects/linux_kernel_s5pv210/kernel/arch/arm/include/asm/uaccess.h:409
     36c:	160e0000 	strne	r0, [lr], -r0
     370:	00000029 	andeq	r0, r0, r9, lsr #32
open_session():
/home/luojing/share/projects/2014-01-16/trustzone/tz_driver/tz_driver.c:104
     374:	0e082302 	cdpeq	3, 0, cr2, cr8, cr2, {0}
     378:	00002509 	andeq	r2, r0, r9, lsl #10
     37c:	0029160e 	eoreq	r1, r9, lr, lsl #12
     380:	23020000 	movwcs	r0, #8192	; 0x2000
     384:	200d000c 	andcs	r0, sp, ip
     388:	03e3190e 	mvneq	r1, #229376	; 0x38000
/home/luojing/share/projects/2014-01-16/trustzone/tz_driver/tz_driver.c:107
     38c:	240e0000 	strcs	r0, [lr]
     390:	0e000003 	cdpeq	0, 0, cr0, cr0, cr3, {0}
     394:	0003e31a 	andeq	lr, r3, sl, lsl r3
     398:	00230200 	eoreq	r0, r3, r0, lsl #4
/home/luojing/share/projects/2014-01-16/trustzone/tz_driver/tz_driver.c:111
     39c:	6c617614 	stclvs	6, cr7, [r1], #-80	; 0xffffffb0
     3a0:	041b0e00 	ldreq	r0, [fp], #-3584	; 0xe00
     3a4:	02000001 	andeq	r0, r0, #1
     3a8:	430e0423 	movwmi	r0, #58403	; 0xe423
/home/luojing/share/projects/2014-01-16/trustzone/tz_driver/tz_driver.c:112
     3ac:	0e000030 	mcreq	0, 0, r0, cr0, cr0, {1}
     3b0:	0001041c 	andeq	r0, r1, ip, lsl r4
     3b4:	08230200 	stmdaeq	r3!, {r9}
/home/luojing/share/projects/2014-01-16/trustzone/tz_driver/tz_driver.c:117
     3b8:	002f270e 	eoreq	r2, pc, lr, lsl #14
     3bc:	041d0e00 	ldreq	r0, [sp], #-3584	; 0xe00
     3c0:	02000001 	andeq	r0, r0, #1
     3c4:	030e0c23 	movweq	r0, #60451	; 0xec23
     3c8:	0e00001d 	mcreq	0, 0, r0, cr0, cr13, {0}
     3cc:	00010f1e 	andeq	r0, r1, lr, lsl pc
/home/luojing/share/projects/2014-01-16/trustzone/tz_driver/tz_driver.c:120
     3d0:	10230200 	eorne	r0, r3, r0, lsl #4
     3d4:	0028d00e 	eoreq	sp, r8, lr
     3d8:	e31f0e00 	tst	pc, #0
     3dc:	02000003 	andeq	r0, r0, #3
kmem_cache_alloc_notrace():
/home/luojing/share/projects/linux_kernel_s5pv210/kernel/include/linux/slub_def.h:226
     3e0:	06001823 	streq	r1, [r0], -r3, lsr #16
     3e4:	00010404 	andeq	r0, r1, r4, lsl #8
     3e8:	0e100d00 	cdpeq	13, 1, cr0, cr0, cr0, {0}
trace_kmalloc():
/home/luojing/share/projects/linux_kernel_s5pv210/kernel/include/trace/events/kmem.h:47
     3ec:	00041c22 	andeq	r1, r4, r2, lsr #24
kmalloc():
/home/luojing/share/projects/linux_kernel_s5pv210/kernel/include/linux/slub_def.h:257
     3f0:	07e60e00 	strbeq	r0, [r6, r0, lsl #28]!
     3f4:	230e0000 	movwcs	r0, #57344	; 0xe000
trace_kmalloc():
/home/luojing/share/projects/linux_kernel_s5pv210/kernel/include/trace/events/kmem.h:47
     3f8:	000001ab 	andeq	r0, r0, fp, lsr #3
kmalloc():
/home/luojing/share/projects/linux_kernel_s5pv210/kernel/include/linux/slub_def.h:257
     3fc:	0e002302 	cdpeq	3, 0, cr2, cr0, cr2, {0}
trace_kmalloc():
/home/luojing/share/projects/linux_kernel_s5pv210/kernel/include/trace/events/kmem.h:47
     400:	0000074e 	andeq	r0, r0, lr, asr #14
kmem_cache_alloc_notrace():
/home/luojing/share/projects/linux_kernel_s5pv210/kernel/include/linux/slub_def.h:226
     404:	0445240e 	strbeq	r2, [r5], #-1038	; 0x40e
trace_kmalloc():
/home/luojing/share/projects/linux_kernel_s5pv210/kernel/include/trace/events/kmem.h:47
     408:	23020000 	movwcs	r0, #8192	; 0x2000
rcu_read_lock_sched_notrace():
/home/luojing/share/projects/linux_kernel_s5pv210/kernel/include/linux/rcupdate.h:203
     40c:	18530e04 	ldmdane	r3, {r2, r9, sl, fp}^
     410:	280e0000 	stmdacs	lr, {}
     414:	0000010f 	andeq	r0, r0, pc, lsl #2
trace_kmalloc():
/home/luojing/share/projects/linux_kernel_s5pv210/kernel/include/trace/events/kmem.h:47
     418:	00082302 	andeq	r2, r8, r2, lsl #6
     41c:	0015bf10 	andseq	fp, r5, r0, lsl pc
     420:	0c0e0800 	stceq	8, cr0, [lr], {0}
     424:	00000445 	andeq	r0, r0, r5, asr #8
     428:	0028650e 	eoreq	r6, r8, lr, lsl #10
     42c:	4d0f0f00 	stcmi	15, cr0, [pc]
     430:	02000001 	andeq	r0, r0, #1
     434:	040e0023 	streq	r0, [lr], #-35	; 0x23
     438:	0f00002c 	svceq	0x0000002c
     43c:	00013010 	andeq	r3, r1, r0, lsl r0
     440:	04230200 	strteq	r0, [r3], #-512	; 0x200
     444:	1c040600 	stcne	6, cr0, [r4], {0}
     448:	0d000004 	stceq	0, cr0, [r0, #-16]
     44c:	9a2b0e14 	bls	ac3ca4 <tz_ioctl+0xac3a58>
current_thread_info():
/home/luojing/share/projects/linux_kernel_s5pv210/kernel/include/linux/rcupdate.h:223
     450:	0e000004 	cdpeq	0, 0, cr0, cr0, cr4, {0}
     454:	00001f36 	andeq	r1, r0, r6, lsr pc
     458:	04a02c0e 	strteq	r2, [r0], #3086	; 0xc0e
rcu_read_unlock_sched_notrace():
     45c:	23020000 	movwcs	r0, #8192	; 0x2000
     460:	28bc0e00 	ldmcs	ip!, {r9, sl, fp}
     464:	2d0e0000 	stccs	0, cr0, [lr]
test_bit():
/home/luojing/share/projects/linux_kernel_s5pv210/kernel/include/asm-generic/bitops/non-atomic.h:105
     468:	00000068 	andeq	r0, r0, r8, rrx
rcu_read_unlock_sched_notrace():
/home/luojing/share/projects/linux_kernel_s5pv210/kernel/include/linux/rcupdate.h:223
     46c:	0e042302 	cdpeq	3, 0, cr2, cr4, cr2, {0}
     470:	0000220e 	andeq	r2, r0, lr, lsl #4
     474:	00682e0e 	rsbeq	r2, r8, lr, lsl #28
copy_from_user():
/home/luojing/share/projects/linux_kernel_s5pv210/kernel/arch/arm/include/asm/uaccess.h:406
     478:	23020000 	movwcs	r0, #8192	; 0x2000
     47c:	28650e08 	stmdacs	r5!, {r3, r9, sl, fp}^
     480:	2f0e0000 	svccs	0x000e0000
open_session():
/home/luojing/share/projects/2014-01-16/trustzone/tz_driver/tz_driver.c:122
     484:	00000029 	andeq	r0, r0, r9, lsr #32
     488:	0e0c2302 	cdpeq	3, 0, cr2, cr12, cr2, {0}
     48c:	00002c04 	andeq	r2, r0, r4, lsl #24
/home/luojing/share/projects/2014-01-16/trustzone/tz_driver/tz_driver.c:127
     490:	0029300e 	eoreq	r3, r9, lr
copy_from_user():
/home/luojing/share/projects/linux_kernel_s5pv210/kernel/arch/arm/include/asm/uaccess.h:406
     494:	23020000 	movwcs	r0, #8192	; 0x2000
open_session():
/home/luojing/share/projects/2014-01-16/trustzone/tz_driver/tz_driver.c:127
     498:	5a150010 	bpl	540048 <tz_ioctl+0x53fdfc>
copy_from_user():
/home/luojing/share/projects/linux_kernel_s5pv210/kernel/arch/arm/include/asm/uaccess.h:406
     49c:	0100002a 	tsteq	r0, sl, lsr #32
     4a0:	049a0406 	ldreq	r0, [sl], #1030	; 0x406
     4a4:	20160000 	andscs	r0, r6, r0
     4a8:	04d5140e 	ldrbeq	r1, [r5], #1038	; 0x40e
     4ac:	45170000 	ldrmi	r0, [r7]
/home/luojing/share/projects/linux_kernel_s5pv210/kernel/arch/arm/include/asm/uaccess.h:407
     4b0:	18000003 	stmdane	r0, {r0, r1}
     4b4:	00000728 	andeq	r0, r0, r8, lsr #14
open_session():
/home/luojing/share/projects/2014-01-16/trustzone/tz_driver/tz_driver.c:127
     4b8:	0386200e 	orreq	r2, r6, #14
     4bc:	51180000 	tstpl	r8, r0
     4c0:	0e00001b 	mcreq	0, 0, r0, cr0, cr11, {0}
copy_from_user():
/home/luojing/share/projects/linux_kernel_s5pv210/kernel/arch/arm/include/asm/uaccess.h:409
     4c4:	0003e929 	andeq	lr, r3, r9, lsr #18
     4c8:	26f41800 	ldrbtcs	r1, [r4], r0, lsl #16
open_session():
/home/luojing/share/projects/2014-01-16/trustzone/tz_driver/tz_driver.c:130
     4cc:	310e0000 	tstcc	lr, r0
     4d0:	0000044b 	andeq	r0, r0, fp, asr #8
     4d4:	2dde1000 	ldclcs	0, cr1, [lr]
/home/luojing/share/projects/2014-01-16/trustzone/tz_driver/tz_driver.c:131
     4d8:	0e280000 	cdpeq	0, 2, cr0, cr8, cr0, {0}
/home/luojing/share/projects/2014-01-16/trustzone/tz_driver/tz_driver.c:130
     4dc:	0004f712 	andeq	pc, r4, r2, lsl r7
/home/luojing/share/projects/2014-01-16/trustzone/tz_driver/tz_driver.c:131
     4e0:	6e661400 	cdpvs	4, 6, cr1, cr6, cr0, {0}
     4e4:	0d130e00 	ldceq	14, cr0, [r3]
     4e8:	02000005 	andeq	r0, r0, #5
kmalloc():
/home/luojing/share/projects/linux_kernel_s5pv210/kernel/include/linux/slub_def.h:262
     4ec:	a6190023 	ldrge	r0, [r9], -r3, lsr #32
     4f0:	02000004 	andeq	r0, r0, #4
     4f4:	1a000823 	bne	2588 <.debug_info+0x2588>
open_session():
/home/luojing/share/projects/2014-01-16/trustzone/tz_driver/tz_driver.c:138
     4f8:	00013001 	andeq	r3, r1, r1
/home/luojing/share/projects/2014-01-16/trustzone/tz_driver/tz_driver.c:134
     4fc:	00050700 	andeq	r0, r5, r0, lsl #14
/home/luojing/share/projects/2014-01-16/trustzone/tz_driver/tz_driver.c:137
     500:	05071b00 	streq	r1, [r7, #-2816]	; 0xb00
copy_from_user():
/home/luojing/share/projects/linux_kernel_s5pv210/kernel/arch/arm/include/asm/uaccess.h:406
     504:	06000000 	streq	r0, [r0], -r0
     508:	0004d504 	andeq	sp, r4, r4, lsl #10
     50c:	f7040600 	undefined instruction 0xf7040600
     510:	1c000004 	stcne	0, cr0, [r0], {4}
     514:	0000171c 	andeq	r1, r0, ip, lsl r7
     518:	1a100110 	bne	400960 <tz_ioctl+0x400714>
/home/luojing/share/projects/linux_kernel_s5pv210/kernel/arch/arm/include/asm/uaccess.h:407
     51c:	0000056b 	andeq	r0, r0, fp, ror #10
open_session():
/home/luojing/share/projects/2014-01-16/trustzone/tz_driver/tz_driver.c:136
     520:	000d210e 	andeq	r2, sp, lr, lsl #2
     524:	6b1c1000 	blvs	70452c <tz_ioctl+0x7042e0>
     528:	02000005 	andeq	r0, r0, #5
copy_from_user():
/home/luojing/share/projects/linux_kernel_s5pv210/kernel/arch/arm/include/asm/uaccess.h:409
     52c:	f40e0023 	vst4.8	{d0-d3}, [lr, :128], r3
     530:	1000001b 	andne	r0, r0, fp, lsl r0
     534:	0000d523 	andeq	sp, r0, r3, lsr #10
     538:	80230300 	eorhi	r0, r3, r0, lsl #6
open_session():
/home/luojing/share/projects/2014-01-16/trustzone/tz_driver/tz_driver.c:139
     53c:	1cb50e02 	ldcne	14, cr0, [r5], #8
     540:	24100000 	ldrcs	r0, [r0]
     544:	000000d5 	ldrdeq	r0, [r0], -r5
/home/luojing/share/projects/2014-01-16/trustzone/tz_driver/tz_driver.c:144
     548:	02842303 	addeq	r2, r4, #201326592	; 0xc000000
     54c:	002fbc0e 	eoreq	fp, pc, lr, lsl #24
     550:	d5281000 	strle	r1, [r8]!
     554:	03000000 	movweq	r0, #0
/home/luojing/share/projects/2014-01-16/trustzone/tz_driver/tz_driver.c:146
     558:	0e028823 	cdpeq	8, 0, cr8, cr2, cr3, {1}
/home/luojing/share/projects/2014-01-16/trustzone/tz_driver/tz_driver.c:147
     55c:	00000377 	andeq	r0, r0, r7, ror r3
     560:	00d52910 	sbcseq	r2, r5, r0, lsl r9
/home/luojing/share/projects/2014-01-16/trustzone/tz_driver/tz_driver.c:150
     564:	23030000 	movwcs	r0, #12288	; 0x3000
/home/luojing/share/projects/2014-01-16/trustzone/tz_driver/tz_driver.c:153
     568:	0300028c 	movweq	r0, #652	; 0x28c
/home/luojing/share/projects/2014-01-16/trustzone/tz_driver/tz_driver.c:158
     56c:	000000e7 	andeq	r0, r0, r7, ror #1
/home/luojing/share/projects/2014-01-16/trustzone/tz_driver/tz_driver.c:153
     570:	0000057b 	andeq	r0, r0, fp, ror r5
/home/luojing/share/projects/2014-01-16/trustzone/tz_driver/tz_driver.c:154
     574:	00004004 	andeq	r4, r0, r4
/home/luojing/share/projects/2014-01-16/trustzone/tz_driver/tz_driver.c:150
     578:	1d001f00 	stcne	15, cr1, [r0]
/home/luojing/share/projects/2014-01-16/trustzone/tz_driver/tz_driver.c:154
     57c:	00002af1 	strdeq	r2, [r0], -r1
/home/luojing/share/projects/2014-01-16/trustzone/tz_driver/tz_driver.c:158
     580:	30100110 	andscc	r0, r0, r0, lsl r1
     584:	00000594 	muleq	r0, r4, r5
     588:	00211018 	eoreq	r1, r1, r8, lsl r0
CallTZFunction():
/home/luojing/share/projects/2014-01-16/trustzone/tz_driver/tz_driver.c:56
     58c:	13311000 	teqne	r1, #0
/home/luojing/share/projects/2014-01-16/trustzone/tz_driver/tz_driver.c:57
     590:	00000005 	andeq	r0, r0, r5
/home/luojing/share/projects/2014-01-16/trustzone/tz_driver/tz_driver.c:56
     594:	0014cb10 	andseq	ip, r4, r0, lsl fp
/home/luojing/share/projects/2014-01-16/trustzone/tz_driver/tz_driver.c:58
     598:	39108c00 	ldmdbcc	r0, {sl, fp, pc}
/home/luojing/share/projects/2014-01-16/trustzone/tz_driver/tz_driver.c:59
     59c:	000005af 	andeq	r0, r0, pc, lsr #11
/home/luojing/share/projects/2014-01-16/trustzone/tz_driver/tz_driver.c:60
     5a0:	0017c90e 	andseq	ip, r7, lr, lsl #18
/home/luojing/share/projects/2014-01-16/trustzone/tz_driver/tz_driver.c:72
     5a4:	af3a1000 	svcge	0x003a1000
/home/luojing/share/projects/2014-01-16/trustzone/tz_driver/tz_driver.c:73
     5a8:	02000005 	andeq	r0, r0, #5
     5ac:	03000023 	movweq	r0, #35	; 0x23
     5b0:	00000055 	andeq	r0, r0, r5, asr r0
     5b4:	000005bf 	undefined instruction 0x000005bf
/home/luojing/share/projects/2014-01-16/trustzone/tz_driver/tz_driver.c:75
     5b8:	00004004 	andeq	r4, r0, r4
open_session():
/home/luojing/share/projects/2014-01-16/trustzone/tz_driver/tz_driver.c:162
     5bc:	10002200 	andne	r2, r0, r0, lsl #4
     5c0:	00002b10 	andeq	r2, r0, r0, lsl fp
     5c4:	da3f108c 	ble	fc47fc <tz_ioctl+0xfc45b0>
     5c8:	0e000005 	cdpeq	0, 0, cr0, cr0, cr5, {0}
/home/luojing/share/projects/2014-01-16/trustzone/tz_driver/tz_driver.c:163
     5cc:	000017c9 	andeq	r1, r0, r9, asr #15
     5d0:	05af4010 	streq	r4, [pc, #16]!	; 5e8 <.debug_info+0x5e8>
copy_to_user():
/home/luojing/share/projects/linux_kernel_s5pv210/kernel/arch/arm/include/asm/uaccess.h:415
     5d4:	23020000 	movwcs	r0, #8192	; 0x2000
     5d8:	611e0000 	tstvs	lr, r0
     5dc:	8c00002a 	stchi	0, cr0, [r0], {42}	; 0x2a
open_session():
/home/luojing/share/projects/2014-01-16/trustzone/tz_driver/tz_driver.c:170
     5e0:	05fd4910 	ldrbeq	r4, [sp, #2320]!	; 0x910
     5e4:	10180000 	andsne	r0, r8, r0
     5e8:	10000021 	andne	r0, r0, r1, lsr #32
     5ec:	0005944a 	andeq	r9, r5, sl, asr #8
copy_to_user():
/home/luojing/share/projects/linux_kernel_s5pv210/kernel/arch/arm/include/asm/uaccess.h:415
     5f0:	1c6f1800 	stclne	8, cr1, [pc]
open_session():
/home/luojing/share/projects/2014-01-16/trustzone/tz_driver/tz_driver.c:171
     5f4:	4b100000 	blmi	4005fc <tz_ioctl+0x4003b0>
copy_to_user():
/home/luojing/share/projects/linux_kernel_s5pv210/kernel/arch/arm/include/asm/uaccess.h:415
     5f8:	000005bf 	undefined instruction 0x000005bf
     5fc:	0e391000 	cdpeq	0, 3, cr1, cr9, cr0, {0}
     600:	10b80000 	adcsne	r0, r8, r0
     604:	00063653 	andeq	r3, r6, r3, asr r6
     608:	2bc60e00 	blcs	ff183808 <tz_ioctl+0xff1835bc>
/home/luojing/share/projects/linux_kernel_s5pv210/kernel/arch/arm/include/asm/uaccess.h:416
     60c:	54100000 	ldrpl	r0, [r0]
     610:	00000636 	andeq	r0, r0, r6, lsr r6
     614:	0e002302 	cdpeq	3, 0, cr2, cr0, cr2, {0}
open_session():
/home/luojing/share/projects/2014-01-16/trustzone/tz_driver/tz_driver.c:171
     618:	0000299f 	muleq	r0, pc, r9
     61c:	064c5510 	undefined instruction 0x064c5510
/home/luojing/share/projects/2014-01-16/trustzone/tz_driver/tz_driver.c:175
     620:	23030000 	movwcs	r0, #12288	; 0x3000
     624:	160e0180 	strne	r0, [lr], -r0, lsl #3
     628:	10000013 	andne	r0, r0, r3, lsl r0
/home/luojing/share/projects/2014-01-16/trustzone/tz_driver/tz_driver.c:179
     62c:	00066256 	andeq	r6, r6, r6, asr r2
     630:	b0230300 	eorlt	r0, r3, r0, lsl #6
     634:	55030001 	strpl	r0, [r3, #-1]
     638:	4c000000 	stcmi	0, cr0, [r0], {0}
copy_to_user():
/home/luojing/share/projects/linux_kernel_s5pv210/kernel/arch/arm/include/asm/uaccess.h:415
     63c:	04000006 	streq	r0, [r0], #-6
open_session():
/home/luojing/share/projects/2014-01-16/trustzone/tz_driver/tz_driver.c:180
     640:	00000040 	andeq	r0, r0, r0, asr #32
copy_to_user():
/home/luojing/share/projects/linux_kernel_s5pv210/kernel/arch/arm/include/asm/uaccess.h:415
     644:	0040040f 	subeq	r0, r0, pc, lsl #8
     648:	00010000 	andeq	r0, r1, r0
     64c:	00005503 	andeq	r5, r0, r3, lsl #10
     650:	00066200 	andeq	r6, r6, r0, lsl #4
     654:	00400400 	subeq	r0, r0, r0, lsl #8
/home/luojing/share/projects/linux_kernel_s5pv210/kernel/arch/arm/include/asm/uaccess.h:416
     658:	04030000 	streq	r0, [r3]
     65c:	00000040 	andeq	r0, r0, r0, asr #32
     660:	55030002 	strpl	r0, [r3, #-2]
open_session():
/home/luojing/share/projects/2014-01-16/trustzone/tz_driver/tz_driver.c:180
     664:	72000000 	andvc	r0, r0, #0
     668:	04000006 	streq	r0, [r0], #-6
/home/luojing/share/projects/2014-01-16/trustzone/tz_driver/tz_driver.c:184
     66c:	00000040 	andeq	r0, r0, r0, asr #32
     670:	890b0001 	stmdbhi	fp, {r0}
     674:	04000001 	streq	r0, [r0], #-1
     678:	0000291e 	andeq	r2, r0, lr, lsl r9
     67c:	084a1000 	stmdaeq	sl, {ip}^
/home/luojing/share/projects/2014-01-16/trustzone/tz_driver/tz_driver.c:189
     680:	04300000 	ldrteq	r0, [r0]
     684:	00071a20 	andeq	r1, r7, r0, lsr #20
/home/luojing/share/projects/2014-01-16/trustzone/tz_driver/tz_driver.c:191
     688:	34721400 	ldrbtcc	r1, [r2], #-1024	; 0x400
     68c:	d5210400 	strle	r0, [r1, #-1024]!	; 0x400
/home/luojing/share/projects/2014-01-16/trustzone/tz_driver/tz_driver.c:193
     690:	02000000 	andeq	r0, r0, #0
     694:	72140023 	andsvc	r0, r4, #35	; 0x23
     698:	22040035 	andcs	r0, r4, #53	; 0x35
     69c:	000000d5 	ldrdeq	r0, [r0], -r5
     6a0:	14042302 	strne	r2, [r4], #-770	; 0x302
tz_ioctl():
/home/luojing/share/projects/2014-01-16/trustzone/tz_driver/tz_driver.c:247
     6a4:	04003672 	streq	r3, [r0], #-1650	; 0x672
/home/luojing/share/projects/2014-01-16/trustzone/tz_driver/tz_driver.c:248
     6a8:	0000d523 	andeq	sp, r0, r3, lsr #10
/home/luojing/share/projects/2014-01-16/trustzone/tz_driver/tz_driver.c:247
     6ac:	08230200 	stmdaeq	r3!, {r9}
/home/luojing/share/projects/2014-01-16/trustzone/tz_driver/tz_driver.c:248
     6b0:	00377214 	eorseq	r7, r7, r4, lsl r2
     6b4:	00d52404 	sbcseq	r2, r5, r4, lsl #8
/home/luojing/share/projects/2014-01-16/trustzone/tz_driver/tz_driver.c:252
     6b8:	23020000 	movwcs	r0, #8192	; 0x2000
/home/luojing/share/projects/2014-01-16/trustzone/tz_driver/tz_driver.c:253
     6bc:	3872140c 	ldmdacc	r2!, {r2, r3, sl, ip}^
/home/luojing/share/projects/2014-01-16/trustzone/tz_driver/tz_driver.c:252
     6c0:	d5250400 	strle	r0, [r5, #-1024]!	; 0x400
/home/luojing/share/projects/2014-01-16/trustzone/tz_driver/tz_driver.c:253
     6c4:	02000000 	andeq	r0, r0, #0
     6c8:	72141023 	andsvc	r1, r4, #35	; 0x23
/home/luojing/share/projects/2014-01-16/trustzone/tz_driver/tz_driver.c:257
     6cc:	26040039 	undefined instruction 0x26040039
     6d0:	000000d5 	ldrdeq	r0, [r0], -r5
/home/luojing/share/projects/2014-01-16/trustzone/tz_driver/tz_driver.c:262
     6d4:	14142302 	ldrne	r2, [r4], #-770	; 0x302
     6d8:	04006c73 	streq	r6, [r0], #-3187	; 0xc73
     6dc:	0000d527 	andeq	sp, r0, r7, lsr #10
     6e0:	18230200 	stmdane	r3!, {r9}
     6e4:	00706614 	rsbseq	r6, r0, r4, lsl r6
     6e8:	00d52804 	sbcseq	r2, r5, r4, lsl #16
     6ec:	23020000 	movwcs	r0, #8192	; 0x2000
     6f0:	7073141c 	rsbsvc	r1, r3, ip, lsl r4
     6f4:	d5290400 	strle	r0, [r9, #-1024]!	; 0x400
     6f8:	02000000 	andeq	r0, r0, #0
     6fc:	70142023 	andsvc	r2, r4, r3, lsr #32
     700:	2a040063 	bcs	100894 <tz_ioctl+0x100648>
     704:	000000d5 	ldrdeq	r0, [r0], -r5
     708:	0e242302 	cdpeq	3, 2, cr2, cr4, cr2, {0}
     70c:	00001704 	andeq	r1, r0, r4, lsl #14
     710:	071a2b04 	ldreq	r2, [sl, -r4, lsl #22]
     714:	23020000 	movwcs	r0, #8192	; 0x2000
     718:	d5030028 	strle	r0, [r3, #-40]	; 0x28
     71c:	2a000000 	bcs	724 <.debug_info+0x724>
     720:	04000007 	streq	r0, [r0], #-7
     724:	00000040 	andeq	r0, r0, r0, asr #32
tz_exit():
/home/luojing/share/projects/2014-01-16/trustzone/tz_driver/tz_driver.c:326
     728:	0c1c0001 	ldceq	0, cr0, [ip], {1}
     72c:	e8000003 	stmda	r0, {r0, r1}
     730:	0d411102 	stfeqe	f1, [r1, #-8]
     734:	0e000008 	cdpeq	0, 0, cr0, cr0, cr8, {0}
     738:	00003043 	andeq	r3, r0, r3, asr #32
/home/luojing/share/projects/2014-01-16/trustzone/tz_driver/tz_driver.c:328
     73c:	00293304 	eoreq	r3, r9, r4, lsl #6
/home/luojing/share/projects/2014-01-16/trustzone/tz_driver/tz_driver.c:327
     740:	23020000 	movwcs	r0, #8192	; 0x2000
     744:	152b0e00 	strne	r0, [fp, #-3584]!	; 0xe00
/home/luojing/share/projects/2014-01-16/trustzone/tz_driver/tz_driver.c:331
     748:	34040000 	strcc	r0, [r4]
/home/luojing/share/projects/2014-01-16/trustzone/tz_driver/tz_driver.c:328
     74c:	00000068 	andeq	r0, r0, r8, rrx
     750:	0e042302 	cdpeq	3, 0, cr2, cr4, cr2, {0}
/home/luojing/share/projects/2014-01-16/trustzone/tz_driver/tz_driver.c:329
     754:	000021b7 	undefined instruction 0x000021b7
     758:	06723504 	ldrbteq	r3, [r2], -r4, lsl #10
/home/luojing/share/projects/2014-01-16/trustzone/tz_driver/tz_driver.c:330
     75c:	23020000 	movwcs	r0, #8192	; 0x2000
     760:	2ccc0e08 	stclcs	14, cr0, [ip], {8}
     764:	36040000 	strcc	r0, [r4], -r0
/home/luojing/share/projects/2014-01-16/trustzone/tz_driver/tz_driver.c:331
     768:	00000813 	andeq	r0, r0, r3, lsl r8
     76c:	0e0c2302 	cdpeq	3, 0, cr2, cr12, cr2, {0}
/home/luojing/share/projects/2014-01-16/trustzone/tz_driver/tz_driver.c:332
     770:	0000193f 	andeq	r1, r0, pc, lsr r9
     774:	081f3704 	ldmdaeq	pc, {r2, r8, r9, sl, ip, sp}
/home/luojing/share/projects/2014-01-16/trustzone/tz_driver/tz_driver.c:333
     778:	23020000 	movwcs	r0, #8192	; 0x2000
     77c:	70631410 	rsbvc	r1, r3, r0, lsl r4
/home/luojing/share/projects/2014-01-16/trustzone/tz_driver/tz_driver.c:334
     780:	38040075 	stmdacc	r4, {r0, r2, r4, r5, r6}
     784:	000000d5 	ldrdeq	r0, [r0], -r5
     788:	0e142302 	cdpeq	3, 1, cr2, cr4, cr2, {0}
/home/luojing/share/projects/2014-01-16/trustzone/tz_driver/tz_driver.c:335
     78c:	00002d12 	andeq	r2, r0, r2, lsl sp
     790:	00d53904 	sbcseq	r3, r5, r4, lsl #18
/home/luojing/share/projects/2014-01-16/trustzone/tz_driver/tz_driver.c:336
     794:	23020000 	movwcs	r0, #8192	; 0x2000
     798:	0cf40e18 	ldcleq	14, cr0, [r4], #96	; 0x60
     79c:	3a040000 	bcc	1007a4 <tz_ioctl+0x100558>
     7a0:	0000067d 	andeq	r0, r0, sp, ror r6
     7a4:	0e1c2302 	cdpeq	3, 1, cr2, cr12, cr2, {0}
     7a8:	00001496 	muleq	r0, r6, r4
     7ac:	00d53b04 	sbcseq	r3, r5, r4, lsl #22
     7b0:	23020000 	movwcs	r0, #8192	; 0x2000
     7b4:	27d70e4c 	ldrbcs	r0, [r7, ip, asr #28]
     7b8:	3c040000 	stccc	0, cr0, [r4], {0}
     7bc:	00000825 	andeq	r0, r0, r5, lsr #16
     7c0:	0e502302 	cdpeq	3, 5, cr2, cr0, cr2, {0}
     7c4:	00002c87 	andeq	r2, r0, r7, lsl #25
     7c8:	00293d04 	eoreq	r3, r9, r4, lsl #26
     7cc:	23020000 	movwcs	r0, #8192	; 0x2000
     7d0:	22b90e60 	adcscs	r0, r9, #1536	; 0x600
     7d4:	3e040000 	cdpcc	0, 0, cr0, cr4, cr0, {0}
     7d8:	000005fd 	strdeq	r0, [r0], -sp
     7dc:	0e642302 	cdpeq	3, 6, cr2, cr4, cr2, {0}
     7e0:	00002719 	andeq	r2, r0, r9, lsl r7
     7e4:	05da3f04 	ldrbeq	r3, [sl, #3844]	; 0xf04
     7e8:	23030000 	movwcs	r0, #12288	; 0x3000
     7ec:	8d0e02a0 	sfmhi	f0, 4, [lr, #-640]	; (stchi 2, cr0, [lr, #-640])	; 0xfffffd80
     7f0:	04000024 	streq	r0, [r0], #-36	; 0x24
     7f4:	00057b40 	andeq	r7, r5, r0, asr #22
     7f8:	b0230300 	eorlt	r0, r3, r0, lsl #6
     7fc:	2dde0e03 	ldclcs	14, cr0, [lr, #12]
     800:	44040000 	strmi	r0, [r4]
     804:	000004d5 	ldrdeq	r0, [r0], -r5
     808:	05c02303 	strbeq	r2, [r0, #771]	; 0x303
     80c:	16641500 	strbtne	r1, [r4], -r0, lsl #10
     810:	06010000 	streq	r0, [r1], -r0
     814:	00080d04 	andeq	r0, r8, r4, lsl #26
     818:	193f1500 	ldmdbne	pc!, {r8, sl, ip}
     81c:	06010000 	streq	r0, [r1], -r0
     820:	00081904 	andeq	r1, r8, r4, lsl #18
     824:	00940300 	addseq	r0, r4, r0, lsl #6
     828:	08350000 	ldmdaeq	r5!, {}
     82c:	40040000 	andmi	r0, r4, r0
     830:	0f000000 	svceq	0x00000000
     834:	12040d00 	andne	r0, r4, #0
     838:	00084c11 	andeq	r4, r8, r1, lsl ip
     83c:	26730e00 	ldrbtcs	r0, [r3], -r0, lsl #28
     840:	12120000 	andsne	r0, r2, #0
     844:	0000084c 	andeq	r0, r0, ip, asr #16
     848:	00002302 	andeq	r2, r0, r2, lsl #6
     84c:	0000550f 	andeq	r5, r0, pc, lsl #10
     850:	24360b00 	ldrtcs	r0, [r6], #-2816	; 0xb00
     854:	13120000 	tstne	r2, #0
     858:	00000835 	andeq	r0, r0, r5, lsr r8
     85c:	1f12001f 	svcne	0x0012001f
     860:	0026970b 	eoreq	r9, r6, fp, lsl #14
     864:	5c211200 	sfmpl	f1, 4, [r1]	; (stcpl 2, cr1, [r1])
     868:	20000008 	andcs	r0, r0, r8
     86c:	00000ac2 	andeq	r0, r0, r2, asr #21
     870:	016e3800 	cmneq	lr, r0, lsl #16
     874:	1413100d 	ldrne	r1, [r3], #-13
     878:	000008b5 	undefined instruction 0x000008b5
     87c:	0002740e 	andeq	r7, r2, lr, lsl #8
     880:	51151300 	tstpl	r5, r0, lsl #6
     884:	02000008 	andeq	r0, r0, #8
     888:	a90e0023 	stmdbge	lr, {r0, r1, r5}
     88c:	13000017 	movwne	r0, #23
     890:	0000551a 	andeq	r5, r0, sl, lsl r5
     894:	04230200 	strteq	r0, [r3], #-512	; 0x200
     898:	0008b00e 	andeq	fp, r8, lr
     89c:	551a1300 	ldrpl	r1, [sl, #-768]	; 0x300
     8a0:	02000000 	andeq	r0, r0, #0
     8a4:	190e0823 	stmdbne	lr, {r0, r1, r5, fp}
     8a8:	13000011 	movwne	r0, #17
     8ac:	0003231b 	andeq	r2, r3, fp, lsl r3
     8b0:	0c230200 	sfmeq	f0, 4, [r3]	; (stceq 2, cr0, [r3])
     8b4:	01fc0b00 	mvnseq	r0, r0, lsl #22
     8b8:	20130000 	andscs	r0, r3, r0
     8bc:	00000874 	andeq	r0, r0, r4, ror r8
     8c0:	24130c0d 	ldrcs	r0, [r3], #-3085	; 0xc0d
     8c4:	00000901 	andeq	r0, r0, r1, lsl #18
     8c8:	0002740e 	andeq	r7, r2, lr, lsl #8
     8cc:	60251300 	eorvs	r1, r5, r0, lsl #6
     8d0:	02000008 	andeq	r0, r0, #8
     8d4:	a90e0023 	stmdbge	lr, {r0, r1, r5}
     8d8:	13000017 	movwne	r0, #23
     8dc:	0000552a 	andeq	r5, r0, sl, lsr #10
     8e0:	00230200 	eoreq	r0, r3, r0, lsl #4
     8e4:	0008b00e 	andeq	fp, r8, lr
     8e8:	552a1300 	strpl	r1, [sl, #-768]!	; 0x300
     8ec:	02000000 	andeq	r0, r0, #0
     8f0:	190e0423 	stmdbne	lr, {r0, r1, r5, sl}
     8f4:	13000011 	movwne	r0, #17
     8f8:	0003232b 	andeq	r2, r3, fp, lsr #6
     8fc:	08230200 	stmdaeq	r3!, {r9}
     900:	0c710b00 	ldcleq	11, cr0, [r1]
     904:	30130000 	andscc	r0, r3, r0
     908:	000008c0 	andeq	r0, r0, r0, asr #17
     90c:	002a350b 	eoreq	r3, sl, fp, lsl #10
     910:	948d1400 	strls	r1, [sp], #1024	; 0x400
     914:	10000002 	andne	r0, r0, r2
     918:	00002079 	andeq	r2, r0, r9, ror r0
     91c:	da3e1550 	ble	f85e64 <tz_ioctl+0xf85c18>
     920:	14000009 	strne	r0, [r0], #-9
     924:	006f6e69 	rsbeq	r6, pc, r9, ror #28
     928:	010f3f15 	tsteq	pc, r5, lsl pc
     92c:	23020000 	movwcs	r0, #8192	; 0x2000
     930:	65641400 	strbvs	r1, [r4, #-1024]!	; 0x400
     934:	40150076 	andsmi	r0, r5, r6, ror r0
     938:	00000195 	muleq	r0, r5, r1
     93c:	0e082302 	cdpeq	3, 0, cr2, cr8, cr2, {0}
     940:	00000b46 	andeq	r0, r0, r6, asr #22
     944:	011a4115 	tsteq	sl, r5, lsl r1
     948:	23020000 	movwcs	r0, #8192	; 0x2000
     94c:	13020e0c 	movwne	r0, #11788	; 0x2e0c
     950:	42150000 	andsmi	r0, r5, #0
     954:	00000055 	andeq	r0, r0, r5, asr r0
     958:	14102302 	ldrne	r2, [r0], #-770	; 0x302
     95c:	00646975 	rsbeq	r6, r4, r5, ror r9
     960:	01c84315 	biceq	r4, r8, r5, lsl r3
     964:	23020000 	movwcs	r0, #8192	; 0x2000
     968:	69671414 	stmdbvs	r7!, {r2, r4, sl, ip}^
     96c:	44150064 	ldrmi	r0, [r5], #-100	; 0x64
     970:	000001d3 	ldrdeq	r0, [r0], -r3
     974:	0e182302 	cdpeq	3, 1, cr2, cr8, cr2, {0}
     978:	0000012e 	andeq	r0, r0, lr, lsr #2
     97c:	01954515 	orrseq	r4, r5, r5, lsl r5
     980:	23020000 	movwcs	r0, #8192	; 0x2000
     984:	109d0e1c 	addsne	r0, sp, ip, lsl lr
     988:	46150000 	ldrmi	r0, [r5], -r0
     98c:	000001de 	ldrdeq	r0, [r0], -lr
     990:	0e202302 	cdpeq	3, 2, cr2, cr0, cr2, {0}
     994:	000007d5 	ldrdeq	r0, [r0], -r5
     998:	041c4715 	ldreq	r4, [ip], #-1813	; 0x715
     99c:	23020000 	movwcs	r0, #8192	; 0x2000
     9a0:	2c180e28 	ldccs	14, cr0, [r8], {40}	; 0x28
     9a4:	48150000 	ldmdami	r5, {}
     9a8:	0000041c 	andeq	r0, r0, ip, lsl r4
     9ac:	0e302302 	cdpeq	3, 3, cr2, cr0, cr2, {0}
     9b0:	00002617 	andeq	r2, r0, r7, lsl r6
     9b4:	041c4915 	ldreq	r4, [ip], #-2325	; 0x915
     9b8:	23020000 	movwcs	r0, #8192	; 0x2000
     9bc:	0c630e38 	stcleq	14, cr0, [r3], #-224	; 0xffffff20
     9c0:	4a150000 	bmi	5409c8 <tz_ioctl+0x54077c>
     9c4:	00000029 	andeq	r0, r0, r9, lsr #32
     9c8:	0e402302 	cdpeq	3, 4, cr2, cr0, cr2, {0}
     9cc:	00000238 	andeq	r0, r0, r8, lsr r2
     9d0:	00f24b15 	rscseq	r4, r2, r5, lsl fp
     9d4:	23020000 	movwcs	r0, #8192	; 0x2000
     9d8:	5e100048 	cdppl	0, 1, cr0, cr0, cr8, {2}
     9dc:	1800002d 	stmdane	r0, {r0, r2, r3, r5}
     9e0:	0a033216 	beq	cd240 <tz_ioctl+0xccff4>
     9e4:	f20e0000 	vhadd.s8	d0, d14, d0
     9e8:	16000022 	strne	r0, [r0], -r2, lsr #32
     9ec:	0008b533 	andeq	fp, r8, r3, lsr r5
     9f0:	00230200 	eoreq	r0, r3, r0, lsl #4
     9f4:	001d9e0e 	andseq	r9, sp, lr, lsl #28
     9f8:	9f341600 	svcls	0x00341600
     9fc:	02000002 	andeq	r0, r0, #2
     a00:	0b001023 	bleq	4a94 <.debug_info+0x4a94>
     a04:	000022e0 	andeq	r2, r0, r0, ror #5
     a08:	09da3616 	ldmibeq	sl, {r1, r2, r4, r9, sl, ip, sp}^
     a0c:	01210000 	teqeq	r1, r0
     a10:	00000a1f 	andeq	r0, r0, pc, lsl sl
     a14:	000a1f1b 	andeq	r1, sl, fp, lsl pc
     a18:	00291b00 	eoreq	r1, r9, r0, lsl #22
     a1c:	06000000 	streq	r0, [r0], -r0
     a20:	000a2504 	andeq	r2, sl, r4, lsl #10
     a24:	12381500 	eorsne	r1, r8, #0
     a28:	06010000 	streq	r0, [r1], -r0
     a2c:	000a0e04 	andeq	r0, sl, r4, lsl #28
     a30:	2ed91000 	cdpcs	0, 13, cr1, cr9, cr0, {0}
     a34:	172c0000 	strne	r0, [ip, -r0]!
     a38:	000a5a39 	andeq	r5, sl, r9, lsr sl
     a3c:	1e280e00 	cdpne	14, 2, cr0, cr8, cr0, {0}
     a40:	3a170000 	bcc	5c0a48 <tz_ioctl+0x5c07fc>
     a44:	00000a5a 	andeq	r0, r0, sl, asr sl
     a48:	0e002302 	cdpeq	3, 0, cr2, cr0, cr2, {0}
     a4c:	00000f06 	andeq	r0, r0, r6, lsl #30
     a50:	00293b17 	eoreq	r3, r9, r7, lsl fp
     a54:	23020000 	movwcs	r0, #8192	; 0x2000
     a58:	9f030028 	svcls	0x00030028
     a5c:	6a000002 	bvs	a6c <.debug_info+0xa6c>
     a60:	0400000a 	streq	r0, [r0], #-10
     a64:	00000040 	andeq	r0, r0, r0, asr #32
     a68:	c1100004 	tstgt	r0, r4
     a6c:	24000004 	strcs	r0, [r0], #-4
     a70:	0aafa917 	beq	febeaed4 <tz_ioctl+0xfebeac88>
     a74:	840e0000 	strhi	r0, [lr]
     a78:	1700001a 	smladne	r0, sl, r0, r0
     a7c:	000068aa 	andeq	r6, r0, sl, lsr #17
     a80:	00230200 	eoreq	r0, r3, r0, lsl #4
     a84:	000e2b0e 	andeq	r2, lr, lr, lsl #22
     a88:	68ab1700 	stmiavs	fp!, {r8, r9, sl, ip}
     a8c:	02000000 	andeq	r0, r0, #0
     a90:	540e0423 	strpl	r0, [lr], #-1059	; 0x423
     a94:	1700000a 	strne	r0, [r0, -sl]
     a98:	000068ac 	andeq	r6, r0, ip, lsr #17
     a9c:	08230200 	stmdaeq	r3!, {r9}
     aa0:	0012c00e 	andseq	ip, r2, lr
     aa4:	afaf1700 	svcge	0x00af1700
     aa8:	0200000a 	andeq	r0, r0, #10
     aac:	03000c23 	movweq	r0, #3107	; 0xc23
     ab0:	0000029f 	muleq	r0, pc, r2
     ab4:	00000abf 	undefined instruction 0x00000abf
     ab8:	00004004 	andeq	r4, r0, r4
     abc:	10000200 	andne	r0, r0, r0, lsl #4
     ac0:	00000781 	andeq	r0, r0, r1, lsl #15
     ac4:	dab21724 	ble	fec8675c <tz_ioctl+0xfec86510>
     ac8:	1400000a 	strne	r0, [r0], #-10
     acc:	00706370 	rsbseq	r6, r0, r0, ror r3
     ad0:	0a6ab317 	beq	1aad734 <tz_ioctl+0x1aad4e8>
     ad4:	23020000 	movwcs	r0, #8192	; 0x2000
     ad8:	12110000 	andsne	r0, r1, #0
     adc:	24000018 	strcs	r0, [r0], #-24
     ae0:	15010c17 	strne	r0, [r1, #-3095]	; 0xc17
     ae4:	1200000b 	andne	r0, r0, #11
     ae8:	0000276a 	andeq	r2, r0, sl, ror #14
     aec:	30011517 	andcc	r1, r1, r7, lsl r5
     af0:	02000000 	andeq	r0, r0, #0
     af4:	8f120023 	svchi	0x00120023
     af8:	17000009 	strne	r0, [r0, -r9]
     afc:	00300116 	eorseq	r0, r0, r6, lsl r1
     b00:	23020000 	movwcs	r0, #8192	; 0x2000
     b04:	2fc81208 	svccs	0x00c81208
     b08:	1b170000 	blne	5c0b10 <tz_ioctl+0x5c08c4>
     b0c:	000b1501 	andeq	r1, fp, r1, lsl #10
     b10:	10230200 	eorne	r0, r3, r0, lsl #4
     b14:	00290300 	eoreq	r0, r9, r0, lsl #6
     b18:	0b250000 	bleq	940b20 <tz_ioctl+0x9408d4>
     b1c:	40040000 	andmi	r0, r4, r0
     b20:	04000000 	streq	r0, [r0]
     b24:	16b71100 	ldrtne	r1, [r7], r0, lsl #2
     b28:	17080000 	strne	r0, [r8, -r0]
     b2c:	0b420150 	bleq	1081074 <tz_ioctl+0x1080e28>
     b30:	ea120000 	b	480008 <tz_ioctl+0x47fdbc>
     b34:	17000013 	smladne	r0, r3, r0, r0
     b38:	029f0151 	addseq	r0, pc, #1073741844	; 0x40000014
     b3c:	23020000 	movwcs	r0, #8192	; 0x2000
     b40:	a4220000 	strtge	r0, [r2]
     b44:	14000004 	strne	r0, [r0], #-4
     b48:	011e1703 	tsteq	lr, r3, lsl #14
     b4c:	00000c9c 	muleq	r0, ip, ip
     b50:	00217d12 	eoreq	r7, r1, r2, lsl sp
     b54:	01221700 	teqeq	r2, r0, lsl #14
     b58:	00000325 	andeq	r0, r0, r5, lsr #6
     b5c:	12002302 	andne	r2, r0, #134217728	; 0x8000000
     b60:	00001bcd 	andeq	r1, r0, sp, asr #23
     b64:	30012c17 	andcc	r2, r1, r7, lsl ip
     b68:	02000000 	andeq	r0, r0, #0
     b6c:	92120c23 	andsls	r0, r2, #8960	; 0x2300
     b70:	17000016 	smladne	r0, r6, r0, r0
     b74:	0c9c0137 	ldfeqs	f0, [ip], {55}	; 0x37
     b78:	23020000 	movwcs	r0, #8192	; 0x2000
     b7c:	22f21214 	rscscs	r1, r2, #1073741825	; 0x40000001
     b80:	3c170000 	ldccc	0, cr0, [r7], {0}
     b84:	0008b501 	andeq	fp, r8, r1, lsl #10
     b88:	38230200 	stmdacc	r3!, {r9}
     b8c:	002ed912 	eoreq	sp, lr, r2, lsl r9
     b90:	01411700 	cmpeq	r1, r0, lsl #14
     b94:	00000cac 	andeq	r0, r0, ip, lsr #25
     b98:	12482302 	subne	r2, r8, #134217728	; 0x8000000
     b9c:	00001b61 	andeq	r1, r0, r1, ror #22
     ba0:	b5014f17 	strlt	r4, [r1, #-3863]	; 0xf17
     ba4:	03000008 	movweq	r0, #8
     ba8:	2304ac23 	movwcs	sl, #19491	; 0x4c23
     bac:	0075726c 	rsbseq	r7, r5, ip, ror #4
     bb0:	bc015217 	sfmlt	f5, 4, [r1], {23}	; (stclt 2, cr5, [r1], {23})
     bb4:	0300000c 	movweq	r0, #12
     bb8:	1204bc23 	andne	fp, r4, #8960	; 0x2300
     bbc:	00000b92 	muleq	r0, r2, fp
     bc0:	da015417 	ble	55c24 <tz_ioctl+0x559d8>
     bc4:	0300000a 	movweq	r0, #10
     bc8:	1204e423 	andne	lr, r4, #587202560	; 0x23000000
     bcc:	00002b48 	andeq	r2, r0, r8, asr #22
     bd0:	29015617 	stmdbcs	r1, {r0, r1, r2, r4, r9, sl, ip, lr}
     bd4:	03000000 	movweq	r0, #0
     bd8:	12058823 	andne	r8, r5, #2293760	; 0x230000
     bdc:	00003043 	andeq	r3, r0, r3, asr #32
     be0:	29015717 	stmdbcs	r1, {r0, r1, r2, r4, r8, r9, sl, ip, lr}
     be4:	03000000 	movweq	r0, #0
     be8:	12058c23 	andne	r8, r5, #8960	; 0x2300
     bec:	00001d8d 	andeq	r1, r0, sp, lsl #27
     bf0:	cc015a17 	stcgt	10, cr5, [r1], {23}
     bf4:	0300000c 	movweq	r0, #12
     bf8:	12059023 	andne	r9, r5, #35	; 0x23
     bfc:	000016e8 	andeq	r1, r0, r8, ror #13
     c00:	68016917 	stmdavs	r1, {r0, r1, r2, r4, r8, fp, sp, lr}
     c04:	03000000 	movweq	r0, #0
     c08:	1205ec23 	andne	lr, r5, #8960	; 0x2300
     c0c:	000021cd 	andeq	r2, r0, sp, asr #3
     c10:	55016f17 	strpl	r6, [r1, #-3863]	; 0xf17
     c14:	03000000 	movweq	r0, #0
     c18:	1205f023 	andne	pc, r5, #35	; 0x23
     c1c:	000012e3 	andeq	r1, r0, r3, ror #5
     c20:	dc018d17 	stcle	13, cr8, [r1], {23}
     c24:	0300000c 	movweq	r0, #12
     c28:	1205f423 	andne	pc, r5, #587202560	; 0x23000000
     c2c:	0000144b 	andeq	r1, r0, fp, asr #8
     c30:	29018e17 	stmdbcs	r1, {r0, r1, r2, r4, r9, sl, fp, pc}
     c34:	03000000 	movweq	r0, #0
     c38:	1205f823 	andne	pc, r5, #2293760	; 0x230000
     c3c:	00001d4d 	andeq	r1, r0, sp, asr #26
     c40:	29018f17 	stmdbcs	r1, {r0, r1, r2, r4, r8, r9, sl, fp, pc}
     c44:	03000000 	movweq	r0, #0
     c48:	1205fc23 	andne	pc, r5, #8960	; 0x2300
     c4c:	000004b6 	undefined instruction 0x000004b6
     c50:	9f019417 	svcls	0x00019417
     c54:	0300000d 	movweq	r0, #13
     c58:	12068023 	andne	r8, r6, #35	; 0x23
     c5c:	000020c9 	andeq	r2, r0, r9, asr #1
     c60:	29019617 	stmdbcs	r1, {r0, r1, r2, r4, r9, sl, ip, pc}
     c64:	03000000 	movweq	r0, #0
     c68:	12068423 	andne	r8, r6, #587202560	; 0x23000000
     c6c:	00002ef4 	strdeq	r2, [r0], -r4
     c70:	2901a217 	stmdbcs	r1, {r0, r1, r2, r4, r9, sp, pc}
     c74:	03000000 	movweq	r0, #0
     c78:	12068823 	andne	r8, r6, #2293760	; 0x230000
     c7c:	000028ed 	andeq	r2, r0, sp, ror #17
     c80:	2901a317 	stmdbcs	r1, {r0, r1, r2, r4, r8, r9, sp, pc}
     c84:	03000000 	movweq	r0, #0
     c88:	12068c23 	andne	r8, r6, #8960	; 0x2300
     c8c:	000017ed 	andeq	r1, r0, sp, ror #15
     c90:	4301a817 	movwmi	sl, #6167	; 0x1817
     c94:	03000000 	movweq	r0, #0
     c98:	00069023 	andeq	r9, r6, r3, lsr #32
     c9c:	000abf03 	andeq	fp, sl, r3, lsl #30
     ca0:	000cac00 	andeq	sl, ip, r0, lsl #24
     ca4:	00400400 	subeq	r0, r0, r0, lsl #8
     ca8:	00000000 	andeq	r0, r0, r0
     cac:	000a3103 	andeq	r3, sl, r3, lsl #2
     cb0:	000cbc00 	andeq	fp, ip, r0, lsl #24
     cb4:	00400400 	subeq	r0, r0, r0, lsl #8
     cb8:	000a0000 	andeq	r0, sl, r0
     cbc:	000b2503 	andeq	r2, fp, r3, lsl #10
     cc0:	000ccc00 	andeq	ip, ip, r0, lsl #24
     cc4:	00400400 	subeq	r0, r0, r0, lsl #8
     cc8:	00040000 	andeq	r0, r4, r0
     ccc:	00090c03 	andeq	r0, r9, r3, lsl #24
     cd0:	000cdc00 	andeq	sp, ip, r0, lsl #24
     cd4:	00400400 	subeq	r0, r0, r0, lsl #8
     cd8:	00160000 	andseq	r0, r6, r0
     cdc:	0a030406 	beq	c1cfc <tz_ioctl+0xc1ab0>
     ce0:	d41c0000 	ldrle	r0, [ip]
     ce4:	7c000019 	stcvc	0, cr0, [r0], {25}
     ce8:	9f3e1706 	svcls	0x003e1706
     cec:	1200000d 	andne	r0, r0, #13
     cf0:	00002389 	andeq	r2, r0, r9, lsl #7
     cf4:	1f026617 	svcne	0x00026617
     cf8:	0200000e 	andeq	r0, r0, #14
     cfc:	f2120023 	vhadd.s16	d0, d2, d19
     d00:	17000017 	smladne	r0, r7, r0, r0
     d04:	0e2f0267 	cdpeq	2, 2, cr0, cr15, cr7, {3}
     d08:	23030000 	movwcs	r0, #12288	; 0x3000
     d0c:	b9120ca8 	ldmdblt	r2, {r3, r5, r7, sl, fp}
     d10:	17000007 	strne	r0, [r0, -r7]
     d14:	00680268 	rsbeq	r0, r8, r8, ror #4
     d18:	23030000 	movwcs	r0, #12288	; 0x3000
     d1c:	99120cc4 	ldmdbls	r2, {r2, r6, r7, sl, fp}
     d20:	17000004 	strne	r0, [r0, -r4]
     d24:	0e45026f 	cdpeq	2, 4, cr0, cr5, cr15, {3}
     d28:	23030000 	movwcs	r0, #12288	; 0x3000
     d2c:	56120cc8 	ldrpl	r0, [r2], -r8, asr #25
     d30:	1700001a 	smladne	r0, sl, r0, r0
     d34:	0029027a 	eoreq	r0, r9, sl, ror r2
     d38:	23030000 	movwcs	r0, #12288	; 0x3000
     d3c:	f9120ccc 	undefined instruction 0xf9120ccc
     d40:	17000026 	strne	r0, [r0, -r6, lsr #32]
     d44:	0029027b 	eoreq	r0, r9, fp, ror r2
     d48:	23030000 	movwcs	r0, #12288	; 0x3000
     d4c:	e0120cd0 	undefined instruction 0xe0120cd0
     d50:	1700001e 	smladne	r0, lr, r0, r0
     d54:	0029027c 	eoreq	r0, r9, ip, ror r2
     d58:	23030000 	movwcs	r0, #12288	; 0x3000
     d5c:	d1120cd4 	undefined instruction 0xd1120cd4
     d60:	1700000a 	strne	r0, [r0, -sl]
     d64:	0068027e 	rsbeq	r0, r8, lr, ror r2
     d68:	23030000 	movwcs	r0, #12288	; 0x3000
     d6c:	d6120cd8 	undefined instruction 0xd6120cd8
     d70:	1700002f 	strne	r0, [r0, -pc, lsr #32]
     d74:	0a03027f 	beq	c1778 <tz_ioctl+0xc152c>
     d78:	23030000 	movwcs	r0, #12288	; 0x3000
     d7c:	37120cdc 	undefined instruction 0x37120cdc
     d80:	17000008 	strne	r0, [r0, -r8]
     d84:	08130280 	ldmdaeq	r3, {r7, r9}
     d88:	23030000 	movwcs	r0, #12288	; 0x3000
     d8c:	63120cf4 	tstvs	r2, #62464	; 0xf400
     d90:	17000002 	strne	r0, [r0, -r2]
     d94:	00680281 	rsbeq	r0, r8, r1, lsl #5
     d98:	23030000 	movwcs	r0, #12288	; 0x3000
     d9c:	06000cf8 	undefined instruction 0x06000cf8
     da0:	000ce204 	andeq	lr, ip, r4, lsl #4
     da4:	20a81100 	adccs	r1, r8, r0, lsl #2
     da8:	17080000 	strne	r0, [r8, -r0]
     dac:	0dd1022e 	lfmeq	f0, 2, [r1, #184]	; (ldcleq 2, cr0, [r1, #184])	; 0xb8
     db0:	a4120000 	ldrge	r0, [r2]
     db4:	17000004 	strne	r0, [r0, -r4]
     db8:	0dd1022f 	lfmeq	f0, 2, [r1, #188]	; (ldcleq 2, cr0, [r1, #188])	; 0xbc
     dbc:	23020000 	movwcs	r0, #8192	; 0x2000
     dc0:	2e781200 	cdpcs	2, 7, cr1, cr8, cr0, {0}
     dc4:	30170000 	andscc	r0, r7, r0
     dc8:	00006802 	andeq	r6, r0, r2, lsl #16
     dcc:	04230200 	strteq	r0, [r3], #-512	; 0x200
     dd0:	42040600 	andmi	r0, r4, #0
     dd4:	1100000b 	tstne	r0, fp
     dd8:	0000167b 	andeq	r1, r0, fp, ror r6
     ddc:	0244171c 	subeq	r1, r4, #7340032	; 0x700000
     de0:	00000e03 	andeq	r0, r0, r3, lsl #28
     de4:	0000e612 	andeq	lr, r0, r2, lsl r6
     de8:	02451700 	subeq	r1, r5, #0
     dec:	00000e09 	andeq	r0, r0, r9, lsl #28
     df0:	12002302 	andne	r2, r0, #134217728	; 0x8000000
     df4:	00002277 	andeq	r2, r0, r7, ror r2
     df8:	0f024617 	svceq	0x00024617
     dfc:	0200000e 	andeq	r0, r0, #14
     e00:	15000423 	strne	r0, [r0, #-1059]	; 0x423
     e04:	00000416 	andeq	r0, r0, r6, lsl r4
     e08:	03040601 	movweq	r0, #17921	; 0x4601
     e0c:	0300000e 	movweq	r0, #14
     e10:	00000da5 	andeq	r0, r0, r5, lsr #27
     e14:	00000e1f 	andeq	r0, r0, pc, lsl lr
     e18:	00004004 	andeq	r4, r0, r4
     e1c:	03000200 	movweq	r0, #512	; 0x200
     e20:	00000b42 	andeq	r0, r0, r2, asr #22
     e24:	00000e2f 	andeq	r0, r0, pc, lsr #28
     e28:	00004004 	andeq	r4, r0, r4
     e2c:	03000100 	movweq	r0, #256	; 0x100
     e30:	00000dd7 	ldrdeq	r0, [r0], -r7
     e34:	00000e3f 	andeq	r0, r0, pc, lsr lr
     e38:	00004004 	andeq	r4, r0, r4
     e3c:	15000000 	strne	r0, [r0]
     e40:	0000270c 	andeq	r2, r0, ip, lsl #14
     e44:	3f040601 	svccc	0x00040601
     e48:	1000000e 	andne	r0, r0, lr
     e4c:	00001097 	muleq	r0, r7, r0
     e50:	ac301828 	ldcge	8, cr1, [r0], #-160	; 0xffffff60
     e54:	0e00000e 	cdpeq	0, 0, cr0, cr0, cr14, {0}
     e58:	00001a84 	andeq	r1, r0, r4, lsl #21
     e5c:	02943218 	addseq	r3, r4, #-2147483647	; 0x80000001
     e60:	23020000 	movwcs	r0, #8192	; 0x2000
     e64:	1b0f0e00 	blne	3c3808 <tz_ioctl+0x3c35bc>
     e68:	33180000 	tstcc	r8, #0
     e6c:	000008b5 	undefined instruction 0x000008b5
     e70:	0e042302 	cdpeq	3, 0, cr2, cr4, cr2, {0}
     e74:	00000c59 	andeq	r0, r0, r9, asr ip
     e78:	029f3418 	addseq	r3, pc, #402653184	; 0x18000000
     e7c:	23020000 	movwcs	r0, #8192	; 0x2000
     e80:	11190e14 	tstne	r9, r4, lsl lr
     e84:	36180000 	ldrcc	r0, [r8], -r0
     e88:	00000eac 	andeq	r0, r0, ip, lsr #29
     e8c:	0e1c2302 	cdpeq	3, 1, cr2, cr12, cr2, {0}
     e90:	000017ed 	andeq	r1, r0, sp, ror #15
     e94:	00433918 	subeq	r3, r3, r8, lsl r9
     e98:	23020000 	movwcs	r0, #8192	; 0x2000
     e9c:	17a90e20 	strne	r0, [r9, r0, lsr #28]!
     ea0:	3a180000 	bcc	600ea8 <tz_ioctl+0x600c5c>
     ea4:	00000323 	andeq	r0, r0, r3, lsr #6
     ea8:	00242302 	eoreq	r2, r4, r2, lsl #6
     eac:	072a0406 	streq	r0, [sl, -r6, lsl #8]!
     eb0:	5a100000 	bpl	400008 <tz_ioctl+0x3ffdbc>
     eb4:	1c000022 	stcne	0, cr0, [r0], {34}	; 0x22
     eb8:	0ee91119 	mcreq	1, 7, r1, cr9, cr9, {0}
     ebc:	900e0000 	andls	r0, lr, r0
     ec0:	1a00002c 	bne	f78 <.debug_info+0xf78>
     ec4:	0000ca20 	andeq	ip, r0, r0, lsr #20
     ec8:	00230200 	eoreq	r0, r3, r0, lsl #4
     ecc:	001b0f0e 	andseq	r0, fp, lr, lsl #30
tz_init():
/home/luojing/share/projects/2014-01-16/trustzone/tz_driver/tz_driver.c:273
     ed0:	b5211a00 	strlt	r1, [r1, #-2560]!	; 0xa00
     ed4:	02000008 	andeq	r0, r0, #8
     ed8:	590e0423 	stmdbpl	lr, {r0, r1, r5, sl}
     edc:	1a00000c 	bne	f14 <.debug_info+0xf14>
/home/luojing/share/projects/2014-01-16/trustzone/tz_driver/tz_driver.c:277
     ee0:	00029f22 	andeq	r9, r2, r2, lsr #30
     ee4:	14230200 	strtne	r0, [r3], #-512	; 0x200
/home/luojing/share/projects/2014-01-16/trustzone/tz_driver/tz_driver.c:275
     ee8:	156d1000 	strbne	r1, [sp]!
     eec:	1b080000 	blne	200ef4 <tz_ioctl+0x200ca8>
/home/luojing/share/projects/2014-01-16/trustzone/tz_driver/tz_driver.c:277
     ef0:	000f140b 	andeq	r1, pc, fp, lsl #8
     ef4:	005b1200 	subseq	r1, fp, r0, lsl #4
     ef8:	c5170000 	ldrgt	r0, [r7]
     efc:	00002903 	andeq	r2, r0, r3, lsl #18
     f00:	00230200 	eoreq	r0, r3, r0, lsl #4
/home/luojing/share/projects/2014-01-16/trustzone/tz_driver/tz_driver.c:278
     f04:	002f9212 	eoreq	r9, pc, r2, lsl r2
/home/luojing/share/projects/2014-01-16/trustzone/tz_driver/tz_driver.c:279
     f08:	03c81700 	biceq	r1, r8, #0
/home/luojing/share/projects/2014-01-16/trustzone/tz_driver/tz_driver.c:278
     f0c:	00000f14 	andeq	r0, r0, r4, lsl pc
/home/luojing/share/projects/2014-01-16/trustzone/tz_driver/tz_driver.c:282
     f10:	00042302 	andeq	r2, r4, r2, lsl #6
     f14:	00290406 	eoreq	r0, r9, r6, lsl #8
/home/luojing/share/projects/2014-01-16/trustzone/tz_driver/tz_driver.c:284
     f18:	01210000 	teqeq	r1, r0
     f1c:	00000f26 	andeq	r0, r0, r6, lsr #30
     f20:	0003231b 	andeq	r2, r3, fp, lsl r3
     f24:	04060000 	streq	r0, [r6]
/home/luojing/share/projects/2014-01-16/trustzone/tz_driver/tz_driver.c:285
     f28:	00000f1a 	andeq	r0, r0, sl, lsl pc
/home/luojing/share/projects/2014-01-16/trustzone/tz_driver/tz_driver.c:284
     f2c:	00004e03 	andeq	r4, r0, r3, lsl #28
/home/luojing/share/projects/2014-01-16/trustzone/tz_driver/tz_driver.c:285
     f30:	000f3c00 	andeq	r3, pc, r0, lsl #24
/home/luojing/share/projects/2014-01-16/trustzone/tz_driver/tz_driver.c:287
     f34:	00400400 	subeq	r0, r0, r0, lsl #8
     f38:	001f0000 	andseq	r0, pc, r0
     f3c:	001e950b 	andseq	r9, lr, fp, lsl #10
/home/luojing/share/projects/2014-01-16/trustzone/tz_driver/tz_driver.c:288
     f40:	d5141c00 	ldrle	r1, [r4, #-3072]	; 0xc00
/home/luojing/share/projects/2014-01-16/trustzone/tz_driver/tz_driver.c:290
     f44:	0b000000 	bleq	f4c <.debug_info+0xf4c>
     f48:	0000298b 	andeq	r2, r0, fp, lsl #19
/home/luojing/share/projects/2014-01-16/trustzone/tz_driver/tz_driver.c:292
     f4c:	00b8151c 	adcseq	r1, r8, ip, lsl r5
     f50:	a40b0000 	strge	r0, [fp]
     f54:	1c000027 	stcne	0, cr0, [r0], {39}	; 0x27
     f58:	0000d516 	andeq	sp, r0, r6, lsl r5
     f5c:	1a170b00 	bne	5c2c08 <tz_ioctl+0x5c29bc>
     f60:	181c0000 	ldmdane	ip, {}
/home/luojing/share/projects/2014-01-16/trustzone/tz_driver/tz_driver.c:294
     f64:	000000d5 	ldrdeq	r0, [r0], -r5
/home/luojing/share/projects/2014-01-16/trustzone/tz_driver/tz_driver.c:292
     f68:	00218c10 	eoreq	r8, r1, r0, lsl ip
/home/luojing/share/projects/2014-01-16/trustzone/tz_driver/tz_driver.c:294
     f6c:	ac1c1000 	ldcge	0, cr1, [ip], {0}
/home/luojing/share/projects/2014-01-16/trustzone/tz_driver/tz_driver.c:296
     f70:	00000fc9 	andeq	r0, r0, r9, asr #31
     f74:	0020c10e 	eoreq	ip, r0, lr, lsl #2
     f78:	5dad1c00 	stcpl	12, cr1, [sp]
/home/luojing/share/projects/2014-01-16/trustzone/tz_driver/tz_driver.c:297
     f7c:	0200000f 	andeq	r0, r0, #15
/home/luojing/share/projects/2014-01-16/trustzone/tz_driver/tz_driver.c:299
     f80:	450e0023 	strmi	r0, [lr, #-35]	; 0x23
     f84:	1c000024 	stcne	0, cr0, [r0], {36}	; 0x24
/home/luojing/share/projects/2014-01-16/trustzone/tz_driver/tz_driver.c:302
     f88:	000f3cae 	andeq	r3, pc, lr, lsr #25
     f8c:	04230200 	strteq	r0, [r3], #-512	; 0x200
     f90:	0003c40e 	andeq	ip, r3, lr, lsl #8
/home/luojing/share/projects/2014-01-16/trustzone/tz_driver/tz_driver.c:303
     f94:	5daf1c00 	stcpl	12, cr1, [pc]
     f98:	0200000f 	andeq	r0, r0, #15
     f9c:	150e0823 	strne	r0, [lr, #-2083]	; 0x823
     fa0:	1c000014 	stcne	0, cr0, [r0], {20}
/home/luojing/share/projects/2014-01-16/trustzone/tz_driver/tz_driver.c:304
     fa4:	00009fb0 	undefined instruction 0x00009fb0
     fa8:	0c230200 	sfmeq	f0, 4, [r3]	; (stceq 2, cr0, [r3])
/home/luojing/share/projects/2014-01-16/trustzone/tz_driver/tz_driver.c:305
     fac:	0003960e 	andeq	r9, r3, lr, lsl #12
     fb0:	9fb11c00 	svcls	0x00b11c00
/home/luojing/share/projects/2014-01-16/trustzone/tz_driver/tz_driver.c:316
     fb4:	02000000 	andeq	r0, r0, #0
     fb8:	270e0d23 	strcs	r0, [lr, -r3, lsr #26]
     fbc:	1c000005 	stcne	0, cr0, [r0], {5}
     fc0:	000f47b2 	undefined instruction 0x000f47b2
/home/luojing/share/projects/2014-01-16/trustzone/tz_driver/tz_driver.c:308
     fc4:	0e230200 	cdpeq	2, 2, cr0, cr3, cr0, {0}
     fc8:	18e90b00 	stmiane	r9!, {r8, r9, fp}^
/home/luojing/share/projects/2014-01-16/trustzone/tz_driver/tz_driver.c:310
     fcc:	b31c0000 	tstlt	ip, #0
/home/luojing/share/projects/2014-01-16/trustzone/tz_driver/tz_driver.c:318
     fd0:	00000f68 	andeq	r0, r0, r8, ror #30
     fd4:	211c2824 	tstcs	ip, r4, lsr #16
     fd8:	00107401 	andseq	r7, r0, r1, lsl #8
/home/luojing/share/projects/2014-01-16/trustzone/tz_driver/tz_driver.c:320
     fdc:	1a281200 	bne	a04808 <tz_ioctl+0xa045bc>
     fe0:	221c0000 	andscs	r0, ip, #0
     fe4:	000f5d01 	andeq	r5, pc, r1, lsl #26
     fe8:	00230200 	eoreq	r0, r3, r0, lsl #4
/home/luojing/share/projects/2014-01-16/trustzone/tz_driver/tz_driver.c:323
     fec:	00272b12 	eoreq	r2, r7, r2, lsl fp
     ff0:	01231c00 	teqeq	r3, r0, lsl #24
     ff4:	00000f5d 	andeq	r0, r0, sp, asr pc
     ff8:	12042302 	andne	r2, r4, #134217728	; 0x8000000
     ffc:	000024be 	undefined instruction 0x000024be
    1000:	5d01241c 	cfstrspl	mvf2, [r1, #-112]	; 0xffffff90
    1004:	0200000f 	andeq	r0, r0, #15
    1008:	66120823 	ldrvs	r0, [r2], -r3, lsr #16
    100c:	1c000014 	stcne	0, cr0, [r0], {20}
    1010:	0f3c0125 	svceq	0x003c0125
    1014:	23020000 	movwcs	r0, #8192	; 0x2000
    1018:	2cdf120c 	lfmcs	f1, 2, [pc], {12}	; (ldclcs 2, cr1, [pc], {12})
    101c:	261c0000 	ldrcs	r0, [ip], -r0
    1020:	000f5201 	andeq	r5, pc, r1, lsl #4
    1024:	10230200 	eorne	r0, r3, r0, lsl #4
    1028:	00118712 	andseq	r8, r1, r2, lsl r7
    102c:	01271c00 	teqeq	r7, r0, lsl #24
    1030:	00000f5d 	andeq	r0, r0, sp, asr pc
    1034:	12142302 	andsne	r2, r4, #134217728	; 0x8000000
    1038:	0000125f 	andeq	r1, r0, pc, asr r2
    103c:	5d01281c 	stcpl	8, cr2, [r1, #-112]	; 0xffffff90
    1040:	0200000f 	andeq	r0, r0, #15
    1044:	ed121823 	ldc	8, cr1, [r2, #-140]	; 0xffffff74
    1048:	1c00000d 	stcne	0, cr0, [r0], {13}
    104c:	0f5d0129 	svceq	0x005d0129
    1050:	23020000 	movwcs	r0, #8192	; 0x2000
    1054:	0513121c 	ldreq	r1, [r3, #-540]	; 0x21c
    1058:	2a1c0000 	bcs	701060 <tz_ioctl+0x700e14>
    105c:	000f5d01 	andeq	r5, pc, r1, lsl #26
    1060:	20230200 	eorcs	r0, r3, r0, lsl #4
    1064:	002d9e12 	eoreq	r9, sp, r2, lsl lr
    1068:	012b1c00 	teqeq	fp, r0, lsl #24
    106c:	00000f5d 	andeq	r0, r0, sp, asr pc
    1070:	00242302 	eoreq	r2, r4, r2, lsl #6
    1074:	00221a25 	eoreq	r1, r2, r5, lsr #20
    1078:	012c1c00 	teqeq	ip, r0, lsl #24
    107c:	00000fd4 	ldrdeq	r0, [r0], -r4
    1080:	00110910 	andseq	r0, r1, r0, lsl r9
    1084:	1c1d0c00 	ldcne	12, cr0, [sp], {0}
    1088:	000010b7 	strheq	r1, [r0], -r7
    108c:	0017ed0e 	andseq	lr, r7, lr, lsl #26
    1090:	431d1d00 	tstmi	sp, #0
    1094:	02000000 	andeq	r0, r0, #0
    1098:	190e0023 	stmdbne	lr, {r0, r1, r5}
    109c:	1d000011 	stcne	0, cr0, [r0, #-68]	; 0xffffffbc
    10a0:	0013f31e 	andseq	pc, r3, lr, lsl r3
    10a4:	04230200 	strteq	r0, [r3], #-512	; 0x200
    10a8:	000b460e 	andeq	r4, fp, lr, lsl #12
    10ac:	a01f1d00 	andsge	r1, pc, r0, lsl #26
    10b0:	02000001 	andeq	r0, r0, #1
    10b4:	1c000823 	stcne	8, cr0, [r0], {35}	; 0x23
    10b8:	00001c4b 	andeq	r1, r0, fp, asr #24
    10bc:	151d015c 	ldrne	r0, [sp, #-348]	; 0x15c
    10c0:	000013f3 	strdeq	r1, [r0], -r3
    10c4:	001b770e 	andseq	r7, fp, lr, lsl #14
    10c8:	95ec1e00 	strbls	r1, [ip, #3584]!	; 0xe00
    10cc:	0200001d 	andeq	r0, r0, #29
    10d0:	ea0e0023 	b	380094 <tz_ioctl+0x37fe48>
    10d4:	1e000013 	mcrne	0, 0, r0, cr0, cr3, {0}
    10d8:	00029fef 	andeq	r9, r2, pc, ror #31
    10dc:	04230200 	strteq	r0, [r3], #-512	; 0x200
    10e0:	0017ed0e 	andseq	lr, r7, lr, lsl #26
    10e4:	4af21e00 	bmi	ffc888ec <tz_ioctl+0xffc886a0>
    10e8:	0200001c 	andeq	r0, r0, #28
    10ec:	690e0c23 	stmdbvs	lr, {r0, r1, r5, sl, fp}
    10f0:	1e00002f 	cdpne	0, 0, cr0, cr0, cr15, {1}
    10f4:	001d45f5 	undefined instruction 0x001d45f5
    10f8:	48230200 	stmdami	r3!, {r9}
    10fc:	0009810e 	andeq	r8, r9, lr, lsl #2
    1100:	d5f61e00 	ldrble	r1, [r6, #3584]!	; 0xe00
    1104:	0200001c 	andeq	r0, r0, #28
    1108:	810e7823 	tsthi	lr, r3, lsr #16
    110c:	1e00002e 	cdpne	0, 0, cr0, cr0, cr14, {1}
    1110:	000043f7 	strdeq	r4, [r0], -r7
    1114:	7c230200 	sfmvc	f0, 4, [r3]	; (stcvc 2, cr0, [r3])
    1118:	0006cb0e 	andeq	ip, r6, lr, lsl #22
    111c:	43f81e00 	mvnsmi	r1, #0
    1120:	03000000 	movweq	r0, #0
    1124:	0e018023 	cdpeq	0, 0, cr8, cr1, cr3, {1}
    1128:	00001253 	andeq	r1, r0, r3, asr r2
    112c:	144af91e 	strbne	pc, [sl], #-2334	; 0x91e
    1130:	23030000 	movwcs	r0, #12288	; 0x3000
    1134:	1e0e0184 	adfne<illegal precision>	f0, f6, f4
    1138:	1e000020 	cdpne	0, 0, cr0, cr0, cr0, {1}
    113c:	001db4fc 	undefined instruction 0x001db4fc
    1140:	88230300 	stmdahi	r3!, {r8, r9}
    1144:	209e0e01 	addscs	r0, lr, r1, lsl #28
    1148:	fd1e0000 	ldc2	0, cr0, [lr]
    114c:	00001dc3 	andeq	r1, r0, r3, asr #27
    1150:	018c2303 	orreq	r2, ip, r3, lsl #6
    1154:	0000230e 	andeq	r2, r0, lr, lsl #6
    1158:	55fe1e00 	ldrbpl	r1, [lr, #3584]!	; 0xe00
    115c:	03000000 	movweq	r0, #0
    1160:	23019023 	movwcs	r9, #4131	; 0x1023
    1164:	1e00706b 	cdpne	0, 0, cr7, cr0, cr11, {3}
    1168:	178f0101 	strne	r0, [pc, r1, lsl #2]
    116c:	23030000 	movwcs	r0, #12288	; 0x3000
    1170:	64120194 	ldrvs	r0, [r2], #-404	; 0x194
    1174:	1e000004 	cdpne	0, 0, cr0, cr0, cr4, {0}
    1178:	00550102 	subseq	r0, r5, r2, lsl #2
    117c:	23030000 	movwcs	r0, #12288	; 0x3000
    1180:	cb120198 	blgt	480668 <tz_ioctl+0x48041c>
    1184:	1e00002b 	cdpne	0, 0, cr0, cr0, cr11, {1}
    1188:	00550105 	subseq	r0, r5, r5, lsl #2
    118c:	23030000 	movwcs	r0, #12288	; 0x3000
    1190:	b412019c 	ldrlt	r0, [r2], #-412	; 0x19c
    1194:	1e000011 	mcrne	0, 0, r0, cr0, cr1, {0}
    1198:	1db40106 	ldfnes	f0, [r4, #24]!
    119c:	23030000 	movwcs	r0, #12288	; 0x3000
    11a0:	b01201a0 	andslt	r0, r2, r0, lsr #3
    11a4:	1e000026 	cdpne	0, 0, cr0, cr0, cr6, {1}
    11a8:	1dc30107 	stfnee	f0, [r3, #28]
    11ac:	23030000 	movwcs	r0, #12288	; 0x3000
    11b0:	9a1201a4 	bls	480698 <tz_ioctl+0x48044c>
    11b4:	1e000016 	mcrne	0, 0, r0, cr0, cr6, {0}
    11b8:	1db40116 	ldfnes	f0, [r4, #88]!	; 0x58
    11bc:	23030000 	movwcs	r0, #12288	; 0x3000
    11c0:	b81201a8 	ldmdalt	r2, {r3, r5, r7, r8}
    11c4:	1e00002a 	cdpne	0, 0, cr0, cr0, cr10, {1}
    11c8:	1dc30117 	stfnee	f0, [r3, #92]	; 0x5c
    11cc:	23030000 	movwcs	r0, #12288	; 0x3000
    11d0:	a21201ac 	andsge	r0, r2, #43	; 0x2b
    11d4:	1e000010 	mcrne	0, 0, r0, cr0, cr0, {0}
    11d8:	00550118 	subseq	r0, r5, r8, lsl r1
    11dc:	23030000 	movwcs	r0, #12288	; 0x3000
    11e0:	da1201b0 	ble	4806c8 <tz_ioctl+0x48047c>
    11e4:	1e000016 	mcrne	0, 0, r0, cr0, cr6, {0}
    11e8:	0055011b 	subseq	r0, r5, fp, lsl r1
    11ec:	23030000 	movwcs	r0, #12288	; 0x3000
    11f0:	421201b4 	andsmi	r0, r2, #45	; 0x2d
    11f4:	1e000016 	mcrne	0, 0, r0, cr0, cr6, {0}
    11f8:	1df7011c 	ldfnee	f0, [r7, #112]!	; 0x70
    11fc:	23030000 	movwcs	r0, #12288	; 0x3000
    1200:	461201b8 	undefined instruction 0x461201b8
    1204:	1e00000e 	cdpne	0, 0, cr0, cr0, cr14, {0}
    1208:	005c011f 	subseq	r0, ip, pc, lsl r1
    120c:	23030000 	movwcs	r0, #12288	; 0x3000
    1210:	f81201bc 	undefined instruction 0xf81201bc
    1214:	1e00002c 	cdpne	0, 0, cr0, cr0, cr12, {1}
    1218:	03230122 	teqeq	r3, #-2147483640	; 0x80000008
    121c:	23030000 	movwcs	r0, #12288	; 0x3000
    1220:	191201c0 	ldmdbne	r2, {r6, r7, r8}
    1224:	1e00000e 	cdpne	0, 0, cr0, cr0, cr14, {0}
    1228:	03230125 	teqeq	r3, #1073741833	; 0x40000009
    122c:	23030000 	movwcs	r0, #12288	; 0x3000
    1230:	d31201c4 	tstle	r2, #49	; 0x31
    1234:	1e000029 	cdpne	0, 0, cr0, cr0, cr9, {1}
    1238:	00550128 	subseq	r0, r5, r8, lsr #2
    123c:	23030000 	movwcs	r0, #12288	; 0x3000
    1240:	791201c8 	ldmdbvc	r2, {r3, r6, r7, r8}
    1244:	1e000027 	cdpne	0, 0, cr0, cr0, cr7, {1}
    1248:	00550128 	subseq	r0, r5, r8, lsr #2
    124c:	23030000 	movwcs	r0, #12288	; 0x3000
    1250:	8c1201cc 	ldfhis	f0, [r2], {204}	; 0xcc
    1254:	1e000025 	cdpne	0, 0, cr0, cr0, cr5, {1}
    1258:	0055012b 	subseq	r0, r5, fp, lsr #2
    125c:	23030000 	movwcs	r0, #12288	; 0x3000
    1260:	e91201d0 	ldmdb	r2, {r4, r6, r7, r8}
    1264:	1e00002c 	cdpne	0, 0, cr0, cr0, cr12, {1}
    1268:	0055012b 	subseq	r0, r5, fp, lsr #2
    126c:	23030000 	movwcs	r0, #12288	; 0x3000
    1270:	251201d4 	ldrcs	r0, [r2, #-468]	; 0x1d4
    1274:	1e000022 	cdpne	0, 0, cr0, cr0, cr2, {1}
    1278:	1b84012e 	blne	fe101738 <tz_ioctl+0xfe1014ec>
    127c:	23030000 	movwcs	r0, #12288	; 0x3000
    1280:	1f1201d8 	svcne	0x001201d8
    1284:	1e000029 	cdpne	0, 0, cr0, cr0, cr9, {1}
    1288:	00550130 	subseq	r0, r5, r0, lsr r1
    128c:	23030000 	movwcs	r0, #12288	; 0x3000
    1290:	851201fc 	ldrhi	r0, [r2, #-508]	; 0x1fc
    1294:	1e00001b 	mcrne	0, 0, r0, cr0, cr11, {0}
    1298:	1dfd013f 	ldfnee	f0, [sp, #252]!	; 0xfc
    129c:	23030000 	movwcs	r0, #12288	; 0x3000
    12a0:	22120280 	andscs	r0, r2, #8
    12a4:	1e00002a 	cdpne	0, 0, cr0, cr0, cr10, {1}
    12a8:	1dfd013f 	ldfnee	f0, [sp, #252]!	; 0xfc
    12ac:	23030000 	movwcs	r0, #12288	; 0x3000
    12b0:	b6120284 	ldrlt	r0, [r2], -r4, lsl #5
    12b4:	1e000020 	cdpne	0, 0, cr0, cr0, cr0, {1}
    12b8:	00550140 	subseq	r0, r5, r0, asr #2
    12bc:	23030000 	movwcs	r0, #12288	; 0x3000
    12c0:	fb120288 	blx	480a2a <tz_ioctl+0x4807de>
    12c4:	1e000010 	mcrne	0, 0, r0, cr0, cr0, {0}
    12c8:	00550140 	subseq	r0, r5, r0, asr #2
    12cc:	23030000 	movwcs	r0, #12288	; 0x3000
    12d0:	2912028c 	ldmdbcs	r2, {r2, r3, r7, r9}
    12d4:	1e000014 	mcrne	0, 0, r0, cr0, cr4, {0}
    12d8:	01630141 	cmneq	r3, r1, asr #2
    12dc:	23030000 	movwcs	r0, #12288	; 0x3000
    12e0:	2a120290 	bcs	480a48 <tz_ioctl+0x4807fc>
    12e4:	1e000022 	cdpne	0, 0, cr0, cr0, cr2, {1}
    12e8:	01630141 	cmneq	r3, r1, asr #2
    12ec:	23030000 	movwcs	r0, #12288	; 0x3000
    12f0:	db120294 	blle	480a58 <tz_ioctl+0x48080c>
    12f4:	1e000007 	cdpne	0, 0, cr0, cr0, cr7, {0}
    12f8:	1e090144 	adfneem	f0, f1, f4
    12fc:	23030000 	movwcs	r0, #12288	; 0x3000
    1300:	9d120298 	lfmls	f0, 4, [r2, #-608]	; (ldcls 2, cr0, [r2, #-608])	; 0xfffffda0
    1304:	1e000017 	mcrne	0, 0, r0, cr0, cr7, {0}
    1308:	1e150147 	mufnesm	f0, f5, f7
    130c:	23030000 	movwcs	r0, #12288	; 0x3000
    1310:	d112029c 	undefined instruction 0xd112029c
    1314:	1e00002c 	cdpne	0, 0, cr0, cr0, cr12, {1}
    1318:	0323014b 	teqeq	r3, #-1073741806	; 0xc0000012
    131c:	23030000 	movwcs	r0, #12288	; 0x3000
    1320:	ee1202a0 	cdp	2, 1, cr0, cr2, cr0, {5}
    1324:	1e000025 	cdpne	0, 0, cr0, cr0, cr5, {1}
    1328:	0163014f 	cmneq	r3, pc, asr #2
    132c:	23030000 	movwcs	r0, #12288	; 0x3000
    1330:	371202a4 	ldrcc	r0, [r2, -r4, lsr #5]
    1334:	1e000000 	cdpne	0, 0, cr0, cr0, cr0, {0}
    1338:	19880151 	stmibne	r8, {r0, r4, r6, r8}
    133c:	23030000 	movwcs	r0, #12288	; 0x3000
    1340:	791202a8 	ldmdbvc	r2, {r3, r5, r7, r9}
    1344:	1e00001c 	mcrne	0, 0, r0, cr0, cr12, {0}
    1348:	00550152 	subseq	r0, r5, r2, asr r1
    134c:	23030000 	movwcs	r0, #12288	; 0x3000
    1350:	0c1202ac 	lfmeq	f0, 4, [r2], {172}	; (ldceq 2, cr0, [r2], {172})	; 0xac
    1354:	1e000009 	cdpne	0, 0, cr0, cr0, cr9, {0}
    1358:	1e1b0156 	mrcne	1, 0, r0, cr11, cr6, {2}
    135c:	23030000 	movwcs	r0, #12288	; 0x3000
    1360:	cd1202b0 	lfmgt	f0, 4, [r2, #-704]	; (ldcgt 2, cr0, [r2, #-704])	; 0xfffffd40
    1364:	1e000012 	mcrne	0, 0, r0, cr0, cr2, {0}
    1368:	00550157 	subseq	r0, r5, r7, asr r1
    136c:	23030000 	movwcs	r0, #12288	; 0x3000
    1370:	391202b4 	ldmdbcc	r2, {r2, r4, r5, r7, r9}
    1374:	1e000028 	cdpne	0, 0, cr0, cr0, cr8, {1}
    1378:	1e27015a 	mcrne	1, 1, r0, cr7, cr10, {2}
    137c:	23030000 	movwcs	r0, #12288	; 0x3000
    1380:	761202b8 	undefined instruction 0x761202b8
    1384:	1e000011 	mcrne	0, 0, r0, cr0, cr1, {0}
    1388:	0055015b 	subseq	r0, r5, fp, asr r1
    138c:	23030000 	movwcs	r0, #12288	; 0x3000
    1390:	841202bc 	ldrhi	r0, [r2], #-700	; 0x2bc
    1394:	1e000004 	cdpne	0, 0, cr0, cr0, cr4, {0}
    1398:	029f0164 	addseq	r0, pc, #25
    139c:	23030000 	movwcs	r0, #12288	; 0x3000
    13a0:	951202c0 	ldrls	r0, [r2, #-704]	; 0x2c0
    13a4:	1e00001b 	mcrne	0, 0, r0, cr0, cr11, {0}
    13a8:	08130167 	ldmdaeq	r3, {r0, r1, r2, r5, r6, r8}
    13ac:	23030000 	movwcs	r0, #12288	; 0x3000
    13b0:	071202c8 	ldreq	r0, [r2, -r8, asr #5]
    13b4:	1e000010 	mcrne	0, 0, r0, cr0, cr0, {0}
    13b8:	006f016a 	rsbeq	r0, pc, sl, ror #2
    13bc:	23030000 	movwcs	r0, #12288	; 0x3000
    13c0:	722302cc 	eorvc	r0, r3, #-1073741812	; 0xc000000c
    13c4:	1e006665 	cfmadd32ne	mvax3, mvfx6, mvfx0, mvfx5
    13c8:	1b79016f 	blne	1e4198c <tz_ioctl+0x1e41740>
    13cc:	23030000 	movwcs	r0, #12288	; 0x3000
    13d0:	591202d0 	ldmdbpl	r2, {r4, r6, r7, r9}
    13d4:	1e000015 	mcrne	0, 0, r0, cr0, cr5, {0}
    13d8:	1e2d0175 	mcrne	1, 1, r0, cr13, cr5, {3}
    13dc:	23030000 	movwcs	r0, #12288	; 0x3000
    13e0:	621202d4 	andsvs	r0, r2, #1073741837	; 0x4000000d
    13e4:	1e000024 	cdpne	0, 0, cr0, cr0, cr4, {1}
    13e8:	00550176 	subseq	r0, r5, r6, ror r1
    13ec:	23030000 	movwcs	r0, #12288	; 0x3000
    13f0:	060002d8 	undefined instruction 0x060002d8
    13f4:	0010b704 	andseq	fp, r0, r4, lsl #14
    13f8:	0ff21000 	svceq	0x00f21000
    13fc:	1d0c0000 	stcne	0, cr0, [ip]
    1400:	00143022 	andseq	r3, r4, r2, lsr #32
    1404:	17ed0e00 	strbne	r0, [sp, r0, lsl #28]!
    1408:	231d0000 	tstcs	sp, #0
    140c:	00000043 	andeq	r0, r0, r3, asr #32
    1410:	0e002302 	cdpeq	3, 0, cr2, cr0, cr2, {0}
    1414:	000027df 	ldrdeq	r2, [r0], -pc
    1418:	1519241d 	ldrne	r2, [r9, #-1053]	; 0x41d
    141c:	23020000 	movwcs	r0, #8192	; 0x2000
    1420:	0f1a0e04 	svceq	0x001a0e04
    1424:	261d0000 	ldrcs	r0, [sp], -r0
    1428:	0000151f 	andeq	r1, r0, pc, lsl r5
    142c:	00082302 	andeq	r2, r8, r2, lsl #6
    1430:	01a0011a 	lsleq	r0, sl, r1
    1434:	144a0000 	strbne	r0, [sl]
    1438:	4a1b0000 	bmi	6c1440 <tz_ioctl+0x6c11f4>
    143c:	1b000014 	blne	1494 <.debug_info+0x1494>
    1440:	00001513 	andeq	r1, r0, r3, lsl r5
    1444:	0000681b 	andeq	r6, r0, fp, lsl r8
    1448:	04060000 	streq	r0, [r6]
    144c:	00001450 	andeq	r1, r0, r0, asr r4
    1450:	0013ef10 	andseq	lr, r3, r0, lsl pc
    1454:	141d2400 	ldrne	r2, [sp], #-1024	; 0x400
    1458:	00001513 	andeq	r1, r0, r3, lsl r5
    145c:	0017ed0e 	andseq	lr, r7, lr, lsl #26
    1460:	433c1f00 	teqmi	ip, #0
    1464:	02000000 	andeq	r0, r0, #0
    1468:	c90e0023 	stmdbgt	lr, {r0, r1, r5}
    146c:	1f00001f 	svcne	0x0000001f
    1470:	00029f3d 	andeq	r9, r2, sp, lsr pc
    1474:	04230200 	strteq	r0, [r3], #-512	; 0x200
    1478:	0028ae0e 	eoreq	sl, r8, lr, lsl #28
    147c:	4a3e1f00 	bmi	f89084 <tz_ioctl+0xf88e38>
    1480:	02000014 	andeq	r0, r0, #20
    1484:	da0e0c23 	ble	383094 <tz_ioctl+0x382e48>
    1488:	1f00001f 	svcne	0x0000001f
    148c:	0015ff3f 	andseq	pc, r5, pc, lsr pc
    1490:	10230200 	eorne	r0, r3, r0, lsl #4
    1494:	002aeb0e 	eoreq	lr, sl, lr, lsl #22
    1498:	3c401f00 	mcrrcc	15, 0, r1, r0, cr0
    149c:	02000016 	andeq	r0, r0, #22
    14a0:	73141423 	tstvc	r4, #587202560	; 0x23000000
    14a4:	411f0064 	tstmi	pc, r4, rrx
    14a8:	00001648 	andeq	r1, r0, r8, asr #12
    14ac:	0e182302 	cdpeq	3, 1, cr2, cr8, cr2, {0}
    14b0:	00001b45 	andeq	r1, r0, r5, asr #22
    14b4:	159f421f 	ldrne	r4, [pc, #543]	; 16db <.debug_info+0x16db>
    14b8:	23020000 	movwcs	r0, #8192	; 0x2000
    14bc:	1508261c 	strne	r2, [r8, #-1564]	; 0x61c
    14c0:	431f0000 	tstmi	pc, #0
    14c4:	00000055 	andeq	r0, r0, r5, asr r0
    14c8:	021f0104 	andseq	r0, pc, #1
    14cc:	f1262023 	undefined instruction 0xf1262023
    14d0:	1f000008 	svcne	0x00000008
    14d4:	00005544 	andeq	r5, r0, r4, asr #10
    14d8:	1e010400 	cfcpysne	mvf0, mvf1
    14dc:	26202302 	strtcs	r2, [r0], -r2, lsl #6
    14e0:	00002e89 	andeq	r2, r0, r9, lsl #29
    14e4:	0055451f 	subseq	r4, r5, pc, lsl r5
    14e8:	01040000 	tsteq	r4, r0
    14ec:	2023021d 	eorcs	r0, r3, sp, lsl r2
    14f0:	0003cc26 	andeq	ip, r3, r6, lsr #24
    14f4:	55461f00 	strbpl	r1, [r6, #-3840]	; 0xf00
    14f8:	04000000 	streq	r0, [r0]
    14fc:	23021c01 	movwcs	r1, #11265	; 0x2c01
    1500:	28d72620 	ldmcs	r7, {r5, r9, sl, sp}^
    1504:	471f0000 	ldrmi	r0, [pc, -r0]
    1508:	00000055 	andeq	r0, r0, r5, asr r0
    150c:	021b0104 	andseq	r0, fp, #1
    1510:	06002023 	streq	r2, [r0], -r3, lsr #32
    1514:	00108004 	andseq	r8, r0, r4
    1518:	30040600 	andcc	r0, r4, r0, lsl #12
    151c:	06000014 	undefined instruction 0x06000014
    1520:	00151304 	andseq	r1, r5, r4, lsl #6
    1524:	2b040600 	blcs	102d2c <tz_ioctl+0x102ae0>
    1528:	15000015 	strne	r0, [r0, #-21]
    152c:	0000254e 	andeq	r2, r0, lr, asr #10
    1530:	09b31001 	ldmibeq	r3!, {r0, ip}
    1534:	1d080000 	stcne	0, cr0, [r8]
    1538:	00155a4d 	andseq	r5, r5, sp, asr #20
    153c:	02f40e00 	rscseq	r0, r4, #0
    1540:	4e1d0000 	cdpmi	0, 1, cr0, cr13, cr0, {0}
    1544:	00001574 	andeq	r1, r0, r4, ror r5
    1548:	0e002302 	cdpeq	3, 0, cr2, cr0, cr2, {0}
    154c:	00002b32 	andeq	r2, r0, r2, lsr fp
    1550:	15994f1d 	ldrne	r4, [r9, #3869]	; 0xf1d
    1554:	23020000 	movwcs	r0, #8192	; 0x2000
    1558:	011a0004 	tsteq	sl, r4
    155c:	000001f4 	strdeq	r0, [r0], -r4
    1560:	00001574 	andeq	r1, r0, r4, ror r5
    1564:	00144a1b 	andseq	r4, r4, fp, lsl sl
    1568:	15131b00 	ldrne	r1, [r3, #-2816]	; 0xb00
    156c:	631b0000 	tstvs	fp, #0
    1570:	00000001 	andeq	r0, r0, r1
    1574:	155a0406 	ldrbne	r0, [sl, #-1030]	; 0x406
    1578:	011a0000 	tsteq	sl, r0
    157c:	000001f4 	strdeq	r0, [r0], -r4
    1580:	00001599 	muleq	r0, r9, r5
    1584:	00144a1b 	andseq	r4, r4, fp, lsl sl
    1588:	15131b00 	ldrne	r1, [r3, #-2816]	; 0xb00
    158c:	431b0000 	tstmi	fp, #0
    1590:	1b000000 	blne	1598 <.debug_info+0x1598>
    1594:	000001e9 	andeq	r0, r0, r9, ror #3
    1598:	7a040600 	bvc	102da0 <tz_ioctl+0x102b54>
    159c:	10000015 	andne	r0, r0, r5, lsl r0
    15a0:	00001b45 	andeq	r1, r0, r5, asr #22
    15a4:	ba142004 	blt	5095bc <tz_ioctl+0x509370>
    15a8:	0e000015 	mcreq	0, 0, r0, cr0, cr5, {0}
    15ac:	0000148d 	andeq	r1, r0, sp, lsl #9
    15b0:	02941520 	addseq	r1, r4, #134217728	; 0x8000000
    15b4:	23020000 	movwcs	r0, #8192	; 0x2000
    15b8:	da100000 	ble	400008 <tz_ioctl+0x3ffdbc>
    15bc:	4000001f 	andmi	r0, r0, pc, lsl r0
    15c0:	15ff3f1f 	ldrbne	r3, [pc, #3871]!	; 24e7 <.debug_info+0x24e7>
    15c4:	ea0e0000 	b	380008 <tz_ioctl+0x37fdbc>
    15c8:	1f000013 	svcne	0x00000013
    15cc:	00029f9b 	muleq	r2, fp, pc
    15d0:	00230200 	eoreq	r0, r3, r0, lsl #4
    15d4:	0022670e 	eoreq	r6, r2, lr, lsl #14
    15d8:	b59c1f00 	ldrlt	r1, [ip, #3840]	; 0xf00
    15dc:	02000008 	andeq	r0, r0, #8
    15e0:	8d0e0823 	stchi	8, cr0, [lr, #-140]	; 0xffffff74
    15e4:	1f00000b 	svcne	0x0000000b
    15e8:	0014509d 	mulseq	r4, sp, r0
    15ec:	18230200 	stmdane	r3!, {r9}
    15f0:	00161c0e 	andseq	r1, r6, lr, lsl #24
    15f4:	639e1f00 	orrsvs	r1, lr, #0
    15f8:	02000017 	andeq	r0, r0, #23
    15fc:	06003c23 	streq	r3, [r0], -r3, lsr #24
    1600:	0015ba04 	andseq	fp, r5, r4, lsl #20
    1604:	1f871000 	svcne	0x00871000
    1608:	1f0c0000 	svcne	0x000c0000
    160c:	00163c40 	andseq	r3, r6, r0, asr #24
    1610:	251a0e00 	ldrcs	r0, [sl, #-3584]	; 0xe00
    1614:	6c1f0000 	ldcvs	0, cr0, [pc], {0}
    1618:	0000165a 	andeq	r1, r0, sl, asr r6
    161c:	0e002302 	cdpeq	3, 0, cr2, cr0, cr2, {0}
    1620:	000009b3 	undefined instruction 0x000009b3
    1624:	16606d1f 	undefined instruction 0x16606d1f
    1628:	23020000 	movwcs	r0, #8192	; 0x2000
    162c:	155f0e04 	ldrbne	r0, [pc, #-3588]	; fffff204 <tz_ioctl+0xffffefb8>
    1630:	6e1f0000 	cdpvs	0, 1, cr0, cr15, cr0, {0}
    1634:	0000151f 	andeq	r1, r0, pc, lsl r5
    1638:	00082302 	andeq	r2, r8, r2, lsl #6
    163c:	16050406 	strne	r0, [r5], -r6, lsl #8
    1640:	1b150000 	blne	540008 <tz_ioctl+0x53fdbc>
    1644:	01000028 	tsteq	r0, r8, lsr #32
    1648:	16420406 	strbne	r0, [r2], -r6, lsl #8
    164c:	01210000 	teqeq	r1, r0
    1650:	0000165a 	andeq	r1, r0, sl, asr r6
    1654:	00144a1b 	andseq	r4, r4, fp, lsl sl
    1658:	04060000 	streq	r0, [r6]
    165c:	0000164e 	andeq	r1, r0, lr, asr #12
    1660:	15310406 	ldrne	r0, [r1, #-1030]!	; 0x406
    1664:	651c0000 	ldrvs	r0, [ip]
    1668:	88000029 	stmdahi	r0, {r0, r3, r5}
    166c:	af711f08 	svcge	0x00711f08
    1670:	0e000016 	mcreq	0, 0, r0, cr0, cr6, {0}
    1674:	000028a9 	andeq	r2, r0, r9, lsr #17
    1678:	16af721f 	ssatne	r7, #16, pc, lsl #4
    167c:	23020000 	movwcs	r0, #8192	; 0x2000
    1680:	1cf40e00 	ldclne	14, cr0, [r4]
    1684:	731f0000 	tstvc	pc, #0
    1688:	00000068 	andeq	r0, r0, r8, rrx
    168c:	01802303 	orreq	r2, r0, r3, lsl #6
    1690:	66756214 	undefined instruction 0x66756214
    1694:	bf741f00 	svclt	0x00741f00
    1698:	03000016 	movweq	r0, #22
    169c:	0e018423 	cdpeq	4, 0, cr8, cr1, cr3, {1}
    16a0:	00000ebf 	undefined instruction 0x00000ebf
    16a4:	0068751f 	rsbeq	r7, r8, pc, lsl r5
    16a8:	23030000 	movwcs	r0, #12288	; 0x3000
    16ac:	03001184 	movweq	r1, #388	; 0x184
    16b0:	00000163 	andeq	r0, r0, r3, ror #2
    16b4:	000016bf 	undefined instruction 0x000016bf
    16b8:	00004004 	andeq	r4, r0, r4
    16bc:	03001f00 	movweq	r1, #3840	; 0xf00
    16c0:	0000004e 	andeq	r0, r0, lr, asr #32
    16c4:	000016d0 	ldrdeq	r1, [r0], -r0
    16c8:	00004027 	andeq	r4, r0, r7, lsr #32
    16cc:	0007ff00 	andeq	pc, r7, r0, lsl #30
    16d0:	000e0910 	andeq	r0, lr, r0, lsl r9
    16d4:	781f0c00 	ldmdavc	pc, {sl, fp}
    16d8:	00001707 	andeq	r1, r0, r7, lsl #14
    16dc:	001bfa0e 	andseq	pc, fp, lr, lsl #20
    16e0:	1c791f00 	ldclne	15, cr1, [r9]
    16e4:	02000017 	andeq	r0, r0, #23
    16e8:	ed0e0023 	stc	0, cr0, [lr, #-140]	; 0xffffff74
    16ec:	1f000017 	svcne	0x00000017
    16f0:	0017377a 	andseq	r3, r7, sl, ror r7
    16f4:	04230200 	strteq	r0, [r3], #-512	; 0x200
    16f8:	0027d00e 	eoreq	sp, r7, lr
    16fc:	5d7b1f00 	ldclpl	15, cr1, [fp]
    1700:	02000017 	andeq	r0, r0, #23
    1704:	1a000823 	bne	3798 <.debug_info+0x3798>
    1708:	00006801 	andeq	r6, r0, r1, lsl #16
    170c:	00171c00 	andseq	r1, r7, r0, lsl #24
    1710:	15ff1b00 	ldrbne	r1, [pc, #2816]!	; 2218 <.debug_info+0x2218>
    1714:	4a1b0000 	bmi	6c171c <tz_ioctl+0x6c14d0>
    1718:	00000014 	andeq	r0, r0, r4, lsl r0
    171c:	17070406 	strne	r0, [r7, -r6, lsl #8]
    1720:	011a0000 	tsteq	sl, r0
    1724:	00000043 	andeq	r0, r0, r3, asr #32
    1728:	00001737 	andeq	r1, r0, r7, lsr r7
    172c:	0015ff1b 	andseq	pc, r5, fp, lsl pc
    1730:	144a1b00 	strbne	r1, [sl], #-2816	; 0xb00
    1734:	06000000 	streq	r0, [r0], -r0
    1738:	00172204 	andseq	r2, r7, r4, lsl #4
    173c:	68011a00 	stmdavs	r1, {r9, fp, ip}
    1740:	57000000 	strpl	r0, [r0, -r0]
    1744:	1b000017 	blne	17a8 <.debug_info+0x17a8>
    1748:	000015ff 	strdeq	r1, [r0], -pc
    174c:	00144a1b 	andseq	r4, r4, fp, lsl sl
    1750:	17571b00 	ldrbne	r1, [r7, -r0, lsl #22]
    1754:	06000000 	streq	r0, [r0], -r0
    1758:	00166604 	andseq	r6, r6, r4, lsl #12
    175c:	3d040600 	stccc	6, cr0, [r4]
    1760:	06000017 	undefined instruction 0x06000017
    1764:	0016d004 	andseq	sp, r6, r4
    1768:	170f0b00 	strne	r0, [pc, -r0, lsl #22]
    176c:	23210000 	teqcs	r1, #0
    1770:	00001774 	andeq	r1, r0, r4, ror r7
    1774:	177a0406 	ldrbne	r0, [sl, -r6, lsl #8]!
    1778:	011a0000 	tsteq	sl, r0
    177c:	00000068 	andeq	r0, r0, r8, rrx
    1780:	0000178f 	andeq	r1, r0, pc, lsl #15
    1784:	0000431b 	andeq	r4, r0, fp, lsl r3
    1788:	178f1b00 	strne	r1, [pc, r0, lsl #22]
    178c:	06000000 	streq	r0, [r0], -r0
    1790:	00179504 	andseq	r9, r7, r4, lsl #10
    1794:	1bbb1000 	blne	feec4008 <tz_ioctl+0xfeec3dbc>
    1798:	21140000 	tstcs	r4, r0
    179c:	0017f020 	andseq	pc, r7, r0, lsr #32
    17a0:	17ed0e00 	strbne	r0, [sp, r0, lsl #28]!
    17a4:	2b210000 	blcs	8417ac <tz_ioctl+0x841560>
    17a8:	00000043 	andeq	r0, r0, r3, asr #32
    17ac:	0e002302 	cdpeq	3, 0, cr2, cr0, cr2, {0}
    17b0:	00002d0d 	andeq	r2, r0, sp, lsl #26
    17b4:	00f92c21 	rscseq	r2, r9, r1, lsr #24
    17b8:	23020000 	movwcs	r0, #8192	; 0x2000
    17bc:	30430e04 	subcc	r0, r3, r4, lsl #28
    17c0:	2d210000 	stccs	0, cr0, [r1]
    17c4:	000000f9 	strdeq	r0, [r0], -r9
    17c8:	14062302 	strne	r2, [r6], #-770	; 0x302
    17cc:	00746573 	rsbseq	r6, r4, r3, ror r5
    17d0:	17692e21 	strbne	r2, [r9, -r1, lsr #28]!
    17d4:	23020000 	movwcs	r0, #8192	; 0x2000
    17d8:	65671408 	strbvs	r1, [r7, #-1032]!	; 0x408
    17dc:	2f210074 	svccs	0x00210074
    17e0:	000017f0 	strdeq	r1, [r0], -r0
    17e4:	190c2302 	stmdbne	ip, {r1, r8, r9, sp}
    17e8:	00001816 	andeq	r1, r0, r6, lsl r8
    17ec:	00102302 	andseq	r2, r0, r2, lsl #6
    17f0:	002bdf0b 	eoreq	sp, fp, fp, lsl #30
    17f4:	fb252100 	blx	949bfe <tz_ioctl+0x9499b2>
    17f8:	06000017 	undefined instruction 0x06000017
    17fc:	00180104 	andseq	r0, r8, r4, lsl #2
    1800:	68011a00 	stmdavs	r1, {r9, fp, ip}
    1804:	16000000 	strne	r0, [r0], -r0
    1808:	1b000018 	blne	1870 <.debug_info+0x1870>
    180c:	00000163 	andeq	r0, r0, r3, ror #2
    1810:	00178f1b 	andseq	r8, r7, fp, lsl pc
    1814:	04160000 	ldreq	r0, [r6]
    1818:	18403021 	stmdane	r0, {r0, r5, ip, sp}^
    181c:	61280000 	teqvs	r8, r0
    1820:	21006772 	tstcs	r0, r2, ror r7
    1824:	00032331 	andeq	r2, r3, r1, lsr r3
    1828:	74732800 	ldrbtvc	r2, [r3], #-2048	; 0x800
    182c:	32210072 	eorcc	r0, r1, #114	; 0x72
    1830:	00001869 	andeq	r1, r0, r9, ror #16
    1834:	72726128 	rsbsvc	r6, r2, #10
    1838:	d9332100 	ldmdble	r3!, {r8, sp}
    183c:	00000018 	andeq	r0, r0, r8, lsl r0
    1840:	0028fb10 	eoreq	pc, r8, r0, lsl fp
    1844:	32210800 	eorcc	r0, r1, #0
    1848:	00001869 	andeq	r1, r0, r9, ror #16
    184c:	002a2e0e 	eoreq	r2, sl, lr, lsl #28
    1850:	55392100 	ldrpl	r2, [r9, #-256]!	; 0x100
    1854:	02000000 	andeq	r0, r0, #0
    1858:	4a0e0023 	bmi	380094 <tz_ioctl+0x37fe48>
    185c:	2100001b 	tstcs	r0, fp, lsl r0
    1860:	0001633a 	andeq	r6, r1, sl, lsr r3
    1864:	04230200 	strteq	r0, [r3], #-512	; 0x200
    1868:	6f040600 	svcvs	0x00040600
    186c:	29000018 	stmdbcs	r0, {r3, r4}
    1870:	000028fb 	strdeq	r2, [r0], -fp
    1874:	00001840 	andeq	r1, r0, r0, asr #16
    1878:	000d2810 	andeq	r2, sp, r0, lsl r8
    187c:	33211800 	teqcc	r1, #0
    1880:	000018d9 	ldrdeq	r1, [r0], -r9
    1884:	78616d14 	stmdavc	r1!, {r2, r4, r8, sl, fp, sp, lr}^
    1888:	55402100 	strbpl	r2, [r0, #-256]	; 0x100
    188c:	02000000 	andeq	r0, r0, #0
    1890:	6e140023 	cdpvs	0, 1, cr0, cr4, cr3, {1}
    1894:	21006d75 	tstcs	r0, r5, ror sp
    1898:	0018e841 	andseq	lr, r8, r1, asr #16
    189c:	04230200 	strteq	r0, [r3], #-512	; 0x200
    18a0:	74657314 	strbtvc	r7, [r5], #-788	; 0x314
    18a4:	69422100 	stmdbvs	r2, {r8, sp}^
    18a8:	02000017 	andeq	r0, r0, #23
    18ac:	67140823 	ldrvs	r0, [r4, -r3, lsr #16]
    18b0:	21007465 	tstcs	r0, r5, ror #8
    18b4:	0017f043 	andseq	pc, r7, r3, asr #32
    18b8:	0c230200 	sfmeq	f0, 4, [r3]	; (stceq 2, cr0, [r3])
    18bc:	000d4b0e 	andeq	r4, sp, lr, lsl #22
    18c0:	55442100 	strbpl	r2, [r4, #-256]	; 0x100
    18c4:	02000000 	andeq	r0, r0, #0
    18c8:	9f0e1023 	svcls	0x000e1023
    18cc:	21000004 	tstcs	r0, r4
    18d0:	00032345 	andeq	r2, r3, r5, asr #6
    18d4:	14230200 	strtne	r0, [r3], #-512	; 0x200
    18d8:	df040600 	svcle	0x00040600
    18dc:	29000018 	stmdbcs	r0, {r3, r4}
    18e0:	00000d28 	andeq	r0, r0, r8, lsr #26
    18e4:	00001878 	andeq	r1, r0, r8, ror r8
    18e8:	00550406 	subseq	r0, r5, r6, lsl #8
    18ec:	a5100000 	ldrge	r0, [r0]
    18f0:	0800001b 	stmdaeq	r0, {r0, r1, r3, r4}
    18f4:	19173105 	ldmdbne	r7, {r0, r2, r8, ip, sp}
    18f8:	720e0000 	andvc	r0, lr, #0
    18fc:	05000003 	streq	r0, [r0, #-3]
    1900:	00191732 	andseq	r1, r9, r2, lsr r7
    1904:	00230200 	eoreq	r0, r3, r0, lsl #4
    1908:	001c740e 	andseq	r7, ip, lr, lsl #8
    190c:	29330500 	ldmdbcs	r3!, {r8, sl}
    1910:	02000019 	andeq	r0, r0, #25
    1914:	06000423 	streq	r0, [r0], -r3, lsr #8
    1918:	0018ee04 	andseq	lr, r8, r4, lsl #28
    191c:	29012100 	stmdbcs	r1, {r8, sp}
    1920:	1b000019 	blne	198c <.debug_info+0x198c>
    1924:	00001917 	andeq	r1, r0, r7, lsl r9
    1928:	1d040600 	stcne	6, cr0, [r4]
    192c:	10000019 	andne	r0, r0, r9, lsl r0
    1930:	00000aa1 	andeq	r0, r0, r1, lsr #21
    1934:	82152220 	andshi	r2, r5, #2
    1938:	0e000019 	mcreq	0, 0, r0, cr0, cr9, {0}
    193c:	000017ed 	andeq	r1, r0, sp, ror #15
    1940:	00431822 	subeq	r1, r3, r2, lsr #16
    1944:	23020000 	movwcs	r0, #8192	; 0x2000
    1948:	1b770e00 	blne	1dc3808 <tz_ioctl+0x1dc35bc>
    194c:	19220000 	stmdbne	r2!, {}
    1950:	00000068 	andeq	r0, r0, r8, rrx
    1954:	0e042302 	cdpeq	3, 0, cr2, cr4, cr2, {0}
    1958:	000019b0 	undefined instruction 0x000019b0
    195c:	006f1a22 	rsbeq	r1, pc, r2, lsr #20
    1960:	23020000 	movwcs	r0, #8192	; 0x2000
    1964:	01c80e08 	biceq	r0, r8, r8, lsl #28
    1968:	1b220000 	blne	881970 <tz_ioctl+0x881724>
    196c:	0000006f 	andeq	r0, r0, pc, rrx
    1970:	0e0c2302 	cdpeq	3, 0, cr2, cr12, cr2, {0}
    1974:	00001967 	andeq	r1, r0, r7, ror #18
    1978:	19821c22 	stmibne	r2, {r1, r5, sl, fp, ip}
    197c:	23020000 	movwcs	r0, #8192	; 0x2000
    1980:	04060010 	streq	r0, [r6], #-16
    1984:	00000323 	andeq	r0, r0, r3, lsr #6
    1988:	192f0406 	stmdbne	pc!, {r1, r2, sl}
    198c:	cf100000 	svcgt	0x00100000
    1990:	1400002d 	strne	r0, [r0], #-45	; 0x2d
    1994:	19e12502 	stmibne	r1!, {r1, r8, sl, sp}^
    1998:	080e0000 	stmdaeq	lr, {}
    199c:	0200001d 	andeq	r0, r0, #29
    19a0:	00198226 	andseq	r8, r9, r6, lsr #4
    19a4:	00230200 	eoreq	r0, r3, r0, lsl #4
    19a8:	0012380e 	andseq	r3, r2, lr, lsl #16
    19ac:	1f270200 	svcne	0x00270200
    19b0:	0200000a 	andeq	r0, r0, #10
    19b4:	fa0e0423 	blx	381094 <tz_ioctl+0x380e48>
    19b8:	02000021 	andeq	r0, r0, #33	; 0x21
    19bc:	00006828 	andeq	r6, r0, r8, lsr #16
    19c0:	08230200 	stmdaeq	r3!, {r9}
    19c4:	0028b50e 	eoreq	fp, r8, lr, lsl #10
    19c8:	55290200 	strpl	r0, [r9, #-512]!	; 0x200
    19cc:	02000000 	andeq	r0, r0, #0
    19d0:	110e0c23 	tstne	lr, r3, lsr #24
    19d4:	02000024 	andeq	r0, r0, #36	; 0x24
    19d8:	0000552a 	andeq	r5, r0, sl, lsr #10
    19dc:	10230200 	eorne	r0, r3, r0, lsl #4
    19e0:	08c91000 	stmiaeq	r9, {ip}^
    19e4:	022c0000 	eoreq	r0, ip, #0
    19e8:	001a4230 	andseq	r4, sl, r0, lsr r2
    19ec:	22670e00 	rsbcs	r0, r7, #0
    19f0:	31020000 	tstcc	r2, r0
    19f4:	000008b5 	undefined instruction 0x000008b5
    19f8:	0e002302 	cdpeq	3, 0, cr2, cr0, cr2, {0}
    19fc:	000023b0 	undefined instruction 0x000023b0
    1a00:	00293202 	eoreq	r3, r9, r2, lsl #4
    1a04:	23020000 	movwcs	r0, #8192	; 0x2000
    1a08:	05ec0e10 	strbeq	r0, [ip, #3600]!	; 0xe10
    1a0c:	33020000 	movwcc	r0, #8192	; 0x2000
    1a10:	0000029f 	muleq	r0, pc, r2
    1a14:	0e142302 	cdpeq	3, 1, cr2, cr4, cr2, {0}
    1a18:	00000a33 	andeq	r0, r0, r3, lsr sl
    1a1c:	090c3502 	stmdbeq	ip, {r1, r8, sl, ip, sp}
    1a20:	23020000 	movwcs	r0, #8192	; 0x2000
    1a24:	1c8f0e1c 	stcne	14, cr0, [pc], {28}
    1a28:	36020000 	strcc	r0, [r2], -r0
    1a2c:	0000090c 	andeq	r0, r0, ip, lsl #18
    1a30:	0e202302 	cdpeq	3, 2, cr2, cr0, cr2, {0}
    1a34:	00001b19 	andeq	r1, r0, r9, lsl fp
    1a38:	029f3702 	addseq	r3, pc, #524288	; 0x80000
    1a3c:	23020000 	movwcs	r0, #8192	; 0x2000
    1a40:	9e100024 	cdpls	0, 1, cr0, cr0, cr4, {1}
    1a44:	04000024 	streq	r0, [r0], #-36	; 0x24
    1a48:	1a5b4002 	bne	16d1a58 <tz_ioctl+0x16d180c>
    1a4c:	78140000 	ldmdavc	r4, {}
    1a50:	29410200 	stmdbcs	r1, {r9}^
    1a54:	02000000 	andeq	r0, r0, #0
    1a58:	10000023 	andne	r0, r0, r3, lsr #32
    1a5c:	000012b5 	undefined instruction 0x000012b5
    1a60:	646023a4 	strbtvs	r2, [r0], #-932	; 0x3a4
    1a64:	0e00001b 	mcreq	0, 0, r0, cr0, cr11, {0}
    1a68:	00003043 	andeq	r3, r0, r3, asr #32
    1a6c:	00294902 	eoreq	r4, r9, r2, lsl #18
    1a70:	23020000 	movwcs	r0, #8192	; 0x2000
    1a74:	109d0e00 	addsne	r0, sp, r0, lsl #28
    1a78:	4a020000 	bmi	81a80 <tz_ioctl+0x81834>
    1a7c:	00000068 	andeq	r0, r0, r8, rrx
    1a80:	0e042302 	cdpeq	3, 0, cr2, cr4, cr2, {0}
    1a84:	00002411 	andeq	r2, r0, r1, lsl r4
    1a88:	00684b02 	rsbeq	r4, r8, r2, lsl #22
    1a8c:	23020000 	movwcs	r0, #8192	; 0x2000
    1a90:	28b50e08 	ldmcs	r5!, {r3, r9, sl, fp}
    1a94:	4c020000 	stcmi	0, cr0, [r2], {0}
    1a98:	00000068 	andeq	r0, r0, r8, rrx
    1a9c:	140c2302 	strne	r2, [ip], #-770	; 0x302
    1aa0:	02006f6f 	andeq	r6, r0, #444	; 0x1bc
    1aa4:	001a424d 	andseq	r4, sl, sp, asr #4
    1aa8:	10230200 	eorne	r0, r3, r0, lsl #4
    1aac:	0009f20e 	andeq	pc, r9, lr, lsl #4
    1ab0:	e1530200 	cmp	r3, r0, lsl #4
    1ab4:	02000019 	andeq	r0, r0, #25
    1ab8:	6d141423 	cfldrsvs	mvf1, [r4, #-140]	; 0xffffff74
    1abc:	02007861 	andeq	r7, r0, #6356992	; 0x610000
    1ac0:	001a4256 	andseq	r4, sl, r6, asr r2
    1ac4:	40230200 	eormi	r0, r3, r0, lsl #4
    1ac8:	6e696d14 	mcrvs	13, 3, r6, cr9, cr4, {0}
    1acc:	42570200 	subsmi	r0, r7, #0
    1ad0:	0200001a 	andeq	r0, r0, #26
    1ad4:	9a0e4423 	bls	391094 <tz_ioctl+0x390e48>
    1ad8:	02000015 	andeq	r0, r0, #21
    1adc:	00024c58 	andeq	r4, r2, r8, asr ip
    1ae0:	48230200 	stmdami	r3!, {r9}
    1ae4:	00148d0e 	andseq	r8, r4, lr, lsl #26
    1ae8:	68590200 	ldmdavs	r9, {r9}^
    1aec:	02000000 	andeq	r0, r0, #0
    1af0:	430e4c23 	movwmi	r4, #60451	; 0xec23
    1af4:	02000003 	andeq	r0, r0, #3
    1af8:	000f265a 	andeq	r2, pc, sl, asr r6
    1afc:	50230200 	eorpl	r0, r3, r0, lsl #4
    1b00:	0000f20e 	andeq	pc, r0, lr, lsl #4
    1b04:	685b0200 	ldmdavs	fp, {r9}^
    1b08:	02000000 	andeq	r0, r0, #0
    1b0c:	0d0e5423 	cfstrseq	mvf5, [lr, #-140]	; 0xffffff74
    1b10:	0200000a 	andeq	r0, r0, #10
    1b14:	0000685c 	andeq	r6, r0, ip, asr r8
    1b18:	58230200 	stmdapl	r3!, {r9}
    1b1c:	001dbc0e 	andseq	fp, sp, lr, lsl #24
    1b20:	295d0200 	ldmdbcs	sp, {r9}^
    1b24:	02000000 	andeq	r0, r0, #0
    1b28:	ed0e5c23 	stc	12, cr5, [lr, #-140]	; 0xffffff74
    1b2c:	02000017 	andeq	r0, r0, #23
    1b30:	0000435e 	andeq	r4, r0, lr, asr r3
    1b34:	60230200 	eorvs	r0, r3, r0, lsl #4
    1b38:	0013ea0e 	andseq	lr, r3, lr, lsl #20
    1b3c:	9f5f0200 	svcls	0x005f0200
    1b40:	02000002 	andeq	r0, r0, #2
    1b44:	8d0e6423 	cfstrshi	mvf6, [lr, #-140]	; 0xffffff74
    1b48:	0200000b 	andeq	r0, r0, #11
    1b4c:	00145061 	andseq	r5, r4, r1, rrx
    1b50:	6c230200 	sfmvs	f0, 4, [r3]	; (stcvs 2, cr0, [r3])
    1b54:	001a990e 	andseq	r9, sl, lr, lsl #18
    1b58:	8e6e0200 	cdphi	2, 6, cr0, cr14, cr0, {0}
    1b5c:	03000019 	movweq	r0, #25
    1b60:	00019023 	andeq	r9, r1, r3, lsr #32
    1b64:	1624040d 	strtne	r0, [r4], -sp, lsl #8
    1b68:	00001b79 	andeq	r1, r0, r9, ror fp
    1b6c:	24006114 	strcs	r6, [r0], #-276	; 0x114
    1b70:	00090c17 	andeq	r0, r9, r7, lsl ip
    1b74:	00230200 	eoreq	r0, r3, r0, lsl #4
    1b78:	0a700b00 	beq	1c02c08 <tz_ioctl+0x1c029bc>
    1b7c:	18240000 	stmdane	r4!, {}
    1b80:	00001b64 	andeq	r1, r0, r4, ror #22
    1b84:	00224810 	eoreq	r4, r2, r0, lsl r8
    1b88:	0b252400 	bleq	94ab90 <tz_ioctl+0x94a944>
    1b8c:	00001c0f 	andeq	r1, r0, pc, lsl #24
    1b90:	0003e50e 	andeq	lr, r3, lr, lsl #10
    1b94:	0f0d2500 	svceq	0x000d2500
    1b98:	0200001c 	andeq	r0, r0, #28
    1b9c:	9a0e0023 	bls	380094 <tz_ioctl+0x37fe48>
    1ba0:	25000018 	strcs	r0, [r0, #-24]
    1ba4:	001c0f0e 	andseq	r0, ip, lr, lsl #30
    1ba8:	04230200 	strteq	r0, [r3], #-512	; 0x200
    1bac:	0014a60e 	andseq	sl, r4, lr, lsl #12
    1bb0:	0f0f2500 	svceq	0x000f2500
    1bb4:	0200001c 	andeq	r0, r0, #28
    1bb8:	f30e0823 	vsub.i8	d0, d14, d19
    1bbc:	25000025 	strcs	r0, [r0, #-37]	; 0x25
    1bc0:	001c0f10 	andseq	r0, ip, r0, lsl pc
    1bc4:	0c230200 	sfmeq	f0, 4, [r3]	; (stceq 2, cr0, [r3])
    1bc8:	0029ed0e 	eoreq	lr, r9, lr, lsl #26
    1bcc:	0f112500 	svceq	0x00112500
    1bd0:	0200001c 	andeq	r0, r0, #28
    1bd4:	910e1023 	tstls	lr, r3, lsr #32
    1bd8:	25000007 	strcs	r0, [r0, #-7]
    1bdc:	001c0f12 	andseq	r0, ip, r2, lsl pc
    1be0:	14230200 	strtne	r0, [r3], #-512	; 0x200
    1be4:	002dc30e 	eoreq	ip, sp, lr, lsl #6
    1be8:	1b132500 	blne	4caff0 <tz_ioctl+0x4cada4>
    1bec:	0200001c 	andeq	r0, r0, #28
    1bf0:	2e0e1823 	cdpcs	8, 0, cr1, cr14, cr3, {1}
    1bf4:	2500002f 	strcs	r0, [r0, #-47]	; 0x2f
    1bf8:	001c1b14 	andseq	r1, ip, r4, lsl fp
    1bfc:	1c230200 	sfmne	f0, 4, [r3]	; (stcne 2, cr0, [r3])
    1c00:	000e8c0e 	andeq	r8, lr, lr, lsl #24
    1c04:	1b152500 	blne	54b00c <tz_ioctl+0x54adc0>
    1c08:	0200001c 	andeq	r0, r0, #28
    1c0c:	06002023 	streq	r2, [r0], -r3, lsr #32
    1c10:	00107404 	andseq	r7, r0, r4, lsl #8
    1c14:	1b6a1500 	blne	1a85408 <tz_ioctl+0x1a851bc>
    1c18:	06010000 	streq	r0, [r1], -r0
    1c1c:	001c1504 	andseq	r1, ip, r4, lsl #10
    1c20:	190a1000 	stmdbne	sl, {ip}
    1c24:	1e080000 	cdpne	0, 0, cr0, cr8, cr0, {0}
    1c28:	001c4a24 	andseq	r4, ip, r4, lsr #20
    1c2c:	0f7d0e00 	svceq	0x007d0e00
    1c30:	251e0000 	ldrcs	r0, [lr]
    1c34:	00000029 	andeq	r0, r0, r9, lsr #32
    1c38:	0e002302 	cdpeq	3, 0, cr2, cr0, cr2, {0}
    1c3c:	000017ed 	andeq	r1, r0, sp, ror #15
    1c40:	0043261e 	subeq	r2, r3, lr, lsl r6
    1c44:	23020000 	movwcs	r0, #8192	; 0x2000
    1c48:	4e030004 	cdpmi	0, 0, cr0, cr3, cr4, {0}
    1c4c:	5a000000 	bpl	1c54 <.debug_info+0x1c54>
    1c50:	0400001c 	streq	r0, [r0], #-28
    1c54:	00000040 	andeq	r0, r0, r0, asr #32
    1c58:	e310003b 	tst	r0, #59	; 0x3b
    1c5c:	2000002e 	andcs	r0, r0, lr, lsr #32
    1c60:	1cbb311e 	ldfnes	f3, [fp], #120	; 0x78
    1c64:	440e0000 	strmi	r0, [lr]
    1c68:	1e000009 	cdpne	0, 0, cr0, cr0, cr9, {0}
    1c6c:	00108032 	andseq	r8, r0, r2, lsr r0
    1c70:	00230200 	eoreq	r0, r3, r0, lsl #4
    1c74:	0002f40e 	andeq	pc, r2, lr, lsl #8
    1c78:	db331e00 	blle	cc9480 <tz_ioctl+0xcc9234>
    1c7c:	0200001c 	andeq	r0, r0, #28
    1c80:	320e0c23 	andcc	r0, lr, #8960	; 0x2300
    1c84:	1e00002b 	cdpne	0, 0, cr0, cr0, cr11, {1}
    1c88:	001d0034 	andseq	r0, sp, r4, lsr r0
    1c8c:	10230200 	eorne	r0, r3, r0, lsl #4
    1c90:	0025c10e 	eoreq	ip, r5, lr, lsl #2
    1c94:	17361e00 	ldrne	r1, [r6, -r0, lsl #28]!
    1c98:	0200001d 	andeq	r0, r0, #29
    1c9c:	dd0e1423 	cfstrsle	mvf1, [lr, #-140]	; 0xffffff74
    1ca0:	1e00000f 	cdpne	0, 0, cr0, cr0, cr15, {0}
    1ca4:	001d2d37 	andseq	r2, sp, r7, lsr sp
    1ca8:	18230200 	stmdane	r3!, {r9}
    1cac:	0007d00e 	andeq	sp, r7, lr
    1cb0:	3f381e00 	svccc	0x00381e00
    1cb4:	0200001d 	andeq	r0, r0, #29
    1cb8:	1a001c23 	bne	8d4c <tz_ioctl+0x8b00>
    1cbc:	0001f401 	andeq	pc, r1, r1, lsl #8
    1cc0:	001cd500 	andseq	sp, ip, r0, lsl #10
    1cc4:	1cd51b00 	vldmiane	r5, {d17-d16}
    1cc8:	f31b0000 	vhadd.u16	d0, d11, d0
    1ccc:	1b000013 	blne	1d20 <.debug_info+0x1d20>
    1cd0:	00000163 	andeq	r0, r0, r3, ror #2
    1cd4:	5a040600 	bpl	1034dc <tz_ioctl+0x103290>
    1cd8:	0600001c 	undefined instruction 0x0600001c
    1cdc:	001cbb04 	andseq	fp, ip, r4, lsl #22
    1ce0:	f4011a00 	vst1.8	{d1-d2}, [r1], r0
    1ce4:	00000001 	andeq	r0, r0, r1
    1ce8:	1b00001d 	blne	1d64 <.debug_info+0x1d64>
    1cec:	00001cd5 	ldrdeq	r1, [r0], -r5
    1cf0:	0013f31b 	andseq	pc, r3, fp, lsl r3
    1cf4:	00431b00 	subeq	r1, r3, r0, lsl #22
    1cf8:	e91b0000 	ldmdb	fp, {}
    1cfc:	00000001 	andeq	r0, r0, r1
    1d00:	1ce10406 	cfstrdne	mvd0, [r1], #24
    1d04:	01210000 	teqeq	r1, r0
    1d08:	00001d17 	andeq	r1, r0, r7, lsl sp
    1d0c:	0013f31b 	andseq	pc, r3, fp, lsl r3
    1d10:	00431b00 	subeq	r1, r3, r0, lsl #22
    1d14:	06000000 	streq	r0, [r0], -r0
    1d18:	001d0604 	andseq	r0, sp, r4, lsl #12
    1d1c:	68011a00 	stmdavs	r1, {r9, fp, ip}
    1d20:	2d000000 	stccs	0, cr0, [r0]
    1d24:	1b00001d 	blne	1da0 <.debug_info+0x1da0>
    1d28:	000013f3 	strdeq	r1, [r0], -r3
    1d2c:	1d040600 	stcne	6, cr0, [r4]
    1d30:	2100001d 	tstcs	r0, sp, lsl r0
    1d34:	001d3f01 	andseq	r3, sp, r1, lsl #30
    1d38:	13f31b00 	mvnsne	r1, #0
    1d3c:	06000000 	streq	r0, [r0], -r0
    1d40:	001d3304 	andseq	r3, sp, r4, lsl #6
    1d44:	0f831000 	svceq	0x00831000
    1d48:	1e300000 	cdpne	0, 3, cr0, cr0, cr0, {0}
    1d4c:	001d893c 	andseq	r8, sp, ip, lsr r9
    1d50:	0b8d0e00 	bleq	fe343808 <tz_ioctl+0xfe3435bc>
    1d54:	3d1e0000 	ldccc	0, cr0, [lr]
    1d58:	00001450 	andeq	r1, r0, r0, asr r4
    1d5c:	14002302 	strne	r2, [r0], #-770	; 0x302
    1d60:	00646f6d 	rsbeq	r6, r4, sp, ror #30
    1d64:	13f33e1e 	mvnsne	r3, #480	; 0x1e0
    1d68:	23020000 	movwcs	r0, #8192	; 0x2000
    1d6c:	0f2d0e24 	svceq	0x002d0e24
    1d70:	3f1e0000 	svccc	0x001e0000
    1d74:	0000144a 	andeq	r1, r0, sl, asr #8
    1d78:	14282302 	strtne	r2, [r8], #-770	; 0x302
    1d7c:	1e00706d 	cdpne	0, 0, cr7, cr0, cr13, {3}
    1d80:	001d8f40 	andseq	r8, sp, r0, asr #30
    1d84:	2c230200 	sfmcs	f0, 4, [r3]	; (stccs 2, cr0, [r3])
    1d88:	2e1a1500 	cfmul32cs	mvfx1, mvfx10, mvfx0
    1d8c:	06010000 	streq	r0, [r1], -r0
    1d90:	001d8904 	andseq	r8, sp, r4, lsl #18
    1d94:	0b742a00 	bleq	1d0a808 <tz_ioctl+0x1d0a5bc>
    1d98:	1e040000 	cdpne	0, 0, cr0, cr4, cr0, {0}
    1d9c:	001db4e4 	andseq	fp, sp, r4, ror #9
    1da0:	18f82b00 	ldmne	r8!, {r8, r9, fp, sp}^
    1da4:	2b000000 	blcs	1dac <.debug_info+0x1dac>
    1da8:	00002ca8 	andeq	r2, r0, r8, lsr #25
    1dac:	10672b01 	rsbne	r2, r7, r1, lsl #22
    1db0:	00020000 	andeq	r0, r2, r0
    1db4:	1dba0406 	cfldrsne	mvf0, [sl, #24]!
    1db8:	0a290000 	beq	a40008 <tz_ioctl+0xa3fdbc>
    1dbc:	21000019 	tstcs	r0, r9, lsl r0
    1dc0:	0600001c 	undefined instruction 0x0600001c
    1dc4:	001dc904 	andseq	ip, sp, r4, lsl #18
    1dc8:	00290700 	eoreq	r0, r9, r0, lsl #14
    1dcc:	5e100000 	cdppl	0, 1, cr0, cr0, cr0, {0}
    1dd0:	0800001e 	stmdaeq	r0, {r1, r2, r3, r4}
    1dd4:	1df7481e 	ldclne	8, cr4, [r7, #120]!	; 0x78
    1dd8:	390e0000 	stmdbcc	lr, {}
    1ddc:	07000015 	smladeq	r0, r5, r0, r0
    1de0:	00002928 	andeq	r2, r0, r8, lsr #18
    1de4:	00230200 	eoreq	r0, r3, r0, lsl #4
    1de8:	000c6b0e 	andeq	r6, ip, lr, lsl #22
    1dec:	29280700 	stmdbcs	r8!, {r8, r9, sl}
    1df0:	02000000 	andeq	r0, r0, #0
    1df4:	06000423 	streq	r0, [r0], -r3, lsr #8
    1df8:	001dce04 	andseq	ip, sp, r4, lsl #28
    1dfc:	c9040600 	stmdbgt	r4, {r9, sl}
    1e00:	1500000f 	strne	r0, [r0, #-15]
    1e04:	0000212b 	andeq	r2, r0, fp, lsr #2
    1e08:	03040601 	movweq	r0, #17921	; 0x4601
    1e0c:	1500001e 	strne	r0, [r0, #-30]
    1e10:	00000500 	andeq	r0, r0, r0, lsl #10
    1e14:	0f040601 	svceq	0x00040601
    1e18:	0600001e 	undefined instruction 0x0600001e
    1e1c:	00004304 	andeq	r4, r0, r4, lsl #6
    1e20:	03aa1500 	undefined instruction 0x03aa1500
    1e24:	06010000 	streq	r0, [r1], -r0
    1e28:	001e2104 	andseq	r2, lr, r4, lsl #2
    1e2c:	77040600 	strvc	r0, [r4, -r0, lsl #12]
    1e30:	10000000 	andne	r0, r0, r0
    1e34:	00001736 	andeq	r1, r0, r6, lsr r7
    1e38:	6a21260c 	bvs	84b670 <tz_ioctl+0x84b424>
    1e3c:	0e00001e 	mcreq	0, 0, r0, cr0, cr14, {0}
    1e40:	000021e6 	andeq	r2, r0, r6, ror #3
    1e44:	00552226 	subseq	r2, r5, r6, lsr #4
    1e48:	23020000 	movwcs	r0, #8192	; 0x2000
    1e4c:	656c1400 	strbvs	r1, [ip, #-1024]!	; 0x400
    1e50:	2326006e 	teqcs	r6, #110	; 0x6e
    1e54:	00000055 	andeq	r0, r0, r5, asr r0
    1e58:	0e042302 	cdpeq	3, 0, cr2, cr4, cr2, {0}
    1e5c:	000017ed 	andeq	r1, r0, sp, ror #15
    1e60:	1e6a2426 	cdpne	4, 6, cr2, cr10, cr6, {1}
    1e64:	23020000 	movwcs	r0, #8192	; 0x2000
    1e68:	04060008 	streq	r0, [r6], #-8
    1e6c:	00001e70 	andeq	r1, r0, r0, ror lr
    1e70:	00009f07 	andeq	r9, r0, r7, lsl #30
    1e74:	26081600 	strcs	r1, [r8], -r0, lsl #12
    1e78:	001e946c 	andseq	r9, lr, ip, ror #8
    1e7c:	29111800 	ldmdbcs	r1, {fp, ip}
    1e80:	6d260000 	stcvs	0, cr0, [r6]
    1e84:	0000029f 	muleq	r0, pc, r2
    1e88:	00147d18 	andseq	r7, r4, r8, lsl sp
    1e8c:	ee6e2600 	cdp	6, 6, cr2, cr14, cr0, {0}
    1e90:	00000018 	andeq	r0, r0, r8, lsl r0
    1e94:	00052010 	andeq	r2, r5, r0, lsl r0
    1e98:	59269000 	stmdbpl	r6!, {ip, pc}
    1e9c:	00001f8f 	andeq	r1, r0, pc, lsl #31
    1ea0:	0014430e 	andseq	r4, r4, lr, lsl #6
    1ea4:	945a2600 	ldrbls	r2, [sl], #-1536	; 0x600
    1ea8:	02000002 	andeq	r0, r0, #2
    1eac:	e50e0023 	str	r0, [lr, #-35]	; 0x23
    1eb0:	26000029 	strcs	r0, [r0], -r9, lsr #32
    1eb4:	0000555b 	andeq	r5, r0, fp, asr r5
    1eb8:	04230200 	strteq	r0, [r3], #-512	; 0x200
    1ebc:	00196d0e 	andseq	r6, r9, lr, lsl #26
    1ec0:	b55c2600 	ldrblt	r2, [ip, #-1536]	; 0x600
    1ec4:	02000008 	andeq	r0, r0, #8
    1ec8:	0d0e0823 	stceq	8, cr0, [lr, #-140]	; 0xffffff74
    1ecc:	2600001a 	undefined instruction 0x2600001a
    1ed0:	0000685d 	andeq	r6, r0, sp, asr r8
    1ed4:	18230200 	stmdane	r3!, {r9}
    1ed8:	00033b0e 	andeq	r3, r3, lr, lsl #22
    1edc:	225e2600 	subscs	r2, lr, #0
    1ee0:	02000022 	andeq	r0, r0, #34	; 0x22
    1ee4:	3c0e1c23 	stccc	12, cr1, [lr], {35}	; 0x23
    1ee8:	26000018 	undefined instruction 0x26000018
    1eec:	0002eb64 	andeq	lr, r2, r4, ror #22
    1ef0:	20230200 	eorcs	r0, r3, r0, lsl #4
    1ef4:	0013890e 	andseq	r8, r3, lr, lsl #18
    1ef8:	28652600 	stmdacs	r5!, {r9, sl, sp}^
    1efc:	02000022 	andeq	r0, r0, #34	; 0x22
    1f00:	b70e2823 	strlt	r2, [lr, -r3, lsr #16]
    1f04:	26000024 	strcs	r0, [r0], -r4, lsr #32
    1f08:	001e3366 	andseq	r3, lr, r6, ror #6
    1f0c:	2c230200 	sfmcs	f0, 4, [r3]	; (stccs 2, cr0, [r3])
    1f10:	0011130e 	andseq	r1, r1, lr, lsl #6
    1f14:	9f682600 	svcls	0x00682600
    1f18:	02000002 	andeq	r0, r0, #2
    1f1c:	64143823 	ldrvs	r3, [r4], #-2083	; 0x823
    1f20:	2600755f 	undefined instruction 0x2600755f
    1f24:	001e756f 	andseq	r7, lr, pc, ror #10
    1f28:	40230200 	eormi	r0, r3, r0, lsl #4
    1f2c:	00252b0e 	eoreq	r2, r5, lr, lsl #22
    1f30:	9f702600 	svcls	0x00702600
    1f34:	02000002 	andeq	r0, r0, #2
    1f38:	3d0e4823 	stccc	8, cr4, [lr, #-140]	; 0xffffff74
    1f3c:	2600002f 	strcs	r0, [r0], -pc, lsr #32
    1f40:	00029f71 	andeq	r9, r2, r1, ror pc
    1f44:	50230200 	eorpl	r0, r3, r0, lsl #4
    1f48:	002f200e 	eoreq	r2, pc, lr
    1f4c:	29722600 	ldmdbcs	r2!, {r9, sl, sp}^
    1f50:	02000000 	andeq	r0, r0, #0
    1f54:	f30e5823 	vsub.i8	d5, d14, d19
    1f58:	26000018 	undefined instruction 0x26000018
    1f5c:	00229d73 	eoreq	r9, r2, r3, ror sp
    1f60:	5c230200 	sfmpl	f0, 4, [r3]	; (stcpl 2, cr0, [r3])
    1f64:	001bc80e 	andseq	ip, fp, lr, lsl #16
    1f68:	1a742600 	bne	1d0b770 <tz_ioctl+0x1d0b524>
    1f6c:	02000025 	andeq	r0, r0, #37	; 0x25
    1f70:	fc0e6023 	stc2	0, cr6, [lr], {35}	; 0x23
    1f74:	26000027 	strcs	r0, [r0], -r7, lsr #32
    1f78:	00032375 	andeq	r2, r3, r5, ror r3
    1f7c:	64230200 	strtvs	r0, [r3], #-512	; 0x200
    1f80:	0029dd0e 	eoreq	sp, r9, lr, lsl #26
    1f84:	20772600 	rsbscs	r2, r7, r0, lsl #12
    1f88:	02000025 	andeq	r0, r0, #37	; 0x25
    1f8c:	1c006823 	stcne	8, cr6, [r0], {35}	; 0x23
    1f90:	00000a07 	andeq	r0, r0, r7, lsl #20
    1f94:	5e2601b8 	mcrpl	1, 1, r0, cr6, cr8, {5}
    1f98:	00002222 	andeq	r2, r0, r2, lsr #4
    1f9c:	002a1b12 	eoreq	r1, sl, r2, lsl fp
    1fa0:	02d02700 	sbcseq	r2, r0, #0
    1fa4:	000002eb 	andeq	r0, r0, fp, ror #5
    1fa8:	12002302 	andne	r2, r0, #134217728	; 0x8000000
    1fac:	00000088 	andeq	r0, r0, r8, lsl #1
    1fb0:	9f02d127 	svcls	0x0002d127
    1fb4:	02000002 	andeq	r0, r0, #2
    1fb8:	3d120823 	ldccc	8, cr0, [r2, #-140]	; 0xffffff74
    1fbc:	27000012 	smladcs	r0, r2, r0, r0
    1fc0:	029f02d2 	addseq	r0, pc, #536870925	; 0x2000000d
    1fc4:	23020000 	movwcs	r0, #8192	; 0x2000
    1fc8:	0ab91210 	beq	fee44848 <tz_ioctl+0xfee445fc>
    1fcc:	d3270000 	teqle	r7, #0
    1fd0:	00029f02 	andeq	r9, r2, r2, lsl #30
    1fd4:	18230200 	stmdane	r3!, {r9}
    1fd8:	001a8a12 	andseq	r8, sl, r2, lsl sl
    1fdc:	02d42700 	sbcseq	r2, r4, #0
    1fe0:	00000029 	andeq	r0, r0, r9, lsr #32
    1fe4:	12202302 	eorne	r2, r0, #134217728	; 0x8000000
    1fe8:	0000080d 	andeq	r0, r0, sp, lsl #16
    1fec:	9402d527 	strls	sp, [r2], #-1319	; 0x527
    1ff0:	02000002 	andeq	r0, r0, #2
    1ff4:	e2122423 	ands	r2, r2, #587202560	; 0x23000000
    1ff8:	2700000f 	strcs	r0, [r0, -pc]
    1ffc:	005502d6 	ldrsbeq	r0, [r5], #-38	; 0xffffffda
    2000:	23020000 	movwcs	r0, #8192	; 0x2000
    2004:	1de91228 	sfmne	f1, 2, [r9, #160]!	; (stclne 2, cr1, [r9, #160]!)	; 0xa0
    2008:	d7270000 	strle	r0, [r7, -r0]!
    200c:	0001c802 	andeq	ip, r1, r2, lsl #16
    2010:	2c230200 	sfmcs	f0, 4, [r3]	; (stccs 2, cr0, [r3])
    2014:	000dc512 	andeq	ip, sp, r2, lsl r5
    2018:	02d82700 	sbcseq	r2, r8, #0
    201c:	000001d3 	ldrdeq	r0, [r0], -r3
    2020:	12302302 	eorsne	r2, r0, #134217728	; 0x8000000
    2024:	000009cb 	andeq	r0, r0, fp, asr #19
    2028:	9502d927 	strls	sp, [r2, #-2343]	; 0x927
    202c:	02000001 	andeq	r0, r0, #1
    2030:	9e123423 	cfmuldls	mvd3, mvd2, mvd3
    2034:	2700001f 	smladcs	r0, pc, r0, r0
    2038:	010f02da 	ldrdeq	r0, [pc, -sl]
    203c:	23020000 	movwcs	r0, #8192	; 0x2000
    2040:	1f291238 	svcne	0x00291238
    2044:	db270000 	blle	9c204c <tz_ioctl+0x9c1e00>
    2048:	0001de02 	andeq	sp, r1, r2, lsl #28
    204c:	40230200 	eormi	r0, r3, r0, lsl #4
    2050:	00044d12 	andeq	r4, r4, r2, lsl sp
    2054:	02df2700 	sbcseq	r2, pc, #0
    2058:	0000041c 	andeq	r0, r0, ip, lsl r4
    205c:	12482302 	subne	r2, r8, #134217728	; 0x8000000
    2060:	00002926 	andeq	r2, r0, r6, lsr #18
    2064:	1c02e027 	stcne	0, cr14, [r2], {39}	; 0x27
    2068:	02000004 	andeq	r0, r0, #4
    206c:	40125023 	andsmi	r5, r2, r3, lsr #32
    2070:	27000022 	strcs	r0, [r0, -r2, lsr #32]
    2074:	041c02e1 	ldreq	r0, [ip], #-737	; 0x2e1
    2078:	23020000 	movwcs	r0, #8192	; 0x2000
    207c:	1c381258 	lfmne	f1, 4, [r8], #-352	; (ldcne 2, cr1, [r8], #-352)	; 0xfffffea0
    2080:	e2270000 	eor	r0, r7, #0
    2084:	00024102 	andeq	r4, r2, r2, lsl #2
    2088:	60230200 	eorvs	r0, r3, r0, lsl #4
    208c:	00148312 	andseq	r8, r4, r2, lsl r3
    2090:	02e32700 	rsceq	r2, r3, #0
    2094:	00000055 	andeq	r0, r0, r5, asr r0
    2098:	12682302 	rsbne	r2, r8, #134217728	; 0x8000000
    209c:	0000244e 	andeq	r2, r0, lr, asr #8
    20a0:	c302e427 	movwgt	lr, #9255	; 0x2427
    20a4:	02000000 	andeq	r0, r0, #0
    20a8:	0f126c23 	svceq	0x00126c23
    20ac:	27000028 	strcs	r0, [r0, -r8, lsr #32]
    20b0:	011a02e5 	tsteq	sl, r5, ror #5
    20b4:	23020000 	movwcs	r0, #8192	; 0x2000
    20b8:	1060126e 	rsbne	r1, r0, lr, ror #4
    20bc:	e6270000 	strt	r0, [r7], -r0
    20c0:	0008b502 	andeq	fp, r8, r2, lsl #10
    20c4:	70230200 	eorvc	r0, r3, r0, lsl #4
    20c8:	000d8012 	andeq	r8, sp, r2, lsl r0
    20cc:	02e72700 	rsceq	r2, r7, #0
    20d0:	00000e4b 	andeq	r0, r0, fp, asr #28
    20d4:	01802303 	orreq	r2, r0, r3, lsl #6
    20d8:	001f1d12 	andseq	r1, pc, r2, lsl sp
    20dc:	02e82700 	rsceq	r2, r8, #0
    20e0:	00000eb2 	undefined instruction 0x00000eb2
    20e4:	01a82303 	undefined instruction 0x01a82303
    20e8:	001b4012 	andseq	r4, fp, r2, lsl r0
    20ec:	02e92700 	rsceq	r2, r9, #0
    20f0:	00003cd7 	ldrdeq	r3, [r0], -r7
    20f4:	01c42303 	biceq	r2, r4, r3, lsl #6
    20f8:	000df512 	andeq	pc, sp, r2, lsl r5
    20fc:	02ea2700 	rsceq	r2, sl, #0
    2100:	00003e7a 	andeq	r3, r0, sl, ror lr
    2104:	01c82303 	biceq	r2, r8, r3, lsl #6
    2108:	00301612 	eorseq	r1, r0, r2, lsl r6
    210c:	02eb2700 	rsceq	r2, fp, #0
    2110:	0000251a 	andeq	r2, r0, sl, lsl r5
    2114:	01cc2303 	biceq	r2, ip, r3, lsl #6
    2118:	000aac12 	andeq	sl, sl, r2, lsl ip
    211c:	02ec2700 	rsceq	r2, ip, #0
    2120:	00003f96 	muleq	r0, r6, pc
    2124:	01d02303 	bicseq	r2, r0, r3, lsl #6
    2128:	00285b12 	eoreq	r5, r8, r2, lsl fp
    212c:	02ed2700 	rsceq	r2, sp, #0
    2130:	000036c3 	andeq	r3, r0, r3, asr #13
    2134:	01d42303 	bicseq	r2, r4, r3, lsl #6
    2138:	00135b12 	andseq	r5, r3, r2, lsl fp
    213c:	02ee2700 	rsceq	r2, lr, #0
    2140:	000036c9 	andeq	r3, r0, r9, asr #13
    2144:	01d82303 	bicseq	r2, r8, r3, lsl #6
    2148:	00194b12 	andseq	r4, r9, r2, lsl fp
    214c:	02f22700 	rscseq	r2, r2, #0
    2150:	0000029f 	muleq	r0, pc, r2
    2154:	02d02303 	sbcseq	r2, r0, #201326592	; 0xc000000
    2158:	003abf19 	eorseq	fp, sl, r9, lsl pc
    215c:	d8230300 	stmdale	r3!, {r8, r9}
    2160:	0d351202 	lfmeq	f1, 4, [r5, #-8]!	; (ldceq 2, cr1, [r5, #-8]!)
    2164:	f9270000 	undefined instruction 0xf9270000
    2168:	0000d502 	andeq	sp, r0, r2, lsl #10
    216c:	dc230300 	stcle	3, cr0, [r3]
    2170:	18431202 	stmdane	r3, {r1, r9, ip}^
    2174:	fc270000 	stc2	0, cr0, [r7]
    2178:	0000d502 	andeq	sp, r0, r2, lsl #10
    217c:	e0230300 	eor	r0, r3, r0, lsl #6
    2180:	0f651202 	svceq	0x00651202
    2184:	fd270000 	stc2	0, cr0, [r7]
    2188:	0002ce02 	andeq	ip, r2, r2, lsl #28
    218c:	e4230300 	strt	r0, [r3], #-768	; 0x300
    2190:	0b2b1202 	bleq	ac4810 <tz_ioctl+0xac45c4>
    2194:	01270000 	teqeq	r7, r0
    2198:	00029f03 	andeq	r9, r2, r3, lsl #30
    219c:	e8230300 	stmda	r3!, {r8, r9}
    21a0:	06281202 	strteq	r1, [r8], -r2, lsl #4
    21a4:	02270000 	eoreq	r0, r7, #0
    21a8:	000e4b03 	andeq	r4, lr, r3, lsl #22
    21ac:	f0230300 	undefined instruction 0xf0230300
    21b0:	00531202 	subseq	r1, r3, r2, lsl #4
    21b4:	05270000 	streq	r0, [r7]!
    21b8:	00002903 	andeq	r2, r0, r3, lsl #18
    21bc:	98230300 	stmdals	r3!, {r8, r9}
    21c0:	1ca81203 	sfmne	f1, 4, [r8], #12	; (stcne 2, cr1, [r8], #12)
    21c4:	06270000 	strteq	r0, [r7], -r0
    21c8:	00002903 	andeq	r2, r0, r3, lsl #18
    21cc:	9c230300 	stcls	3, cr0, [r3]
    21d0:	2cbc1203 	lfmcs	f1, 4, [ip], #12	; (ldccs 2, cr1, [ip], #12)
    21d4:	08270000 	stmdaeq	r7!, {}
    21d8:	00005503 	andeq	r5, r0, r3, lsl #10
    21dc:	a0230300 	eorge	r0, r3, r0, lsl #6
    21e0:	09241203 	stmdbeq	r4!, {r0, r1, r9, ip}
    21e4:	0a270000 	beq	9c21ec <tz_ioctl+0x9c1fa0>
    21e8:	00029403 	andeq	r9, r2, r3, lsl #8
    21ec:	a4230300 	strtge	r0, [r3], #-768	; 0x300
    21f0:	1c891203 	sfmne	f1, 4, [r9], {3}	; (stcne 2, cr1, [r9], {3})
    21f4:	0f270000 	svceq	0x00270000
    21f8:	003fa203 	eorseq	sl, pc, r3, lsl #4
    21fc:	a8230300 	stmdage	r3!, {r8, r9}
    2200:	25c71203 	strbcs	r1, [r7, #515]	; 0x203
    2204:	10270000 	eorne	r0, r7, r0
    2208:	003fa203 	eorseq	sl, pc, r3, lsl #4
    220c:	ac230300 	stcge	3, cr0, [r3]
    2210:	2a881203 	bcs	fe204814 <tz_ioctl+0xfe2045c8>
    2214:	12270000 	eorne	r0, r7, #0
    2218:	00032303 	andeq	r2, r3, r3, lsl #6
    221c:	b0230300 	eorlt	r0, r3, r0, lsl #6
    2220:	04060003 	streq	r0, [r6], #-3
    2224:	00001f8f 	andeq	r1, r0, pc, lsl #31
    2228:	1e940406 	cdpne	4, 9, cr0, cr4, cr6, {0}
    222c:	90100000 	andsls	r0, r0, r0
    2230:	1c00002b 	stcne	0, cr0, [r0], {43}	; 0x2b
    2234:	229d7326 	addscs	r7, sp, #-1744830464	; 0x98000000
    2238:	160e0000 	strne	r0, [lr], -r0
    223c:	26000000 	strcs	r0, [r0], -r0
    2240:	00255187 	eoreq	r5, r5, r7, lsl #3
    2244:	00230200 	eoreq	r0, r3, r0, lsl #4
    2248:	00183c0e 	andseq	r3, r8, lr, lsl #24
    224c:	72882600 	addvc	r2, r8, #0
    2250:	02000025 	andeq	r0, r0, #37	; 0x25
    2254:	410e0423 	tstmi	lr, r3, lsr #8
    2258:	2600001c 	undefined instruction 0x2600001c
    225c:	00259289 	eoreq	r9, r5, r9, lsl #5
    2260:	08230200 	stmdaeq	r3!, {r9}
    2264:	00023f0e 	andeq	r3, r2, lr, lsl #30
    2268:	a88a2600 	stmge	sl, {r9, sl, sp}
    226c:	02000025 	andeq	r0, r0, #37	; 0x25
    2270:	900e0c23 	andls	r0, lr, r3, lsr #24
    2274:	26000015 	undefined instruction 0x26000015
    2278:	0025ba8b 	eoreq	fp, r5, fp, lsl #21
    227c:	10230200 	eorne	r0, r3, r0, lsl #4
    2280:	002d350e 	eoreq	r3, sp, lr, lsl #10
    2284:	d18c2600 	orrle	r2, ip, r0, lsl #12
    2288:	02000025 	andeq	r0, r0, #37	; 0x25
    228c:	af0e1423 	svcge	0x000e1423
    2290:	2600000e 	strcs	r0, [r0], -lr
    2294:	0025f18d 	eoreq	pc, r5, sp, lsl #3
    2298:	18230200 	stmdane	r3!, {r9}
    229c:	a3040600 	movwge	r0, #17920	; 0x4600
    22a0:	29000022 	stmdbcs	r0, {r1, r5}
    22a4:	00002b90 	muleq	r0, r0, fp
    22a8:	0000222e 	andeq	r2, r0, lr, lsr #4
    22ac:	000a781c 	andeq	r7, sl, ip, lsl r8
    22b0:	26023000 	strcs	r3, [r2], -r0
    22b4:	00251a74 	eoreq	r1, r5, r4, ror sl
    22b8:	08d91200 	ldmeq	r9, {r9, ip}^
    22bc:	25270000 	strcs	r0, [r7]!
    22c0:	00029f05 	andeq	r9, r2, r5, lsl #30
    22c4:	00230200 	eoreq	r0, r3, r0, lsl #4
    22c8:	0017bb12 	andseq	fp, r7, r2, lsl fp
    22cc:	05262700 	streq	r2, [r6, #-1792]!	; 0x700
    22d0:	00000195 	muleq	r0, r5, r1
    22d4:	12082302 	andne	r2, r8, #134217728	; 0x8000000
    22d8:	000013de 	ldrdeq	r1, [r0], -lr
    22dc:	29052727 	stmdbcs	r5, {r0, r1, r2, r5, r8, r9, sl, sp}
    22e0:	02000000 	andeq	r0, r0, #0
    22e4:	98120c23 	ldmdals	r2, {r0, r1, r5, sl, fp}
    22e8:	27000000 	strcs	r0, [r0, -r0]
    22ec:	009f0528 	addseq	r0, pc, r8, lsr #10
    22f0:	23020000 	movwcs	r0, #8192	; 0x2000
    22f4:	0f201210 	svceq	0x00201210
    22f8:	29270000 	stmdbcs	r7!, {}
    22fc:	00009f05 	andeq	r9, r0, r5, lsl #30
    2300:	11230200 	teqne	r3, r0, lsl #4
    2304:	002b5612 	eoreq	r5, fp, r2, lsl r6
    2308:	052a2700 	streq	r2, [sl, #-1792]!	; 0x700
    230c:	000001de 	ldrdeq	r0, [r0], -lr
    2310:	12182302 	andsne	r2, r8, #134217728	; 0x8000000
    2314:	000012c6 	andeq	r1, r0, r6, asr #5
    2318:	fd052b27 	stc2	11, cr2, [r5, #-156]	; 0xffffff64
    231c:	02000043 	andeq	r0, r0, #67	; 0x43
    2320:	7c122023 	ldcvc	0, cr2, [r2], {35}	; 0x23
    2324:	27000009 	strcs	r0, [r0, -r9]
    2328:	451f052c 	ldrmi	r0, [pc, #-1324]	; 1e04 <.debug_info+0x1e04>
    232c:	23020000 	movwcs	r0, #8192	; 0x2000
    2330:	22711224 	rsbscs	r1, r1, #1073741826	; 0x40000002
    2334:	2d270000 	stccs	0, cr0, [r7]
    2338:	00452e05 	subeq	r2, r5, r5, lsl #28
    233c:	28230200 	stmdacs	r3!, {r9}
    2340:	002dbc12 	eoreq	fp, sp, r2, lsl ip
    2344:	052e2700 	streq	r2, [lr, #-1792]!	; 0x700
    2348:	0000453d 	andeq	r4, r0, sp, lsr r5
    234c:	122c2302 	eorne	r2, ip, #134217728	; 0x8000000
    2350:	0000154d 	andeq	r1, r0, sp, asr #10
    2354:	52052f27 	andpl	r2, r5, #156	; 0x9c
    2358:	02000045 	andeq	r0, r0, #69	; 0x45
    235c:	c1123023 	tstgt	r2, r3, lsr #32
    2360:	27000017 	smladcs	r0, r7, r0, r0
    2364:	00290530 	eoreq	r0, r9, r0, lsr r5
    2368:	23020000 	movwcs	r0, #8192	; 0x2000
    236c:	300e1234 	andcc	r1, lr, r4, lsr r2
    2370:	31270000 	teqcc	r7, r0
    2374:	00002905 	andeq	r2, r0, r5, lsl #18
    2378:	38230200 	stmdacc	r3!, {r9}
    237c:	001c5212 	andseq	r5, ip, r2, lsl r2
    2380:	05322700 	ldreq	r2, [r2, #-1792]!	; 0x700
    2384:	00002228 	andeq	r2, r0, r8, lsr #4
    2388:	123c2302 	eorsne	r2, ip, #134217728	; 0x8000000
    238c:	00000daf 	andeq	r0, r0, pc, lsr #27
    2390:	b2053327 	andlt	r3, r5, #-1677721600	; 0x9c000000
    2394:	0200000e 	andeq	r0, r0, #14
    2398:	dd124023 	ldcle	0, cr4, [r2, #-140]	; 0xffffff74
    239c:	27000017 	smladcs	r0, r7, r0, r0
    23a0:	0e4b0534 	mcreq	5, 2, r0, cr11, cr4, {1}
    23a4:	23020000 	movwcs	r0, #8192	; 0x2000
    23a8:	0251125c 	subseq	r1, r1, #-1073741819	; 0xc0000005
    23ac:	35270000 	strcc	r0, [r7]!
    23b0:	00006805 	andeq	r6, r0, r5, lsl #16
    23b4:	84230300 	strthi	r0, [r3], #-768	; 0x300
    23b8:	29b71201 	ldmibcs	r7!, {r0, r9, ip}
    23bc:	36270000 	strtcc	r0, [r7], -r0
    23c0:	00006805 	andeq	r6, r0, r5, lsl #16
    23c4:	88230300 	stmdahi	r3!, {r8, r9}
    23c8:	093b1201 	ldmdbeq	fp!, {r0, r9, ip}
    23cc:	37270000 	strcc	r0, [r7, -r0]!
    23d0:	00029405 	andeq	r9, r2, r5, lsl #8
    23d4:	8c230300 	stchi	3, cr0, [r3]
    23d8:	2aa21201 	bcs	fe88480c <tz_ioctl+0xfe8845c0>
    23dc:	3b270000 	blcc	9c23e4 <tz_ioctl+0x9c2198>
    23e0:	00456705 	subeq	r6, r5, r5, lsl #14
    23e4:	90230300 	eorls	r0, r3, r0, lsl #6
    23e8:	0af61201 	beq	ffd8480c <tz_ioctl+0xffd845c0>
    23ec:	3d270000 	stccc	0, cr0, [r7]
    23f0:	00029f05 	andeq	r9, r2, r5, lsl #30
    23f4:	94230300 	strtls	r0, [r3], #-768	; 0x300
    23f8:	0a691201 	beq	1a4480c <tz_ioctl+0x1a445c0>
    23fc:	3e270000 	cdpcc	0, 2, cr0, cr7, cr0, {0}
    2400:	0002ce05 	andeq	ip, r2, r5, lsl #28
    2404:	9c230300 	stcls	3, cr0, [r3]
    2408:	03bc1201 	undefined instruction 0x03bc1201
    240c:	3f270000 	svccc	0x00270000
    2410:	00029f05 	andeq	r9, r2, r5, lsl #30
    2414:	a0230300 	eorge	r0, r3, r0, lsl #6
    2418:	2e5f1201 	cdpcs	2, 5, cr1, cr15, cr1, {0}
    241c:	41270000 	teqmi	r7, r0
    2420:	00029f05 	andeq	r9, r2, r5, lsl #30
    2424:	a8230300 	stmdage	r3!, {r8, r9}
    2428:	12081201 	andne	r1, r8, #268435456	; 0x10000000
    242c:	42270000 	eormi	r0, r7, #0
    2430:	00006805 	andeq	r6, r0, r5, lsl #16
    2434:	b0230300 	eorlt	r0, r3, r0, lsl #6
    2438:	1ecf1201 	cdpne	2, 12, cr1, cr15, cr1, {0}
    243c:	44270000 	strtmi	r0, [r7]
    2440:	003aa105 	eorseq	sl, sl, r5, lsl #2
    2444:	b4230300 	strtlt	r0, [r3], #-768	; 0x300
    2448:	0dfb1201 	lfmeq	f1, 2, [fp, #4]!	; (ldcleq 2, cr1, [fp, #4]!)
    244c:	45270000 	strmi	r0, [r7]!
    2450:	00397005 	eorseq	r7, r9, r5
    2454:	b8230300 	stmdalt	r3!, {r8, r9}
    2458:	1cfd1201 	lfmne	f1, 2, [sp], #4	; (ldclne 2, cr1, [sp], #4)
    245c:	46270000 	strtmi	r0, [r7], -r0
    2460:	00457905 	subeq	r7, r5, r5, lsl #18
    2464:	bc230300 	stclt	3, cr0, [r3]
    2468:	26b91201 	ldrtcs	r1, [r9], r1, lsl #4
    246c:	47270000 	strmi	r0, [r7, -r0]!
    2470:	00029f05 	andeq	r9, r2, r5, lsl #30
    2474:	c0230300 	eorgt	r0, r3, r0, lsl #6
    2478:	112b1201 	teqne	fp, r1, lsl #4
    247c:	48270000 	stmdami	r7!, {}
    2480:	00341605 	eorseq	r1, r4, r5, lsl #12
    2484:	c8230300 	stmdagt	r3!, {r8, r9}
    2488:	0a3c1201 	beq	f0480c <tz_ioctl+0xf045c0>
    248c:	4a270000 	bmi	9c2494 <tz_ioctl+0x9c2248>
    2490:	00006805 	andeq	r6, r0, r5, lsl #16
    2494:	b8230300 	stmdalt	r3!, {r8, r9}
    2498:	12851203 	addne	r1, r5, #805306368	; 0x30000000
    249c:	4b270000 	blmi	9c24a4 <tz_ioctl+0x9c2258>
    24a0:	000a0305 	andeq	r0, sl, r5, lsl #6
    24a4:	bc230300 	stclt	3, cr0, [r3]
    24a8:	04551203 	ldrbeq	r1, [r5], #-515	; 0x203
    24ac:	4d270000 	stcmi	0, cr0, [r7]
    24b0:	000f2c05 	andeq	r2, pc, r5, lsl #24
    24b4:	d4230300 	strtle	r0, [r3], #-768	; 0x300
    24b8:	2df61203 	lfmcs	f1, 2, [r6, #12]!	; (ldclcs 2, cr1, [r6, #12]!)
    24bc:	4f270000 	svcmi	0x00270000
    24c0:	00032305 	andeq	r2, r3, r5, lsl #6
    24c4:	f4230300 	vld2.8	{d0-d3}, [r3], r0
    24c8:	01f51203 	mvnseq	r1, r3, lsl #4
    24cc:	50270000 	eorpl	r0, r7, r0
    24d0:	00025705 	andeq	r5, r2, r5, lsl #14
    24d4:	f8230300 	undefined instruction 0xf8230300
    24d8:	22811203 	addcs	r1, r1, #805306368	; 0x30000000
    24dc:	56270000 	strtpl	r0, [r7], -r0
    24e0:	000e4b05 	andeq	r4, lr, r5, lsl #22
    24e4:	fc230300 	stc2	3, cr0, [r3]
    24e8:	29751203 	ldmdbcs	r5!, {r0, r1, r9, ip}^
    24ec:	5a270000 	bpl	9c24f4 <tz_ioctl+0x9c22a8>
    24f0:	00010405 	andeq	r0, r1, r5, lsl #8
    24f4:	a4230300 	strtge	r0, [r3], #-768	; 0x300
    24f8:	18df1204 	ldmne	pc, {r2, r9, ip}^
    24fc:	60270000 	eorvs	r0, r7, r0
    2500:	00016305 	andeq	r6, r1, r5, lsl #6
    2504:	a8230300 	stmdage	r3!, {r8, r9}
    2508:	10561204 	subsne	r1, r6, r4, lsl #4
    250c:	66270000 	strtvs	r0, [r7], -r0
    2510:	00016305 	andeq	r6, r1, r5, lsl #6
    2514:	ac230300 	stcge	3, cr0, [r3]
    2518:	04060004 	streq	r0, [r6], #-4
    251c:	000022ac 	andeq	r2, r0, ip, lsr #5
    2520:	00009f03 	andeq	r9, r0, r3, lsl #30
    2524:	00253000 	eoreq	r3, r5, r0
    2528:	00400400 	subeq	r0, r0, r0, lsl #8
    252c:	00270000 	eoreq	r0, r7, r0
    2530:	0068011a 	rsbeq	r0, r8, sl, lsl r1
    2534:	25450000 	strbcs	r0, [r5]
    2538:	281b0000 	ldmdacs	fp, {}
    253c:	1b000022 	blne	25cc <.debug_info+0x25cc>
    2540:	00002545 	andeq	r2, r0, r5, asr #10
    2544:	4b040600 	blmi	103d4c <tz_ioctl+0x103b00>
    2548:	15000025 	strne	r0, [r0, #-37]	; 0x25
    254c:	00000259 	andeq	r0, r0, r9, asr r2
    2550:	30040601 	andcc	r0, r4, r1, lsl #12
    2554:	1a000025 	bne	25f0 <.debug_info+0x25f0>
    2558:	00006801 	andeq	r6, r0, r1, lsl #16
    255c:	00256c00 	eoreq	r6, r5, r0, lsl #24
    2560:	22281b00 	eorcs	r1, r8, #0
    2564:	6c1b0000 	ldcvs	0, cr0, [fp], {0}
    2568:	00000025 	andeq	r0, r0, r5, lsr #32
    256c:	1e330406 	cdpne	4, 3, cr0, cr3, cr6, {0}
    2570:	04060000 	streq	r0, [r6]
    2574:	00002557 	andeq	r2, r0, r7, asr r5
    2578:	0068011a 	rsbeq	r0, r8, sl, lsl r1
    257c:	25920000 	ldrcs	r0, [r2]
    2580:	281b0000 	ldmdacs	fp, {}
    2584:	1b000022 	blne	2614 <.debug_info+0x2614>
    2588:	0000256c 	andeq	r2, r0, ip, ror #10
    258c:	00256c1b 	eoreq	r6, r5, fp, lsl ip
    2590:	04060000 	streq	r0, [r6]
    2594:	00002578 	andeq	r2, r0, r8, ror r5
    2598:	0068011a 	rsbeq	r0, r8, sl, lsl r1
    259c:	25a80000 	strcs	r0, [r8]!
    25a0:	281b0000 	ldmdacs	fp, {}
    25a4:	00000022 	andeq	r0, r0, r2, lsr #32
    25a8:	25980406 	ldrcs	r0, [r8, #1030]	; 0x406
    25ac:	01210000 	teqeq	r1, r0
    25b0:	000025ba 	undefined instruction 0x000025ba
    25b4:	0022281b 	eoreq	r2, r2, fp, lsl r8
    25b8:	04060000 	streq	r0, [r6]
    25bc:	000025ae 	andeq	r2, r0, lr, lsr #11
    25c0:	25d10121 	ldrbcs	r0, [r1, #289]	; 0x121
    25c4:	281b0000 	ldmdacs	fp, {}
    25c8:	1b000022 	blne	2658 <.debug_info+0x2658>
    25cc:	00002222 	andeq	r2, r0, r2, lsr #4
    25d0:	c0040600 	andgt	r0, r4, r0, lsl #12
    25d4:	1a000025 	bne	2670 <.debug_info+0x2670>
    25d8:	00016301 	andeq	r6, r1, r1, lsl #6
    25dc:	0025f100 	eoreq	pc, r5, r0, lsl #2
    25e0:	22281b00 	eorcs	r1, r8, #0
    25e4:	631b0000 	tstvs	fp, #0
    25e8:	1b000001 	blne	25f4 <.debug_info+0x25f4>
    25ec:	00000068 	andeq	r0, r0, r8, rrx
    25f0:	d7040600 	strle	r0, [r4, -r0, lsl #12]
    25f4:	10000025 	andne	r0, r0, r5, lsr #32
    25f8:	00001bb6 	undefined instruction 0x00001bb6
    25fc:	200c2608 	andcs	r2, ip, r8, lsl #12
    2600:	14000026 	strne	r0, [r0], #-38	; 0x26
    2604:	00746e6d 	rsbseq	r6, r4, sp, ror #28
    2608:	26260828 	strtcs	r0, [r6], -r8, lsr #16
    260c:	23020000 	movwcs	r0, #8192	; 0x2000
    2610:	05200e00 	streq	r0, [r0, #-3584]!	; 0xe00
    2614:	09280000 	stmdbeq	r8!, {}
    2618:	00002228 	andeq	r2, r0, r8, lsr #4
    261c:	00042302 	andeq	r2, r4, r2, lsl #6
    2620:	0027b715 	eoreq	fp, r7, r5, lsl r7
    2624:	04060100 	streq	r0, [r6], #-256	; 0x100
    2628:	00002620 	andeq	r2, r0, r0, lsr #12
    262c:	002f4d10 	eoreq	r4, pc, r0, lsl sp
    2630:	3d290c00 	stccc	12, cr0, [r9]
    2634:	00002663 	andeq	r2, r0, r3, ror #12
    2638:	0004370e 	andeq	r3, r4, lr, lsl #14
    263c:	553e2900 	ldrpl	r2, [lr, #-2304]!	; 0x900
    2640:	02000000 	andeq	r0, r0, #0
    2644:	480e0023 	stmdami	lr, {r0, r1, r5}
    2648:	29000002 	stmdbcs	r0, {r1}
    264c:	00024c3f 	andeq	r4, r2, pc, lsr ip
    2650:	04230200 	strteq	r0, [r3], #-512	; 0x200
    2654:	0015c80e 	andseq	ip, r5, lr, lsl #16
    2658:	69402900 	stmdbvs	r0, {r8, fp, sp}^
    265c:	02000026 	andeq	r0, r0, #38	; 0x26
    2660:	15000823 	strne	r0, [r0, #-2083]	; 0x823
    2664:	000009a3 	andeq	r0, r0, r3, lsr #19
    2668:	63040601 	movwvs	r0, #17921	; 0x4601
    266c:	10000026 	andne	r0, r0, r6, lsr #32
    2670:	0000153e 	andeq	r1, r0, lr, lsr r5
    2674:	c20f2a14 	andgt	r2, pc, #81920	; 0x14000
    2678:	0e000026 	cdpeq	0, 0, cr0, cr0, cr6, {1}
    267c:	00002759 	andeq	r2, r0, r9, asr r7
    2680:	26c2152a 	strbcs	r1, [r2], sl, lsr #10
    2684:	23020000 	movwcs	r0, #8192	; 0x2000
    2688:	10e70e00 	rscne	r0, r7, r0, lsl #28
    268c:	162a0000 	strtne	r0, [sl], -r0
    2690:	000026c2 	andeq	r2, r0, r2, asr #13
    2694:	0e042302 	cdpeq	3, 0, cr2, cr4, cr2, {0}
    2698:	000028ae 	andeq	r2, r0, lr, lsr #17
    269c:	26c2172a 	strbcs	r1, [r2], sl, lsr #14
    26a0:	23020000 	movwcs	r0, #8192	; 0x2000
    26a4:	1a220e08 	bne	883828 <tz_ioctl+0x8835dc>
    26a8:	182a0000 	stmdane	sl!, {}
    26ac:	00000029 	andeq	r0, r0, r9, lsr #32
    26b0:	0e0c2302 	cdpeq	3, 0, cr2, cr12, cr2, {0}
    26b4:	00001e47 	andeq	r1, r0, r7, asr #28
    26b8:	0029192a 	eoreq	r1, r9, sl, lsr #18
    26bc:	23020000 	movwcs	r0, #8192	; 0x2000
    26c0:	04060010 	streq	r0, [r6], #-16
    26c4:	0000266f 	andeq	r2, r0, pc, ror #12
    26c8:	001ae110 	andseq	lr, sl, r0, lsl r1
    26cc:	1c2a0800 	stcne	8, cr0, [sl]
    26d0:	000026ff 	strdeq	r2, [r0], -pc
    26d4:	00153e0e 	andseq	r3, r5, lr, lsl #28
    26d8:	c21d2a00 	andsgt	r2, sp, #0
    26dc:	02000026 	andeq	r0, r0, #38	; 0x26
    26e0:	2c0e0023 	stccs	0, cr0, [lr], {35}	; 0x23
    26e4:	2a000000 	bcs	26ec <.debug_info+0x26ec>
    26e8:	0000c31e 	andeq	ip, r0, lr, lsl r3
    26ec:	04230200 	strteq	r0, [r3], #-512	; 0x200
    26f0:	77617214 	undefined instruction 0x77617214
    26f4:	c31f2a00 	tstgt	pc, #0
    26f8:	02000000 	andeq	r0, r0, #0
    26fc:	2a000623 	bcs	3f90 <.debug_info+0x3f90>
    2700:	00001794 	muleq	r0, r4, r7
    2704:	24072b04 	strcs	r2, [r7], #-2820	; 0xb04
    2708:	2b000027 	blcs	27ac <.debug_info+0x27ac>
    270c:	000014da 	ldrdeq	r1, [r0], -sl
    2710:	09492b00 	stmdbeq	r9, {r8, r9, fp, sp}^
    2714:	2b010000 	blcs	4271c <tz_ioctl+0x424d0>
    2718:	000022c5 	andeq	r2, r0, r5, asr #5
    271c:	00c02b02 	sbceq	r2, r0, r2, lsl #22
    2720:	00030000 	andeq	r0, r3, r0
    2724:	00218710 	eoreq	r8, r1, r0, lsl r7
    2728:	322b1000 	eorcc	r1, fp, #0
    272c:	00002759 	andeq	r2, r0, r9, asr r7
    2730:	00726e14 	rsbseq	r6, r2, r4, lsl lr
    2734:	0068342b 	rsbeq	r3, r8, fp, lsr #8
    2738:	23020000 	movwcs	r0, #8192	; 0x2000
    273c:	736e1400 	cmnvc	lr, #0
    2740:	5f352b00 	svcpl	0x00352b00
    2744:	02000027 	andeq	r0, r0, #39	; 0x27
    2748:	a90e0423 	stmdbge	lr, {r0, r1, r5, sl}
    274c:	2b000013 	blcs	27a0 <.debug_info+0x27a0>
    2750:	0002eb36 	andeq	lr, r2, r6, lsr fp
    2754:	08230200 	stmdaeq	r3!, {r9}
    2758:	29571500 	ldmdbcs	r7, {r8, sl, ip}^
    275c:	06010000 	streq	r0, [r1], -r0
    2760:	00275904 	eoreq	r5, r7, r4, lsl #18
    2764:	69702c00 	ldmdbvs	r0!, {sl, fp, sp}^
    2768:	3f2c0064 	svccc	0x002c0064
    276c:	0027b8d7 	ldrdeq	fp, [r7], -r7
    2770:	1a840e00 	bne	fe103808 <tz_ioctl+0xfe1035bc>
    2774:	3b2b0000 	blcc	ac277c <tz_ioctl+0xac2530>
    2778:	00000294 	muleq	r0, r4, r2
    277c:	0e002302 	cdpeq	3, 0, cr2, cr0, cr2, {0}
    2780:	00001b3a 	andeq	r1, r0, sl, lsr fp
    2784:	00553c2b 	subseq	r3, r5, fp, lsr #24
    2788:	23020000 	movwcs	r0, #8192	; 0x2000
    278c:	0fd70e04 	svceq	0x00d70e04
    2790:	3e2b0000 	cdpcc	0, 2, cr0, cr11, cr0, {0}
    2794:	000027b8 	undefined instruction 0x000027b8
    2798:	14082302 	strne	r2, [r8], #-770	; 0x302
    279c:	00756372 	rsbseq	r6, r5, r2, ror r3
    27a0:	18ee3f2b 	stmiane	lr!, {r0, r1, r3, r5, r8, r9, sl, fp, ip, sp}^
    27a4:	23020000 	movwcs	r0, #8192	; 0x2000
    27a8:	05600e14 	strbeq	r0, [r0, #-3604]!	; 0xe14
    27ac:	402b0000 	eormi	r0, fp, r0
    27b0:	000027c8 	andeq	r2, r0, r8, asr #15
    27b4:	001c2302 	andseq	r2, ip, r2, lsl #6
    27b8:	0002ce03 	andeq	ip, r2, r3, lsl #28
    27bc:	0027c800 	eoreq	ip, r7, r0, lsl #16
    27c0:	00400400 	subeq	r0, r0, r0, lsl #8
    27c4:	00020000 	andeq	r0, r2, r0
    27c8:	00272403 	eoreq	r2, r7, r3, lsl #8
    27cc:	0027d800 	eoreq	sp, r7, r0, lsl #16
    27d0:	00400400 	subeq	r0, r0, r0, lsl #8
    27d4:	00000000 	andeq	r0, r0, r0
    27d8:	27650406 	strbcs	r0, [r5, -r6, lsl #8]!
    27dc:	70100000 	andsvc	r0, r0, r0
    27e0:	1c000006 	stcne	0, cr0, [r0], {6}
    27e4:	2815102c 	ldmdacs	r5, {r2, r3, r5, ip}
    27e8:	f20e0000 	vhadd.s8	d0, d14, d0
    27ec:	2c000022 	stccs	0, cr0, [r0], {34}	; 0x22
    27f0:	0008b511 	andeq	fp, r8, r1, lsl r5
    27f4:	00230200 	eoreq	r0, r3, r0, lsl #4
    27f8:	001a840e 	andseq	r8, sl, lr, lsl #8
    27fc:	55122c00 	ldrpl	r2, [r2, #-3072]	; 0xc00
    2800:	02000000 	andeq	r0, r0, #0
    2804:	590e1023 	stmdbpl	lr, {r0, r1, r5, ip}
    2808:	2c00000c 	stccs	0, cr0, [r0], {12}
    280c:	00029f13 	andeq	r9, r2, r3, lsl pc
    2810:	14230200 	strtne	r0, [r3], #-512	; 0x200
    2814:	0b1d1000 	bleq	744008 <tz_ioctl+0x743dbc>
    2818:	2d380000 	ldccs	0, cr0, [r8]
    281c:	00287610 	eoreq	r7, r8, r0, lsl r6
    2820:	1dd20e00 	ldclne	14, cr0, [r2]
    2824:	112d0000 	teqne	sp, r0
    2828:	000000e7 	andeq	r0, r0, r7, ror #1
    282c:	0e002302 	cdpeq	3, 0, cr2, cr0, cr2, {0}
    2830:	00001cc1 	andeq	r1, r0, r1, asr #25
    2834:	00e7132d 	rsceq	r1, r7, sp, lsr #6
    2838:	23020000 	movwcs	r0, #8192	; 0x2000
    283c:	1dc80e08 	stclne	14, cr0, [r8, #32]
    2840:	152d0000 	strne	r0, [sp]!
    2844:	000000e7 	andeq	r0, r0, r7, ror #1
    2848:	0e102302 	cdpeq	3, 1, cr2, cr0, cr2, {0}
    284c:	00002419 	andeq	r2, r0, r9, lsl r4
    2850:	2876162d 	ldmdacs	r6!, {r0, r2, r3, r5, r9, sl, ip}^
    2854:	23020000 	movwcs	r0, #8192	; 0x2000
    2858:	134b0e18 	movtne	r0, #48664	; 0xbe18
    285c:	172d0000 	strne	r0, [sp, -r0]!
    2860:	000000d5 	ldrdeq	r0, [r0], -r5
    2864:	0e282302 	cdpeq	3, 2, cr2, cr8, cr2, {0}
    2868:	00000318 	andeq	r0, r0, r8, lsl r3
    286c:	2886182d 	stmcs	r6, {r0, r2, r3, r5, fp, ip}
    2870:	23020000 	movwcs	r0, #8192	; 0x2000
    2874:	e703002c 	str	r0, [r3, -ip, lsr #32]
    2878:	86000000 	strhi	r0, [r0], -r0
    287c:	04000028 	streq	r0, [r0], #-40	; 0x28
    2880:	00000040 	andeq	r0, r0, r0, asr #32
    2884:	d5030001 	strle	r0, [r3, #-1]
    2888:	96000000 	strls	r0, [r0], -r0
    288c:	04000028 	streq	r0, [r0], #-40	; 0x28
    2890:	00000040 	andeq	r0, r0, r0, asr #32
    2894:	04060002 	streq	r0, [r6], #-2
    2898:	0000289c 	muleq	r0, ip, r8
    289c:	00137e15 	andseq	r7, r3, r5, lsl lr
    28a0:	b0110100 	andslt	r0, r1, r0, lsl #2
    28a4:	38000020 	stmdacc	r0, {r5}
    28a8:	3701be27 	strcc	fp, [r1, -r7, lsr #28]
    28ac:	12000029 	andne	r0, r0, #41	; 0x29
    28b0:	000013b3 	undefined instruction 0x000013b3
    28b4:	5501bf27 	strpl	fp, [r1, #-3879]	; 0xf27
    28b8:	02000000 	andeq	r0, r0, #0
    28bc:	43120023 	tstmi	r2, #35	; 0x23
    28c0:	2700002a 	strcs	r0, [r0, -sl, lsr #32]
    28c4:	011a01c0 	tsteq	sl, r0, asr #3
    28c8:	23020000 	movwcs	r0, #8192	; 0x2000
    28cc:	12011204 	andne	r1, r1, #1073741824	; 0x40000000
    28d0:	c1270000 	teqgt	r7, r0
    28d4:	0001c801 	andeq	ip, r1, r1, lsl #16
    28d8:	08230200 	stmdaeq	r3!, {r9}
    28dc:	00006b12 	andeq	r6, r0, r2, lsl fp
    28e0:	01c22700 	biceq	r2, r2, r0, lsl #14
    28e4:	000001d3 	ldrdeq	r0, [r0], -r3
    28e8:	120c2302 	andne	r2, ip, #134217728	; 0x8000000
    28ec:	0000149e 	muleq	r0, lr, r4
    28f0:	de01c327 	cdple	3, 0, cr12, cr1, cr7, {1}
    28f4:	02000001 	andeq	r0, r0, #1
    28f8:	35121023 	ldrcc	r1, [r2, #-35]	; 0x23
    28fc:	27000025 	strcs	r0, [r0, -r5, lsr #32]
    2900:	041c01c4 	ldreq	r0, [ip], #-452	; 0x1c4
    2904:	23020000 	movwcs	r0, #8192	; 0x2000
    2908:	19551218 	ldmdbne	r5, {r3, r4, r9, ip}^
    290c:	c5270000 	strgt	r0, [r7]!
    2910:	00041c01 	andeq	r1, r4, r1, lsl #24
    2914:	20230200 	eorcs	r0, r3, r0, lsl #4
    2918:	002a6a12 	eoreq	r6, sl, r2, lsl sl
    291c:	01c62700 	biceq	r2, r6, r0, lsl #14
    2920:	0000041c 	andeq	r0, r0, ip, lsl r4
    2924:	12282302 	eorne	r2, r8, #134217728	; 0x8000000
    2928:	000004f0 	strdeq	r0, [r0], -r0
    292c:	2901cd27 	stmdbcs	r1, {r0, r1, r2, r5, r8, sl, fp, lr, pc}
    2930:	0200002a 	andeq	r0, r0, #42	; 0x2a
    2934:	10003023 	andne	r3, r0, r3, lsr #32
    2938:	00001384 	andeq	r1, r0, r4, lsl #7
    293c:	292e2e98 	stmdbcs	lr!, {r3, r4, r7, r9, sl, fp, sp}
    2940:	2300002a 	movwcs	r0, #42	; 0x2a
    2944:	00755f66 	rsbseq	r5, r5, r6, ror #30
    2948:	78039427 	stmdavc	r3, {r0, r1, r2, r5, sl, ip, pc}
    294c:	02000040 	andeq	r0, r0, #64	; 0x40
    2950:	67120023 	ldrvs	r0, [r2, -r3, lsr #32]
    2954:	27000026 	strcs	r0, [r0, -r6, lsr #32]
    2958:	25f70395 	ldrbcs	r0, [r7, #917]!	; 0x395
    295c:	23020000 	movwcs	r0, #8192	; 0x2000
    2960:	170a1208 	strne	r1, [sl, -r8, lsl #4]
    2964:	98270000 	stmdals	r7!, {}
    2968:	003e7a03 	eorseq	r7, lr, r3, lsl #20
    296c:	10230200 	eorne	r0, r3, r0, lsl #4
    2970:	002d4a12 	eoreq	r4, sp, r2, lsl sl
    2974:	03992700 	orrseq	r2, r9, #0
    2978:	000008b5 	undefined instruction 0x000008b5
    297c:	12142302 	andsne	r2, r4, #134217728	; 0x8000000
    2980:	00002909 	andeq	r2, r0, r9, lsl #18
    2984:	0c039a27 	stceq	10, cr9, [r3], {39}	; 0x27
    2988:	02000009 	andeq	r0, r0, #9
    298c:	72122423 	andsvc	r2, r2, #587202560	; 0x23000000
    2990:	2700000e 	strcs	r0, [r0, -lr]
    2994:	0055039b 	ldrbeq	r0, [r5], #-59	; 0xffffffc5
    2998:	23020000 	movwcs	r0, #8192	; 0x2000
    299c:	14bd1228 	ldrtne	r1, [sp], #552	; 0x228
    29a0:	9c270000 	stcls	0, cr0, [r7]
    29a4:	00025703 	andeq	r5, r2, r3, lsl #14
    29a8:	2c230200 	sfmcs	f0, 4, [r3]	; (stccs 2, cr0, [r3])
    29ac:	000f2712 	andeq	r2, pc, r2, lsl r7
    29b0:	039d2700 	orrseq	r2, sp, #0
    29b4:	000001de 	ldrdeq	r0, [r0], -lr
    29b8:	12302302 	eorsne	r2, r0, #134217728	; 0x8000000
    29bc:	00001e4c 	andeq	r1, r0, ip, asr #28
    29c0:	a8039e27 	stmdage	r3, {r0, r1, r2, r5, r9, sl, fp, ip, pc}
    29c4:	0200003f 	andeq	r0, r0, #63	; 0x3f
    29c8:	31123823 	tstcc	r2, r3, lsr #16
    29cc:	2700002c 	strcs	r0, [r0, -ip, lsr #32]
    29d0:	40a0039f 	umlalmi	r0, r0, pc, r3
    29d4:	23020000 	movwcs	r0, #8192	; 0x2000
    29d8:	19741258 	ldmdbne	r4!, {r3, r4, r6, r9, ip}^
    29dc:	a0270000 	eorge	r0, r7, r0
    29e0:	00401003 	subeq	r1, r0, r3
    29e4:	60230200 	eorvs	r0, r3, r0, lsl #4
    29e8:	0004e612 	andeq	lr, r4, r2, lsl r6
    29ec:	03a22700 	undefined instruction 0x03a22700
    29f0:	0000010f 	andeq	r0, r0, pc, lsl #2
    29f4:	01802303 	orreq	r2, r0, r3, lsl #6
    29f8:	002d1d12 	eoreq	r1, sp, r2, lsl sp
    29fc:	03a72700 	undefined instruction 0x03a72700
    2a00:	00000323 	andeq	r0, r0, r3, lsr #6
    2a04:	01882303 	orreq	r2, r8, r3, lsl #6
    2a08:	002a7d12 	eoreq	r7, sl, r2, lsl sp
    2a0c:	03ab2700 	undefined instruction 0x03ab2700
    2a10:	0000029f 	muleq	r0, pc, r2
    2a14:	018c2303 	orreq	r2, ip, r3, lsl #6
    2a18:	00280512 	eoreq	r0, r8, r2, lsl r5
    2a1c:	03ad2700 	undefined instruction 0x03ad2700
    2a20:	000036c3 	andeq	r3, r0, r3, asr #13
    2a24:	01942303 	orrseq	r2, r4, r3, lsl #6
    2a28:	37040600 	strcc	r0, [r4, -r0, lsl #12]
    2a2c:	10000029 	andne	r0, r0, r9, lsr #32
    2a30:	00001e19 	andeq	r1, r0, r9, lsl lr
    2a34:	ba6a2f48 	blt	1a8e75c <tz_ioctl+0x1a8e510>
    2a38:	0e00002a 	cdpeq	0, 0, cr0, cr0, cr10, {1}
    2a3c:	000023f9 	strdeq	r2, [r0], -r9
    2a40:	00e76b2f 	rsceq	r6, r7, pc, lsr #22
    2a44:	23020000 	movwcs	r0, #8192	; 0x2000
    2a48:	2c990e00 	ldccs	14, cr0, [r9], {0}
    2a4c:	6c2f0000 	stcvs	0, cr0, [pc]
    2a50:	000000e7 	andeq	r0, r0, r7, ror #1
    2a54:	0e082302 	cdpeq	3, 0, cr2, cr8, cr2, {0}
    2a58:	00002d51 	andeq	r2, r0, r1, asr sp
    2a5c:	00e76d2f 	rsceq	r6, r7, pc, lsr #26
    2a60:	23020000 	movwcs	r0, #8192	; 0x2000
    2a64:	04070e10 	streq	r0, [r7], #-3600	; 0xe10
    2a68:	6e2f0000 	cdpvs	0, 2, cr0, cr15, cr0, {0}
    2a6c:	000000e7 	andeq	r0, r0, r7, ror #1
    2a70:	0e182302 	cdpeq	3, 1, cr2, cr8, cr2, {0}
    2a74:	00002427 	andeq	r2, r0, r7, lsr #8
    2a78:	00e76f2f 	rsceq	r6, r7, pc, lsr #30
    2a7c:	23020000 	movwcs	r0, #8192	; 0x2000
    2a80:	19f30e20 	ldmibne	r3!, {r5, r9, sl, fp}^
    2a84:	702f0000 	eorvc	r0, pc, r0
    2a88:	000000e7 	andeq	r0, r0, r7, ror #1
    2a8c:	0e282302 	cdpeq	3, 2, cr2, cr8, cr2, {0}
    2a90:	00002a73 	andeq	r2, r0, r3, ror sl
    2a94:	00e7712f 	rsceq	r7, r7, pc, lsr #2
    2a98:	23020000 	movwcs	r0, #8192	; 0x2000
    2a9c:	03310e30 	teqeq	r1, #768	; 0x300
    2aa0:	722f0000 	eorvc	r0, pc, #0
    2aa4:	000000e7 	andeq	r0, r0, r7, ror #1
    2aa8:	0e382302 	cdpeq	3, 3, cr2, cr8, cr2, {0}
    2aac:	000009fd 	strdeq	r0, [r0], -sp
    2ab0:	00d5732f 	sbcseq	r7, r5, pc, lsr #6
    2ab4:	23020000 	movwcs	r0, #8192	; 0x2000
    2ab8:	60100040 	andsvs	r0, r0, r0, asr #32
    2abc:	18000021 	stmdane	r0, {r0, r5}
    2ac0:	2aff7f2f 	bcs	fffe2784 <tz_ioctl+0xfffe2538>
    2ac4:	5f0e0000 	svcpl	0x000e0000
    2ac8:	2f00000e 	svccs	0x0000000e
    2acc:	0000e780 	andeq	lr, r0, r0, lsl #15
    2ad0:	00230200 	eoreq	r0, r3, r0, lsl #4
    2ad4:	001bdc0e 	andseq	sp, fp, lr, lsl #24
    2ad8:	e7812f00 	str	r2, [r1, r0, lsl #30]
    2adc:	02000000 	andeq	r0, r0, #0
    2ae0:	280e0823 	stmdacs	lr, {r0, r1, r5, fp}
    2ae4:	2f00002b 	svccs	0x0000002b
    2ae8:	0000d582 	andeq	sp, r0, r2, lsl #11
    2aec:	10230200 	eorne	r0, r3, r0, lsl #4
    2af0:	0021450e 	eoreq	r4, r1, lr, lsl #10
    2af4:	d5832f00 	strle	r2, [r3, #3840]	; 0xf00
    2af8:	02000000 	andeq	r0, r0, #0
    2afc:	10001423 	andne	r1, r0, r3, lsr #8
    2b00:	00002796 	muleq	r0, r6, r7
    2b04:	40323070 	eorsmi	r3, r2, r0, ror r0
    2b08:	0e00002c 	cdpeq	0, 0, cr0, cr0, cr12, {1}
    2b0c:	00001ed6 	ldrdeq	r1, [r0], -r6
    2b10:	00823330 	addeq	r3, r2, r0, lsr r3
    2b14:	23020000 	movwcs	r0, #8192	; 0x2000
    2b18:	29e50e00 	stmibcs	r5!, {r9, sl, fp}^
    2b1c:	34300000 	ldrtcc	r0, [r0]
    2b20:	00000082 	andeq	r0, r0, r2, lsl #1
    2b24:	0e012302 	cdpeq	3, 0, cr2, cr1, cr2, {0}
    2b28:	000008e5 	andeq	r0, r0, r5, ror #17
    2b2c:	00b83530 	adcseq	r3, r8, r0, lsr r5
    2b30:	23020000 	movwcs	r0, #8192	; 0x2000
    2b34:	14240e02 	strtne	r0, [r4], #-3586	; 0xe02
    2b38:	36300000 	ldrtcc	r0, [r0], -r0
    2b3c:	000000d5 	ldrdeq	r0, [r0], -r5
    2b40:	0e042302 	cdpeq	3, 0, cr2, cr4, cr2, {0}
    2b44:	00002e9f 	muleq	r0, pc, lr
    2b48:	00e73730 	rsceq	r3, r7, r0, lsr r7
    2b4c:	23020000 	movwcs	r0, #8192	; 0x2000
    2b50:	253e0e08 	ldrcs	r0, [lr, #-3592]!	; 0xe08
    2b54:	38300000 	ldmdacc	r0!, {}
    2b58:	000000e7 	andeq	r0, r0, r7, ror #1
    2b5c:	0e102302 	cdpeq	3, 1, cr2, cr0, cr2, {0}
    2b60:	0000085b 	andeq	r0, r0, fp, asr r8
    2b64:	00e73930 	rsceq	r3, r7, r0, lsr r9
    2b68:	23020000 	movwcs	r0, #8192	; 0x2000
    2b6c:	114f0e18 	cmpne	pc, r8, lsl lr
    2b70:	3a300000 	bcc	c02b78 <tz_ioctl+0xc0292c>
    2b74:	000000e7 	andeq	r0, r0, r7, ror #1
    2b78:	0e202302 	cdpeq	3, 2, cr2, cr0, cr2, {0}
    2b7c:	00001b06 	andeq	r1, r0, r6, lsl #22
    2b80:	00e73b30 	rsceq	r3, r7, r0, lsr fp
    2b84:	23020000 	movwcs	r0, #8192	; 0x2000
    2b88:	195e0e28 	ldmdbne	lr, {r3, r5, r9, sl, fp}^
    2b8c:	3c300000 	ldccc	0, cr0, [r0]
    2b90:	000000e7 	andeq	r0, r0, r7, ror #1
    2b94:	0e302302 	cdpeq	3, 3, cr2, cr0, cr2, {0}
    2b98:	000029fe 	strdeq	r2, [r0], -lr
    2b9c:	00ca3d30 	sbceq	r3, sl, r0, lsr sp
    2ba0:	23020000 	movwcs	r0, #8192	; 0x2000
    2ba4:	04740e38 	ldrbteq	r0, [r4], #-3640	; 0xe38
    2ba8:	3f300000 	svccc	0x00300000
    2bac:	000000ca 	andeq	r0, r0, sl, asr #1
    2bb0:	0e3c2302 	cdpeq	3, 3, cr2, cr12, cr2, {0}
    2bb4:	00001b9c 	muleq	r0, ip, fp
    2bb8:	00b84030 	adcseq	r4, r8, r0, lsr r0
    2bbc:	23020000 	movwcs	r0, #8192	; 0x2000
    2bc0:	26e50e40 	strbtcs	r0, [r5], r0, asr #28
    2bc4:	41300000 	teqmi	r0, r0
    2bc8:	000000b8 	strheq	r0, [r0], -r8
    2bcc:	0e422302 	cdpeq	3, 4, cr2, cr2, cr2, {0}
    2bd0:	0000260c 	andeq	r2, r0, ip, lsl #12
    2bd4:	00ca4230 	sbceq	r4, sl, r0, lsr r2
    2bd8:	23020000 	movwcs	r0, #8192	; 0x2000
    2bdc:	29c30e44 	stmibcs	r3, {r2, r6, r9, sl, fp}^
    2be0:	43300000 	teqmi	r0, #0
    2be4:	000000e7 	andeq	r0, r0, r7, ror #1
    2be8:	0e482302 	cdpeq	3, 4, cr2, cr8, cr2, {0}
    2bec:	000001b1 	undefined instruction 0x000001b1
    2bf0:	00e74430 	rsceq	r4, r7, r0, lsr r4
    2bf4:	23020000 	movwcs	r0, #8192	; 0x2000
    2bf8:	23110e50 	tstcs	r1, #1280	; 0x500
    2bfc:	45300000 	ldrmi	r0, [r0]!
    2c00:	000000e7 	andeq	r0, r0, r7, ror #1
    2c04:	0e582302 	cdpeq	3, 5, cr2, cr8, cr2, {0}
    2c08:	00000c10 	andeq	r0, r0, r0, lsl ip
    2c0c:	00ca4630 	sbceq	r4, sl, r0, lsr r6
    2c10:	23020000 	movwcs	r0, #8192	; 0x2000
    2c14:	2e0f0e60 	cdpcs	14, 0, cr0, cr15, cr0, {3}
    2c18:	47300000 	ldrmi	r0, [r0, -r0]!
    2c1c:	000000b8 	strheq	r0, [r0], -r8
    2c20:	0e642302 	cdpeq	3, 6, cr2, cr4, cr2, {0}
    2c24:	00001f0c 	andeq	r1, r0, ip, lsl #30
    2c28:	00a64830 	adceq	r4, r6, r0, lsr r8
    2c2c:	23020000 	movwcs	r0, #8192	; 0x2000
    2c30:	261d0e66 	ldrcs	r0, [sp], -r6, ror #28
    2c34:	49300000 	ldmdbmi	r0!, {}
    2c38:	00000335 	andeq	r0, r0, r5, lsr r3
    2c3c:	00682302 	rsbeq	r2, r8, r2, lsl #6
    2c40:	0016aa10 	andseq	sl, r6, r0, lsl sl
    2c44:	89301800 	ldmdbhi	r0!, {fp, ip}
    2c48:	00002c77 	andeq	r2, r0, r7, ror ip
    2c4c:	0019920e 	andseq	r9, r9, lr, lsl #4
    2c50:	e78a3000 	str	r3, [sl, r0]
    2c54:	02000000 	andeq	r0, r0, #0
    2c58:	a80e0023 	stmdage	lr, {r0, r1, r5}
    2c5c:	3000001d 	andcc	r0, r0, sp, lsl r0
    2c60:	0000e78b 	andeq	lr, r0, fp, lsl #15
    2c64:	08230200 	stmdaeq	r3!, {r9}
    2c68:	0010490e 	andseq	r4, r0, lr, lsl #18
    2c6c:	d58c3000 	strle	r3, [ip]
    2c70:	02000000 	andeq	r0, r0, #0
    2c74:	0b001023 	bleq	6d08 <.debug_info+0x6d08>
    2c78:	000017ce 	andeq	r1, r0, lr, asr #15
    2c7c:	2c408d30 	mcrrcs	13, 3, r8, r0, cr0
    2c80:	54100000 	ldrpl	r0, [r0]
    2c84:	50000006 	andpl	r0, r0, r6
    2c88:	2d298f30 	stccs	15, cr8, [r9, #-192]!	; 0xffffff40
    2c8c:	050e0000 	streq	r0, [lr]
    2c90:	30000021 	andcc	r0, r0, r1, lsr #32
    2c94:	00008290 	muleq	r0, r0, r2
    2c98:	00230200 	eoreq	r0, r3, r0, lsl #4
    2c9c:	0021740e 	eoreq	r7, r1, lr, lsl #8
    2ca0:	b8913000 	ldmlt	r1, {ip, sp}
    2ca4:	02000000 	andeq	r0, r0, #0
    2ca8:	e70e0223 	str	r0, [lr, -r3, lsr #4]
    2cac:	3000001b 	andcc	r0, r0, fp, lsl r0
    2cb0:	00008292 	muleq	r0, r2, r2
    2cb4:	04230200 	strteq	r0, [r3], #-512	; 0x200
    2cb8:	0027210e 	eoreq	r2, r7, lr, lsl #2
    2cbc:	77933000 	ldrvc	r3, [r3, r0]
    2cc0:	0200002c 	andeq	r0, r0, #44	; 0x2c
    2cc4:	ec0e0823 	stc	8, cr0, [lr], {35}	; 0x23
    2cc8:	3000002d 	andcc	r0, r0, sp, lsr #32
    2ccc:	002c7794 	mlaeq	ip, r4, r7, r7
    2cd0:	20230200 	eorcs	r0, r3, r0, lsl #4
    2cd4:	0021150e 	eoreq	r1, r1, lr, lsl #10
    2cd8:	d5953000 	ldrle	r3, [r5]
    2cdc:	02000000 	andeq	r0, r0, #0
    2ce0:	550e3823 	strpl	r3, [lr, #-2083]	; 0x823
    2ce4:	30000023 	andcc	r0, r0, r3, lsr #32
    2ce8:	0000ca96 	muleq	r0, r6, sl
    2cec:	3c230200 	sfmcc	f0, 4, [r3]	; (stccc 2, cr0, [r3])
    2cf0:	001ac80e 	andseq	ip, sl, lr, lsl #16
    2cf4:	ca973000 	bgt	fe5cecfc <tz_ioctl+0xfe5ceab0>
    2cf8:	02000000 	andeq	r0, r0, #0
    2cfc:	bf0e4023 	svclt	0x000e4023
    2d00:	3000001e 	andcc	r0, r0, lr, lsl r0
    2d04:	0000ca98 	muleq	r0, r8, sl
    2d08:	44230200 	strtmi	r0, [r3], #-512	; 0x200
    2d0c:	0012770e 	andseq	r7, r2, lr, lsl #14
    2d10:	b8993000 	ldmlt	r9, {ip, sp}
    2d14:	02000000 	andeq	r0, r0, #0
    2d18:	bd0e4823 	stclt	8, cr4, [lr, #-140]	; 0xffffff74
    2d1c:	30000009 	andcc	r0, r0, r9
    2d20:	0000b89a 	muleq	r0, sl, r8
    2d24:	4a230200 	bmi	8c352c <tz_ioctl+0x8c32e0>
    2d28:	2f040600 	svccs	0x00040600
    2d2c:	1000002d 	andne	r0, r0, sp, lsr #32
    2d30:	00002919 	andeq	r2, r0, r9, lsl r9
    2d34:	001131c0 	andseq	r3, r1, r0, asr #3
    2d38:	1200002e 	andne	r0, r0, #46	; 0x2e
    2d3c:	00000eb7 	undefined instruction 0x00000eb7
    2d40:	eb01092f 	bl	45204 <tz_ioctl+0x44fb8>
    2d44:	02000002 	andeq	r0, r0, #2
    2d48:	04120023 	ldreq	r0, [r2], #-35	; 0x23
    2d4c:	2f00002d 	svccs	0x0000002d
    2d50:	029f010a 	addseq	r0, pc, #-2147483646	; 0x80000002
    2d54:	23020000 	movwcs	r0, #8192	; 0x2000
    2d58:	23e61208 	mvncs	r1, #-2147483648	; 0x80000000
    2d5c:	0b2f0000 	bleq	bc2d64 <tz_ioctl+0xbc2b18>
    2d60:	00029f01 	andeq	r9, r2, r1, lsl #30
    2d64:	10230200 	eorne	r0, r3, r0, lsl #4
    2d68:	00212212 	eoreq	r2, r1, r2, lsl r2
    2d6c:	010c2f00 	tsteq	ip, r0, lsl #30
    2d70:	0000029f 	muleq	r0, pc, r2
    2d74:	12182302 	andsne	r2, r8, #134217728	; 0x8000000
    2d78:	000004f8 	strdeq	r0, [r0], -r8
    2d7c:	4b010d2f 	blmi	46240 <tz_ioctl+0x45ff4>
    2d80:	0200000e 	andeq	r0, r0, #14
    2d84:	f9122023 	undefined instruction 0xf9122023
    2d88:	2f000015 	svccs	0x00000015
    2d8c:	0294010e 	addseq	r0, r4, #-2147483645	; 0x80000003
    2d90:	23020000 	movwcs	r0, #8192	; 0x2000
    2d94:	16021248 	strne	r1, [r2], -r8, asr #4
    2d98:	0f2f0000 	svceq	0x002f0000
    2d9c:	000a0301 	andeq	r0, sl, r1, lsl #6
    2da0:	4c230200 	sfmmi	f0, 4, [r3]	; (stcmi 2, cr0, [r3])
    2da4:	0025e812 	eoreq	lr, r5, r2, lsl r8
    2da8:	01102f00 	tsteq	r0, r0, lsl #30
    2dac:	0000251a 	andeq	r2, r0, sl, lsl r5
    2db0:	12642302 	rsbne	r2, r4, #134217728	; 0x8000000
    2db4:	00001d87 	andeq	r1, r0, r7, lsl #27
    2db8:	5501112f 	strpl	r1, [r1, #-303]	; 0x12f
    2dbc:	02000000 	andeq	r0, r0, #0
    2dc0:	a9126823 	ldmdbge	r2, {r0, r1, r5, fp, sp, lr}
    2dc4:	2f00002d 	svccs	0x0000002d
    2dc8:	01de0112 	bicseq	r0, lr, r2, lsl r1
    2dcc:	23020000 	movwcs	r0, #8192	; 0x2000
    2dd0:	2b6c1270 	blcs	1b049c8 <tz_ioctl+0x1b0477c>
    2dd4:	132f0000 	teqne	pc, #0
    2dd8:	00002901 	andeq	r2, r0, r1, lsl #18
    2ddc:	78230200 	stmdavc	r3!, {r9}
    2de0:	0011a712 	andseq	sl, r1, r2, lsl r7
    2de4:	01142f00 	tsteq	r4, r0, lsl #30
    2de8:	000000b1 	strheq	r0, [r0], -r1
    2dec:	127c2302 	rsbsne	r2, ip, #134217728	; 0x8000000
    2df0:	000002b1 	undefined instruction 0x000002b1
    2df4:	1601152f 	strne	r1, [r1], -pc, lsr #10
    2df8:	0300002e 	movweq	r0, #46	; 0x2e
    2dfc:	00018023 	andeq	r8, r1, r3, lsr #32
    2e00:	0007c20b 	andeq	ip, r7, fp, lsl #4
    2e04:	69b62f00 	ldmibvs	r6!, {r8, r9, sl, fp, sp}
    2e08:	0b000001 	bleq	2e14 <.debug_info+0x2e14>
    2e0c:	00000e6a 	andeq	r0, r0, sl, ror #28
    2e10:	00e0b72f 	rsceq	fp, r0, pc, lsr #14
    2e14:	d2100000 	andsle	r0, r0, #0
    2e18:	40000000 	andmi	r0, r0, r0
    2e1c:	2ea1c52f 	cdpcs	5, 10, cr12, cr1, cr15, {1}
    2e20:	f90e0000 	undefined instruction 0xf90e0000
    2e24:	2f000023 	svccs	0x00000023
    2e28:	002e0bc6 	eoreq	r0, lr, r6, asr #23
    2e2c:	00230200 	eoreq	r0, r3, r0, lsl #4
    2e30:	002c990e 	eoreq	r9, ip, lr, lsl #18
    2e34:	0bc72f00 	bleq	ff1cea3c <tz_ioctl+0xff1ce7f0>
    2e38:	0200002e 	andeq	r0, r0, #46	; 0x2e
    2e3c:	510e0823 	tstpl	lr, r3, lsr #16
    2e40:	2f00002d 	svccs	0x0000002d
    2e44:	002e0bc8 	eoreq	r0, lr, r8, asr #23
    2e48:	10230200 	eorne	r0, r3, r0, lsl #4
    2e4c:	002d850e 	eoreq	r8, sp, lr, lsl #10
    2e50:	0bc92f00 	bleq	ff24ea58 <tz_ioctl+0xff24e80c>
    2e54:	0200002e 	andeq	r0, r0, #46	; 0x2e
    2e58:	070e1823 	streq	r1, [lr, -r3, lsr #16]
    2e5c:	2f000004 	svccs	0x00000004
    2e60:	002e0bca 	eoreq	r0, lr, sl, asr #23
    2e64:	20230200 	eorcs	r0, r3, r0, lsl #4
    2e68:	0024270e 	eoreq	r2, r4, lr, lsl #14
    2e6c:	0bcb2f00 	bleq	ff2cea74 <tz_ioctl+0xff2ce828>
    2e70:	0200002e 	andeq	r0, r0, #46	; 0x2e
    2e74:	f30e2823 	vsub.i8	d2, d14, d19
    2e78:	2f000019 	svccs	0x00000019
    2e7c:	002e0bcc 	eoreq	r0, lr, ip, asr #23
    2e80:	30230200 	eorcc	r0, r3, r0, lsl #4
    2e84:	002a730e 	eoreq	r7, sl, lr, lsl #6
    2e88:	ffcd2f00 	undefined instruction 0xffcd2f00
    2e8c:	02000001 	andeq	r0, r0, #1
    2e90:	310e3823 	tstcc	lr, r3, lsr #16
    2e94:	2f000003 	svccs	0x00000003
    2e98:	0001ffce 	andeq	pc, r1, lr, asr #31
    2e9c:	3c230200 	sfmcc	f0, 4, [r3]	; (stccc 2, cr0, [r3])
    2ea0:	1ad61000 	bne	ff584008 <tz_ioctl+0xff583dbc>
    2ea4:	2f380000 	svccs	0x00380000
    2ea8:	002f2cd6 	ldrdeq	r2, [pc], -r6
    2eac:	27f10e00 	ldrbcs	r0, [r1, r0, lsl #28]!
    2eb0:	d72f0000 	strle	r0, [pc, -r0]!
    2eb4:	00002f75 	andeq	r2, r0, r5, ror pc
    2eb8:	0e002302 	cdpeq	3, 0, cr2, cr0, cr2, {0}
    2ebc:	00002d2a 	andeq	r2, r0, sl, lsr #26
    2ec0:	0068d82f 	rsbeq	sp, r8, pc, lsr #16
    2ec4:	23020000 	movwcs	r0, #8192	; 0x2000
    2ec8:	0c970e04 	ldceq	14, cr0, [r7], {4}
    2ecc:	da2f0000 	ble	bc2ed4 <tz_ioctl+0xbc2c88>
    2ed0:	0000029f 	muleq	r0, pc, r2
    2ed4:	0e082302 	cdpeq	3, 0, cr2, cr8, cr2, {0}
    2ed8:	00002b28 	andeq	r2, r0, r8, lsr #22
    2edc:	0029db2f 	eoreq	sp, r9, pc, lsr #22
    2ee0:	23020000 	movwcs	r0, #8192	; 0x2000
    2ee4:	0e5f0e10 	mrceq	14, 2, r0, cr15, cr0, {0}
    2ee8:	dc2f0000 	stcle	0, cr0, [pc]
    2eec:	00000055 	andeq	r0, r0, r5, asr r0
    2ef0:	0e142302 	cdpeq	3, 1, cr2, cr4, cr2, {0}
    2ef4:	00001bdc 	ldrdeq	r1, [r0], -ip
    2ef8:	0055dd2f 	subseq	sp, r5, pc, lsr #26
    2efc:	23020000 	movwcs	r0, #8192	; 0x2000
    2f00:	067a0e18 	undefined instruction 0x067a0e18
    2f04:	de2f0000 	cdple	0, 2, cr0, cr15, cr0, {0}
    2f08:	00002e0b 	andeq	r2, r0, fp, lsl #28
    2f0c:	0e202302 	cdpeq	3, 2, cr2, cr0, cr2, {0}
    2f10:	000015ce 	andeq	r1, r0, lr, asr #11
    2f14:	2e0bdf2f 	cdpcs	15, 0, cr13, cr11, cr15, {1}
    2f18:	23020000 	movwcs	r0, #8192	; 0x2000
    2f1c:	0a1a0e28 	beq	6838a8 <tz_ioctl+0x68365c>
    2f20:	e02f0000 	eor	r0, pc, r0
    2f24:	00000323 	andeq	r0, r0, r3, lsr #6
    2f28:	00302302 	eorseq	r2, r0, r2, lsl #6
    2f2c:	002e4d10 	eoreq	r4, lr, r0, lsl sp
    2f30:	d42f1000 	strtle	r1, [pc], #0	; 2f38 <.debug_info+0x2f38>
    2f34:	00002f75 	andeq	r2, r0, r5, ror pc
    2f38:	0025b712 	eoreq	fp, r5, r2, lsl r7
    2f3c:	01512f00 	cmpeq	r1, r0, lsl #30
    2f40:	00000068 	andeq	r0, r0, r8, rrx
    2f44:	12002302 	andne	r2, r0, #134217728	; 0x8000000
    2f48:	000014e6 	andeq	r1, r0, r6, ror #9
    2f4c:	1001522f 	andne	r5, r1, pc, lsr #4
    2f50:	02000034 	andeq	r0, r0, #52	; 0x34
    2f54:	72120423 	andsvc	r0, r2, #587202560	; 0x23000000
    2f58:	2f000000 	svccs	0x00000000
    2f5c:	13f30153 	mvnsne	r0, #-1073741804	; 0xc0000014
    2f60:	23020000 	movwcs	r0, #8192	; 0x2000
    2f64:	0e011208 	cdpeq	2, 0, cr1, cr1, cr8, {0}
    2f68:	542f0000 	strtpl	r0, [pc], #0	; 2f70 <.debug_info+0x2f70>
    2f6c:	002f7501 	eoreq	r7, pc, r1, lsl #10
    2f70:	0c230200 	sfmeq	f0, 4, [r3]	; (stceq 2, cr0, [r3])
    2f74:	2c040600 	stccs	6, cr0, [r4], {0}
    2f78:	1100002f 	tstne	r0, pc, lsr #32
    2f7c:	000016c0 	andeq	r1, r0, r0, asr #13
    2f80:	011c2f1c 	tsteq	ip, ip, lsl pc
    2f84:	00002ff2 	strdeq	r2, [r0], -r2
    2f88:	0022f712 	eoreq	pc, r2, r2, lsl r7
    2f8c:	011d2f00 	tsteq	sp, r0, lsl #30
    2f90:	00003007 	andeq	r3, r0, r7
    2f94:	12002302 	andne	r2, r0, #134217728	; 0x8000000
    2f98:	000015dc 	ldrdeq	r1, [r0], -ip
    2f9c:	07011e2f 	streq	r1, [r1, -pc, lsr #28]
    2fa0:	02000030 	andeq	r0, r0, #48	; 0x30
    2fa4:	28120423 	ldmdacs	r2, {r0, r1, r5, sl}
    2fa8:	2f000026 	svccs	0x00000026
    2fac:	3007011f 	andcc	r0, r7, pc, lsl r1
    2fb0:	23020000 	movwcs	r0, #8192	; 0x2000
    2fb4:	0e981208 	cdpeq	2, 9, cr1, cr8, cr8, {0}
    2fb8:	202f0000 	eorcs	r0, pc, r0
    2fbc:	00300701 	eorseq	r0, r0, r1, lsl #14
    2fc0:	0c230200 	sfmeq	f0, 4, [r3]	; (stceq 2, cr0, [r3])
    2fc4:	0023a512 	eoreq	sl, r3, r2, lsl r5
    2fc8:	01212f00 	teqeq	r1, r0, lsl #30
    2fcc:	0000301d 	andeq	r3, r0, sp, lsl r0
    2fd0:	12102302 	andsne	r2, r0, #134217728	; 0x8000000
    2fd4:	00002b83 	andeq	r2, r0, r3, lsl #23
    2fd8:	1d01222f 	sfmne	f2, 4, [r1, #-188]	; (stcne 2, cr2, [r1, #-188])	; 0xffffff44
    2fdc:	02000030 	andeq	r0, r0, #48	; 0x30
    2fe0:	84121423 	ldrhi	r1, [r2], #-1059	; 0x423
    2fe4:	2f000016 	svccs	0x00000016
    2fe8:	301d0123 	andscc	r0, sp, r3, lsr #2
    2fec:	23020000 	movwcs	r0, #8192	; 0x2000
    2ff0:	011a0018 	tsteq	sl, r8, lsl r0
    2ff4:	00000068 	andeq	r0, r0, r8, rrx
    2ff8:	00003007 	andeq	r3, r0, r7
    2ffc:	00251a1b 	eoreq	r1, r5, fp, lsl sl
    3000:	00681b00 	rsbeq	r1, r8, r0, lsl #22
    3004:	06000000 	streq	r0, [r0], -r0
    3008:	002ff204 	eoreq	pc, pc, r4, lsl #4
    300c:	68011a00 	stmdavs	r1, {r9, fp, ip}
    3010:	1d000000 	stcne	0, cr0, [r0]
    3014:	1b000030 	blne	30dc <.debug_info+0x30dc>
    3018:	00002d29 	andeq	r2, r0, r9, lsr #26
    301c:	0d040600 	stceq	6, cr0, [r4]
    3020:	11000030 	tstne	r0, r0, lsr r0
    3024:	00000617 	andeq	r0, r0, r7, lsl r6
    3028:	01272f48 	teqeq	r7, r8, asr #30
    302c:	0000313f 	andeq	r3, r0, pc, lsr r1
    3030:	0024e012 	eoreq	lr, r4, r2, lsl r0
    3034:	01282f00 	teqeq	r8, r0, lsl #30
    3038:	00003154 	andeq	r3, r0, r4, asr r1
    303c:	12002302 	andne	r2, r0, #134217728	; 0x8000000
    3040:	00000cb5 	undefined instruction 0x00000cb5
    3044:	6a01292f 	bvs	4d508 <tz_ioctl+0x4d2bc>
    3048:	02000031 	andeq	r0, r0, #49	; 0x31
    304c:	47120423 	ldrmi	r0, [r2, -r3, lsr #8]
    3050:	2f000012 	svccs	0x00000012
    3054:	318a012a 	orrcc	r0, sl, sl, lsr #2
    3058:	23020000 	movwcs	r0, #8192	; 0x2000
    305c:	1eaa1208 	cdpne	2, 10, cr1, cr10, cr8, {0}
    3060:	2b2f0000 	blcs	bc3068 <tz_ioctl+0xbc2e1c>
    3064:	0031b401 	eorseq	fp, r1, r1, lsl #8
    3068:	0c230200 	sfmeq	f0, 4, [r3]	; (stceq 2, cr0, [r3])
    306c:	0024c712 	eoreq	ip, r4, r2, lsl r7
    3070:	012c2f00 	teqeq	ip, r0, lsl #30
    3074:	000031cf 	andeq	r3, r0, pc, asr #3
    3078:	12102302 	andsne	r2, r0, #134217728	; 0x8000000
    307c:	0000017e 	andeq	r0, r0, lr, ror r1
    3080:	b4012d2f 	strlt	r2, [r1], #-3375	; 0xd2f
    3084:	02000031 	andeq	r0, r0, #49	; 0x31
    3088:	6b121423 	blvs	485094 <tz_ioctl+0x484e48>
    308c:	2f000004 	svccs	0x00000004
    3090:	31f0012e 	mvnscc	r0, lr, lsr #2
    3094:	23020000 	movwcs	r0, #8192	; 0x2000
    3098:	206d1218 	rsbcs	r1, sp, r8, lsl r2
    309c:	2f2f0000 	svccs	0x002f0000
    30a0:	00301d01 	eorseq	r1, r0, r1, lsl #26
    30a4:	1c230200 	sfmne	f0, 4, [r3]	; (stcne 2, cr0, [r3])
    30a8:	000e7a12 	andeq	r7, lr, r2, lsl sl
    30ac:	01302f00 	teqeq	r0, r0, lsl #30
    30b0:	0000320b 	andeq	r3, r0, fp, lsl #4
    30b4:	12202302 	eorne	r2, r0, #134217728	; 0x8000000
    30b8:	00000662 	andeq	r0, r0, r2, ror #12
    30bc:	1d01312f 	stfnes	f3, [r1, #-188]	; 0xffffff44
    30c0:	02000032 	andeq	r0, r0, #50	; 0x32
    30c4:	aa122423 	bge	489094 <tz_ioctl+0x488e48>
    30c8:	2f00002a 	svccs	0x0000002a
    30cc:	301d0132 	andscc	r0, sp, r2, lsr r1
    30d0:	23020000 	movwcs	r0, #8192	; 0x2000
    30d4:	11e21228 	mvnne	r1, r8, lsr #4
    30d8:	332f0000 	teqcc	pc, #0
    30dc:	00301d01 	eorseq	r1, r0, r1, lsl #26
    30e0:	2c230200 	sfmcs	f0, 4, [r3]	; (stccs 2, cr0, [r3])
    30e4:	00286c12 	eoreq	r6, r8, r2, lsl ip
    30e8:	01342f00 	teqeq	r4, r0, lsl #30
    30ec:	0000301d 	andeq	r3, r0, sp, lsl r0
    30f0:	12302302 	eorsne	r2, r0, #134217728	; 0x8000000
    30f4:	00000649 	andeq	r0, r0, r9, asr #12
    30f8:	0701352f 	streq	r3, [r1, -pc, lsr #10]
    30fc:	02000030 	andeq	r0, r0, #48	; 0x30
    3100:	18123423 	ldmdane	r2, {r0, r1, r5, sl, ip, sp}
    3104:	2f000019 	svccs	0x00000019
    3108:	318a0137 	orrcc	r0, sl, r7, lsr r1
    310c:	23020000 	movwcs	r0, #8192	; 0x2000
    3110:	1f5e1238 	svcne	0x005e1238
    3114:	392f0000 	stmdbcc	pc!, {}
    3118:	0031cf01 	eorseq	ip, r1, r1, lsl #30
    311c:	3c230200 	sfmcc	f0, 4, [r3]	; (stccc 2, cr0, [r3])
    3120:	00275e12 	eoreq	r5, r7, r2, lsl lr
    3124:	013b2f00 	teqeq	fp, r0, lsl #30
    3128:	00003234 	andeq	r3, r0, r4, lsr r2
    312c:	12402302 	subne	r2, r0, #134217728	; 0x8000000
    3130:	00002342 	andeq	r2, r0, r2, asr #6
    3134:	50013e2f 	andpl	r3, r1, pc, lsr #28
    3138:	02000032 	andeq	r0, r0, #50	; 0x32
    313c:	1a004423 	bne	141d0 <tz_ioctl+0x13f84>
    3140:	00006801 	andeq	r6, r0, r1, lsl #16
    3144:	00315400 	eorseq	r5, r1, r0, lsl #8
    3148:	22221b00 	eorcs	r1, r2, #0
    314c:	681b0000 	ldmdavs	fp, {}
    3150:	00000000 	andeq	r0, r0, r0
    3154:	313f0406 	teqcc	pc, r6, lsl #8
    3158:	011a0000 	tsteq	sl, r0
    315c:	00000068 	andeq	r0, r0, r8, rrx
    3160:	0000316a 	andeq	r3, r0, sl, ror #2
    3164:	0022221b 	eoreq	r2, r2, fp, lsl r2
    3168:	04060000 	streq	r0, [r6]
    316c:	0000315a 	andeq	r3, r0, sl, asr r1
    3170:	0068011a 	rsbeq	r0, r8, sl, lsl r1
    3174:	318a0000 	orrcc	r0, sl, r0
    3178:	221b0000 	andscs	r0, fp, #0
    317c:	1b000022 	blne	320c <.debug_info+0x320c>
    3180:	00002e0b 	andeq	r2, r0, fp, lsl #28
    3184:	0000681b 	andeq	r6, r0, fp, lsl r8
    3188:	04060000 	streq	r0, [r6]
    318c:	00003170 	andeq	r3, r0, r0, ror r1
    3190:	0068011a 	rsbeq	r0, r8, sl, lsl r1
    3194:	31a50000 	undefined instruction 0x31a50000
    3198:	a51b0000 	ldrge	r0, [fp]
    319c:	1b000031 	blne	3268 <.debug_info+0x3268>
    31a0:	00002e0b 	andeq	r2, r0, fp, lsl #28
    31a4:	ab040600 	blge	1049ac <tz_ioctl+0x104760>
    31a8:	29000031 	stmdbcs	r0, {r0, r4, r5}
    31ac:	00000a07 	andeq	r0, r0, r7, lsl #20
    31b0:	00001f8f 	andeq	r1, r0, pc, lsl #31
    31b4:	31900406 	orrscc	r0, r0, r6, lsl #8
    31b8:	011a0000 	tsteq	sl, r0
    31bc:	00000068 	andeq	r0, r0, r8, rrx
    31c0:	000031cf 	andeq	r3, r0, pc, asr #3
    31c4:	0022221b 	eoreq	r2, r2, fp, lsl r2
    31c8:	2e0b1b00 	vmlacs.f64	d1, d11, d0
    31cc:	06000000 	streq	r0, [r0], -r0
    31d0:	0031ba04 	eorseq	fp, r1, r4, lsl #20
    31d4:	68011a00 	stmdavs	r1, {r9, fp, ip}
    31d8:	ea000000 	b	31e0 <.debug_info+0x31e0>
    31dc:	1b000031 	blne	32a8 <.debug_info+0x32a8>
    31e0:	00002222 	andeq	r2, r0, r2, lsr #4
    31e4:	0031ea1b 	eorseq	lr, r1, fp, lsl sl
    31e8:	04060000 	streq	r0, [r6]
    31ec:	000028a2 	andeq	r2, r0, r2, lsr #17
    31f0:	31d50406 	bicscc	r0, r5, r6, lsl #8
    31f4:	011a0000 	tsteq	sl, r0
    31f8:	00002d29 	andeq	r2, r0, r9, lsr #26
    31fc:	0000320b 	andeq	r3, r0, fp, lsl #4
    3200:	00251a1b 	eoreq	r1, r5, fp, lsl sl
    3204:	00681b00 	rsbeq	r1, r8, r0, lsl #22
    3208:	06000000 	streq	r0, [r0], -r0
    320c:	0031f604 	eorseq	pc, r1, r4, lsl #12
    3210:	1d012100 	stfnes	f2, [r1]
    3214:	1b000032 	blne	32e4 <.debug_info+0x32e4>
    3218:	00002d29 	andeq	r2, r0, r9, lsr #26
    321c:	11040600 	tstne	r4, r0, lsl #12
    3220:	21000032 	tstcs	r0, r2, lsr r0
    3224:	00323401 	eorseq	r3, r2, r1, lsl #8
    3228:	22221b00 	eorcs	r1, r2, #0
    322c:	0b1b0000 	bleq	6c3234 <tz_ioctl+0x6c2fe8>
    3230:	0000002e 	andeq	r0, r0, lr, lsr #32
    3234:	32230406 	eorcc	r0, r3, #100663296	; 0x6000000
    3238:	011a0000 	tsteq	sl, r0
    323c:	0000324a 	andeq	r3, r0, sl, asr #4
    3240:	0000324a 	andeq	r3, r0, sl, asr #4
    3244:	0022221b 	eoreq	r2, r2, fp, lsl r2
    3248:	04060000 	streq	r0, [r6]
    324c:	00002e0b 	andeq	r2, r0, fp, lsl #28
    3250:	323a0406 	eorscc	r0, sl, #100663296	; 0x6000000
    3254:	f2110000 	vhadd.s16	d0, d1, d0
    3258:	2c000006 	stccs	0, cr0, [r0], {6}
    325c:	0901422f 	stmdbeq	r1, {r0, r1, r2, r3, r5, r9, lr}
    3260:	12000033 	andne	r0, r0, #51	; 0x33
    3264:	00002b1f 	andeq	r2, r0, pc, lsl fp
    3268:	2d01432f 	stccs	3, cr4, [r1, #-188]	; 0xffffff44
    326c:	02000033 	andeq	r0, r0, #51	; 0x33
    3270:	f1120023 	undefined instruction 0xf1120023
    3274:	2f00002f 	svccs	0x0000002f
    3278:	334d0144 	movtcc	r0, #53572	; 0xd144
    327c:	23020000 	movwcs	r0, #8192	; 0x2000
    3280:	0d541204 	lfmeq	f1, 2, [r4, #-16]	; (ldcleq 2, cr1, [r4, #-16])
    3284:	452f0000 	strmi	r0, [pc, #0]!	; 328c <.debug_info+0x328c>
    3288:	00300701 	eorseq	r0, r0, r1, lsl #14
    328c:	08230200 	stmdaeq	r3!, {r9}
    3290:	00108e12 	andseq	r8, r0, r2, lsl lr
    3294:	01462f00 	cmpeq	r6, r0, lsl #30
    3298:	00003373 	andeq	r3, r0, r3, ror r3
    329c:	120c2302 	andne	r2, ip, #134217728	; 0x8000000
    32a0:	000016d1 	ldrdeq	r1, [r0], -r1
    32a4:	7301472f 	movwvc	r4, #5935	; 0x172f
    32a8:	02000033 	andeq	r0, r0, #51	; 0x33
    32ac:	a7121023 	ldrge	r1, [r2, -r3, lsr #32]
    32b0:	2f000002 	svccs	0x00000002
    32b4:	339e0148 	orrscc	r0, lr, #18
    32b8:	23020000 	movwcs	r0, #8192	; 0x2000
    32bc:	2f161214 	svccs	0x00161214
    32c0:	492f0000 	stmdbmi	pc!, {}
    32c4:	00339e01 	eorseq	r9, r3, r1, lsl #28
    32c8:	18230200 	stmdane	r3!, {r9}
    32cc:	0023ee12 	eoreq	lr, r3, r2, lsl lr
    32d0:	014a2f00 	cmpeq	sl, r0, lsl #30
    32d4:	000033bf 	undefined instruction 0x000033bf
    32d8:	121c2302 	andsne	r2, ip, #134217728	; 0x8000000
    32dc:	00001659 	andeq	r1, r0, r9, asr r6
    32e0:	df014b2f 	svcle	0x00014b2f
    32e4:	02000033 	andeq	r0, r0, #51	; 0x33
    32e8:	42122023 	andsmi	r2, r2, #35	; 0x23
    32ec:	2f00002e 	svccs	0x0000002e
    32f0:	340a014c 	strcc	r0, [sl], #-332	; 0x14c
    32f4:	23020000 	movwcs	r0, #8192	; 0x2000
    32f8:	207f1224 	rsbscs	r1, pc, r4, lsr #4
    32fc:	4d2f0000 	stcmi	0, cr0, [pc]
    3300:	00340a01 	eorseq	r0, r4, r1, lsl #20
    3304:	28230200 	stmdacs	r3!, {r9}
    3308:	68011a00 	stmdavs	r1, {r9, fp, ip}
    330c:	2d000000 	stccs	0, cr0, [r0]
    3310:	1b000033 	blne	33e4 <.debug_info+0x33e4>
    3314:	0000251a 	andeq	r2, r0, sl, lsl r5
    3318:	0000681b 	andeq	r6, r0, fp, lsl r8
    331c:	00681b00 	rsbeq	r1, r8, r0, lsl #22
    3320:	631b0000 	tstvs	fp, #0
    3324:	1b000001 	blne	3330 <.debug_info+0x3330>
    3328:	00000068 	andeq	r0, r0, r8, rrx
    332c:	09040600 	stmdbeq	r4, {r9, sl}
    3330:	1a000033 	bne	3404 <.debug_info+0x3404>
    3334:	00006801 	andeq	r6, r0, r1, lsl #16
    3338:	00334d00 	eorseq	r4, r3, r0, lsl #26
    333c:	251a1b00 	ldrcs	r1, [sl, #-2816]	; 0xb00
    3340:	681b0000 	ldmdavs	fp, {}
    3344:	1b000000 	blne	334c <.debug_info+0x334c>
    3348:	00000068 	andeq	r0, r0, r8, rrx
    334c:	33040600 	movwcc	r0, #17920	; 0x4600
    3350:	1a000033 	bne	3424 <.debug_info+0x3424>
    3354:	00006801 	andeq	r6, r0, r1, lsl #16
    3358:	00336d00 	eorseq	r6, r3, r0, lsl #26
    335c:	251a1b00 	ldrcs	r1, [sl, #-2816]	; 0xb00
    3360:	681b0000 	ldmdavs	fp, {}
    3364:	1b000000 	blne	336c <.debug_info+0x336c>
    3368:	0000336d 	andeq	r3, r0, sp, ror #6
    336c:	ba040600 	blt	104b74 <tz_ioctl+0x104928>
    3370:	0600002a 	streq	r0, [r0], -sl, lsr #32
    3374:	00335304 	eorseq	r5, r3, r4, lsl #6
    3378:	68011a00 	stmdavs	r1, {r9, fp, ip}
    337c:	98000000 	stmdals	r0, {}
    3380:	1b000033 	blne	3454 <.debug_info+0x3454>
    3384:	0000251a 	andeq	r2, r0, sl, lsl r5
    3388:	0000681b 	andeq	r6, r0, fp, lsl r8
    338c:	2e001b00 	vmlacs.f64	d1, d0, d0
    3390:	981b0000 	ldmdals	fp, {}
    3394:	00000033 	andeq	r0, r0, r3, lsr r0
    3398:	2a2f0406 	bcs	bc43b8 <tz_ioctl+0xbc416c>
    339c:	04060000 	streq	r0, [r6]
    33a0:	00003379 	andeq	r3, r0, r9, ror r3
    33a4:	0068011a 	rsbeq	r0, r8, sl, lsl r1
    33a8:	33b90000 	undefined instruction 0x33b90000
    33ac:	1a1b0000 	bne	6c33b4 <tz_ioctl+0x6c3168>
    33b0:	1b000025 	blne	344c <.debug_info+0x344c>
    33b4:	000033b9 	undefined instruction 0x000033b9
    33b8:	82040600 	andhi	r0, r4, #0
    33bc:	0600002c 	streq	r0, [r0], -ip, lsr #32
    33c0:	0033a404 	eorseq	sl, r3, r4, lsl #8
    33c4:	68011a00 	stmdavs	r1, {r9, fp, ip}
    33c8:	df000000 	svcle	0x00000000
    33cc:	1b000033 	blne	34a0 <.debug_info+0x34a0>
    33d0:	0000251a 	andeq	r2, r0, sl, lsl r5
    33d4:	0000551b 	andeq	r5, r0, fp, lsl r5
    33d8:	00681b00 	rsbeq	r1, r8, r0, lsl #22
    33dc:	06000000 	streq	r0, [r0], -r0
    33e0:	0033c504 	eorseq	ip, r3, r4, lsl #10
    33e4:	68011a00 	stmdavs	r1, {r9, fp, ip}
    33e8:	04000000 	streq	r0, [r0]
    33ec:	1b000034 	blne	34c4 <.debug_info+0x34c4>
    33f0:	0000251a 	andeq	r2, r0, sl, lsl r5
    33f4:	0000681b 	andeq	r6, r0, fp, lsl r8
    33f8:	2e001b00 	vmlacs.f64	d1, d0, d0
    33fc:	041b0000 	ldreq	r0, [fp]
    3400:	00000034 	andeq	r0, r0, r4, lsr r0
    3404:	2aff0406 	bcs	fffc4424 <tz_ioctl+0xfffc41d8>
    3408:	04060000 	streq	r0, [r6]
    340c:	000033e5 	andeq	r3, r0, r5, ror #7
    3410:	2f7b0406 	svccs	0x007b0406
    3414:	7a110000 	bvc	440008 <tz_ioctl+0x43fdbc>
    3418:	f000000c 	undefined instruction 0xf000000c
    341c:	8e017c2f 	cdphi	12, 0, cr7, cr1, cr15, {1}
    3420:	12000034 	andne	r0, r0, #52	; 0x34
    3424:	00003043 	andeq	r3, r0, r3, asr #32
    3428:	55017d2f 	strpl	r7, [r1, #-3375]	; 0xd2f
    342c:	02000000 	andeq	r0, r0, #0
    3430:	76120023 	ldrvc	r0, [r2], -r3, lsr #32
    3434:	2f000007 	svccs	0x00000007
    3438:	0e4b017e 	mcreq	1, 2, r0, cr11, cr14, {3}
    343c:	23020000 	movwcs	r0, #8192	; 0x2000
    3440:	03f21204 	mvnseq	r1, #1073741824	; 0x40000000
    3444:	7f2f0000 	svcvc	0x002f0000
    3448:	000e4b01 	andeq	r4, lr, r1, lsl #22
    344c:	2c230200 	sfmcs	f0, 4, [r3]	; (stccs 2, cr0, [r3])
    3450:	0010dd12 	andseq	sp, r0, r2, lsl sp
    3454:	01802f00 	orreq	r2, r0, r0, lsl #30
    3458:	00000eb2 	undefined instruction 0x00000eb2
    345c:	12542302 	subsne	r2, r4, #134217728	; 0x8000000
    3460:	00001362 	andeq	r1, r0, r2, ror #6
    3464:	8e01812f 	mvfhisp	f0, #10.0
    3468:	02000034 	andeq	r0, r0, #52	; 0x34
    346c:	b2127023 	andslt	r7, r2, #35	; 0x23
    3470:	2f00000b 	svccs	0x0000000b
    3474:	349e0182 	ldrcc	r0, [lr], #386	; 0x182
    3478:	23020000 	movwcs	r0, #8192	; 0x2000
    347c:	706f2378 	rsbvc	r2, pc, r8, ror r3
    3480:	832f0073 	teqhi	pc, #115	; 0x73
    3484:	0034ae01 	eorseq	sl, r4, r1, lsl #28
    3488:	e8230300 	stmda	r3!, {r8, r9}
    348c:	22030001 	andcs	r0, r3, #1
    3490:	9e000022 	cdpls	0, 0, cr0, cr0, cr2, {1}
    3494:	04000034 	streq	r0, [r0], #-52	; 0x34
    3498:	00000040 	andeq	r0, r0, r0, asr #32
    349c:	a1030001 	tstge	r3, r1
    34a0:	ae00002e 	cdpge	0, 0, cr0, cr0, cr14, {1}
    34a4:	04000034 	streq	r0, [r0], #-52	; 0x34
    34a8:	00000040 	andeq	r0, r0, r0, asr #32
    34ac:	10030001 	andne	r0, r3, r1
    34b0:	be000034 	mcrlt	0, 0, r0, cr0, cr4, {1}
    34b4:	04000034 	streq	r0, [r0], #-52	; 0x34
    34b8:	00000040 	andeq	r0, r0, r0, asr #32
    34bc:	a0150001 	andsge	r0, r5, r1
    34c0:	01000012 	tsteq	r0, r2, lsl r0
    34c4:	34ca0406 	strbcc	r0, [sl], #1030	; 0x406
    34c8:	a0290000 	eorge	r0, r9, r0
    34cc:	be000012 	mcrlt	0, 0, r0, cr0, cr2, {0}
    34d0:	2d000034 	stccs	0, cr0, [r0, #-208]	; 0xffffff30
    34d4:	022d2704 	eoreq	r2, sp, #1048576	; 0x100000
    34d8:	000034f5 	strdeq	r3, [r0], -r5
    34dc:	6675622e 	ldrbtvs	r6, [r5], -lr, lsr #4
    34e0:	022e2700 	eoreq	r2, lr, #0
    34e4:	00000163 	andeq	r0, r0, r3, ror #2
    34e8:	00266e2f 	eoreq	r6, r6, pc, lsr #28
    34ec:	022f2700 	eoreq	r2, pc, #0
    34f0:	00000323 	andeq	r0, r0, r3, lsr #6
    34f4:	27102400 	ldrcs	r2, [r0, -r0, lsl #8]
    34f8:	353b022a 	ldrcc	r0, [fp, #-554]!	; 0x22a
    34fc:	c6120000 	ldrgt	r0, [r2], -r0
    3500:	2700000e 	strcs	r0, [r0, -lr]
    3504:	01e9022b 	mvneq	r0, fp, lsr #4
    3508:	23020000 	movwcs	r0, #8192	; 0x2000
    350c:	1a841200 	bne	fe104808 <tz_ioctl+0xfe1045bc>
    3510:	2c270000 	stccs	0, cr0, [r7]
    3514:	0001e902 	andeq	lr, r1, r2, lsl #18
    3518:	04230200 	strteq	r0, [r3], #-512	; 0x200
    351c:	67726123 	ldrbvs	r6, [r2, -r3, lsr #2]!
    3520:	02302700 	eorseq	r2, r0, #0
    3524:	000034d3 	ldrdeq	r3, [r0], -r3
    3528:	12082302 	andne	r2, r8, #134217728	; 0x8000000
    352c:	00001169 	andeq	r1, r0, r9, ror #2
    3530:	68023127 	stmdavs	r2, {r0, r1, r2, r5, r8, ip, sp}
    3534:	02000000 	andeq	r0, r0, #0
    3538:	25000c23 	strcs	r0, [r0, #-3107]	; 0xc23
    353c:	00000c85 	andeq	r0, r0, r5, lsl #25
    3540:	f5023227 	undefined instruction 0xf5023227
    3544:	06000034 	undefined instruction 0x06000034
    3548:	00353b04 	eorseq	r3, r5, r4, lsl #22
    354c:	219e1100 	orrscs	r1, lr, r0, lsl #2
    3550:	27440000 	strbcs	r0, [r4, -r0]
    3554:	365a0237 	undefined instruction 0x365a0237
    3558:	b6120000 	ldrlt	r0, [r2], -r0
    355c:	27000010 	smladcs	r0, r0, r0, r0
    3560:	367b0238 	undefined instruction 0x367b0238
    3564:	23020000 	movwcs	r0, #8192	; 0x2000
    3568:	28c71200 	stmiacs	r7, {r9, ip}^
    356c:	39270000 	stmdbcc	r7!, {}
    3570:	00369602 	eorseq	r9, r6, r2, lsl #12
    3574:	04230200 	strteq	r0, [r3], #-512	; 0x200
    3578:	00082d12 	andeq	r2, r8, r2, lsl sp
    357c:	023a2700 	eorseq	r2, sl, #0
    3580:	000036a8 	andeq	r3, r0, r8, lsr #13
    3584:	12082302 	andne	r2, r8, #134217728	; 0x8000000
    3588:	00002b61 	andeq	r2, r0, r1, ror #22
    358c:	c7023d27 	strgt	r3, [r2, -r7, lsr #26]
    3590:	02000037 	andeq	r0, r0, #55	; 0x37
    3594:	8f120c23 	svchi	0x00120c23
    3598:	27000020 	strcs	r0, [r0, -r0, lsr #32]
    359c:	37dd0240 	ldrbcc	r0, [sp, r0, asr #4]
    35a0:	23020000 	movwcs	r0, #8192	; 0x2000
    35a4:	2b3e1210 	blcs	f84848 <tz_ioctl+0xf845fc>
    35a8:	42270000 	eormi	r0, r7, #0
    35ac:	00380202 	eorseq	r0, r8, r2, lsl #4
    35b0:	14230200 	strtne	r0, [r3], #-512	; 0x200
    35b4:	00273b12 	eoreq	r3, r7, r2, lsl fp
    35b8:	02452700 	subeq	r2, r5, #0
    35bc:	0000383c 	andeq	r3, r0, ip, lsr r8
    35c0:	12182302 	andsne	r2, r8, #134217728	; 0x8000000
    35c4:	00001e54 	andeq	r1, r0, r4, asr lr
    35c8:	70024827 	andvc	r4, r2, r7, lsr #16
    35cc:	02000038 	andeq	r0, r0, #56	; 0x38
    35d0:	a3121c23 	tstge	r2, #8960	; 0x2300
    35d4:	27000020 	strcs	r0, [r0, -r0, lsr #32]
    35d8:	388b024d 	stmcc	fp, {r0, r2, r3, r6, r9}
    35dc:	23020000 	movwcs	r0, #8192	; 0x2000
    35e0:	12a61220 	adcne	r1, r6, #2
    35e4:	4e270000 	cdpmi	0, 2, cr0, cr7, cr0, {0}
    35e8:	000a2b02 	andeq	r2, sl, r2, lsl #22
    35ec:	24230200 	strtcs	r0, [r3], #-512	; 0x200
    35f0:	00083e12 	andeq	r3, r8, r2, lsl lr
    35f4:	024f2700 	subeq	r2, pc, #0
    35f8:	000038a6 	andeq	r3, r0, r6, lsr #17
    35fc:	12282302 	eorne	r2, r8, #134217728	; 0x8000000
    3600:	00001ea0 	andeq	r1, r0, r0, lsr #29
    3604:	d0025027 	andle	r5, r2, r7, lsr #32
    3608:	02000038 	andeq	r0, r0, #56	; 0x38
    360c:	30122c23 	andscc	r2, r2, r3, lsr #24
    3610:	27000030 	smladxcs	r0, r0, r0, r0
    3614:	38fa0252 	ldmcc	sl!, {r1, r4, r6, r9}^
    3618:	23020000 	movwcs	r0, #8192	; 0x2000
    361c:	2d921230 	lfmcs	f1, 4, [r2, #192]	; (ldccs 2, cr1, [r2, #192])	; 0xc0
    3620:	55270000 	strpl	r0, [r7]!
    3624:	00391a02 	eorseq	r1, r9, r2, lsl #20
    3628:	34230200 	strtcc	r0, [r3], #-512	; 0x200
    362c:	00007b12 	andeq	r7, r0, r2, lsl fp
    3630:	02572700 	subseq	r2, r7, #0
    3634:	000037dd 	ldrdeq	r3, [r0], -sp
    3638:	12382302 	eorsne	r2, r8, #134217728	; 0x8000000
    363c:	000026cf 	andeq	r2, r0, pc, asr #13
    3640:	3a025827 	bcc	996e4 <tz_ioctl+0x99498>
    3644:	02000039 	andeq	r0, r0, #57	; 0x39
    3648:	a5123c23 	ldrge	r3, [r2, #-3107]	; 0xc23
    364c:	27000015 	smladcs	r0, r5, r0, r0
    3650:	3955025a 	ldmdbcc	r5, {r1, r3, r4, r6, r9}^
    3654:	23020000 	movwcs	r0, #8192	; 0x2000
    3658:	011a0040 	tsteq	sl, r0, asr #32
    365c:	00000068 	andeq	r0, r0, r8, rrx
    3660:	0000366f 	andeq	r3, r0, pc, ror #12
    3664:	000a1f1b 	andeq	r1, sl, fp, lsl pc
    3668:	366f1b00 	strbtcc	r1, [pc], -r0, lsl #22
    366c:	06000000 	streq	r0, [r0], -r0
    3670:	00367504 	eorseq	r7, r6, r4, lsl #10
    3674:	1a391500 	bne	e45408 <tz_ioctl+0xe451bc>
    3678:	06010000 	streq	r0, [r1], -r0
    367c:	00365a04 	eorseq	r5, r6, r4, lsl #20
    3680:	68011a00 	stmdavs	r1, {r9, fp, ip}
    3684:	96000000 	strls	r0, [r0], -r0
    3688:	1b000036 	blne	3768 <.debug_info+0x3768>
    368c:	00002a29 	andeq	r2, r0, r9, lsr #20
    3690:	000a1f1b 	andeq	r1, sl, fp, lsl pc
    3694:	04060000 	streq	r0, [r6]
    3698:	00003681 	andeq	r3, r0, r1, lsl #13
    369c:	36a80121 	strtcc	r0, [r8], r1, lsr #2
    36a0:	1f1b0000 	svcne	0x001b0000
    36a4:	0000000a 	andeq	r0, r0, sl
    36a8:	369c0406 	ldrcc	r0, [ip], r6, lsl #8
    36ac:	011a0000 	tsteq	sl, r0
    36b0:	00000068 	andeq	r0, r0, r8, rrx
    36b4:	000036c3 	andeq	r3, r0, r3, asr #13
    36b8:	0036c31b 	eorseq	ip, r6, fp, lsl r3
    36bc:	366f1b00 	strbtcc	r1, [pc], -r0, lsl #22
    36c0:	06000000 	streq	r0, [r0], -r0
    36c4:	0036c904 	eorseq	ip, r6, r4, lsl #18
    36c8:	06e41100 	strbteq	r1, [r4], r0, lsl #2
    36cc:	27780000 	ldrbcs	r0, [r8, -r0]!
    36d0:	37c701fe 	undefined instruction 0x37c701fe
    36d4:	ef120000 	svc	0x00120000
    36d8:	27000002 	strcs	r0, [r0, -r2]
    36dc:	2222026b 	eorcs	r0, r2, #-1342177274	; 0xb0000006
    36e0:	23020000 	movwcs	r0, #8192	; 0x2000
    36e4:	103f1200 	eorsne	r1, pc, r0, lsl #4
    36e8:	6c270000 	stcvs	0, cr0, [r7]
    36ec:	00262c02 	eoreq	r2, r6, r2, lsl #24
    36f0:	04230200 	strteq	r0, [r3], #-512	; 0x200
    36f4:	002fe712 	eoreq	lr, pc, r2, lsl r7
    36f8:	026d2700 	rsbeq	r2, sp, #0
    36fc:	000008b5 	undefined instruction 0x000008b5
    3700:	12102302 	andsne	r2, r0, #134217728	; 0x8000000
    3704:	00001824 	andeq	r1, r0, r4, lsr #16
    3708:	55026e27 	strpl	r6, [r2, #-3623]	; 0xe27
    370c:	02000000 	andeq	r0, r0, #0
    3710:	36122023 	ldrcc	r2, [r2], -r3, lsr #32
    3714:	2700001d 	smladcs	r0, sp, r0, r0
    3718:	26c8026f 	strbcs	r0, [r8], pc, ror #4
    371c:	23020000 	movwcs	r0, #8192	; 0x2000
    3720:	07fc1224 	ldrbeq	r1, [ip, r4, lsr #4]!
    3724:	70270000 	eorvc	r0, r7, r0
    3728:	00029f02 	andeq	r9, r2, r2, lsl #30
    372c:	2c230200 	sfmcs	f0, 4, [r3]	; (stccs 2, cr0, [r3])
    3730:	002db012 	eoreq	fp, sp, r2, lsl r0
    3734:	02712700 	rsbseq	r2, r1, #0
    3738:	000008b5 	undefined instruction 0x000008b5
    373c:	12342302 	eorsne	r2, r4, #134217728	; 0x8000000
    3740:	00001c60 	andeq	r1, r0, r0, ror #24
    3744:	55027227 	strpl	r7, [r2, #-551]	; 0x227
    3748:	02000000 	andeq	r0, r0, #0
    374c:	c8124423 	ldmdagt	r2, {r0, r1, r5, sl, lr}
    3750:	27000007 	strcs	r0, [r0, -r7]
    3754:	00290273 	eoreq	r0, r9, r3, ror r2
    3758:	23020000 	movwcs	r0, #8192	; 0x2000
    375c:	0eea1248 	cdpeq	2, 14, cr1, cr10, cr8, {2}
    3760:	74270000 	strtvc	r0, [r7]
    3764:	00002902 	andeq	r2, r0, r2, lsl #18
    3768:	4c230200 	sfmmi	f0, 4, [r3]	; (stcmi 2, cr0, [r3])
    376c:	001fba12 	andseq	fp, pc, r2, lsl sl
    3770:	02752700 	rsbseq	r2, r5, #0
    3774:	0000395b 	andeq	r3, r0, fp, asr r9
    3778:	12502302 	subsne	r2, r0, #134217728	; 0x8000000
    377c:	00003043 	andeq	r3, r0, r3, asr #32
    3780:	29027627 	stmdbcs	r2, {r0, r1, r2, r5, r9, sl, ip, sp, lr}
    3784:	02000000 	andeq	r0, r0, #0
    3788:	c3125423 	tstgt	r2, #587202560	; 0x23000000
    378c:	27000019 	smladcs	r0, r9, r0, r0
    3790:	39700277 	ldmdbcc	r0!, {r0, r1, r2, r4, r5, r6, r9}^
    3794:	23020000 	movwcs	r0, #8192	; 0x2000
    3798:	01711258 	cmneq	r1, r8, asr r2
    379c:	78270000 	stmdavc	r7!, {}
    37a0:	0008b502 	andeq	fp, r8, r2, lsl #10
    37a4:	5c230200 	sfmpl	f0, 4, [r3]	; (stcpl 2, cr0, [r3])
    37a8:	000aff12 	andeq	pc, sl, r2, lsl pc
    37ac:	02792700 	rsbseq	r2, r9, #0
    37b0:	0000029f 	muleq	r0, pc, r2
    37b4:	126c2302 	rsbne	r2, ip, #134217728	; 0x8000000
    37b8:	000013f7 	strdeq	r1, [r0], -r7
    37bc:	c3027a27 	movwgt	r7, #10791	; 0x2a27
    37c0:	02000036 	andeq	r0, r0, #54	; 0x36
    37c4:	06007423 	streq	r7, [r0], -r3, lsr #8
    37c8:	0036ae04 	eorseq	sl, r6, r4, lsl #28
    37cc:	68011a00 	stmdavs	r1, {r9, fp, ip}
    37d0:	dd000000 	stcle	0, cr0, [r0]
    37d4:	1b000037 	blne	38b8 <.debug_info+0x38b8>
    37d8:	00000a1f 	andeq	r0, r0, pc, lsl sl
    37dc:	cd040600 	stcgt	6, cr0, [r4]
    37e0:	1a000037 	bne	38c4 <.debug_info+0x38c4>
    37e4:	00006801 	andeq	r6, r0, r1, lsl #16
    37e8:	00380200 	eorseq	r0, r8, r0, lsl #4
    37ec:	2a291b00 	bcs	a4a3f4 <tz_ioctl+0xa4a1a8>
    37f0:	c31b0000 	tstgt	fp, #0
    37f4:	1b000036 	blne	38d4 <.debug_info+0x38d4>
    37f8:	000002c8 	andeq	r0, r0, r8, asr #5
    37fc:	0000551b 	andeq	r5, r0, fp, lsl r5
    3800:	04060000 	streq	r0, [r6]
    3804:	000037e3 	andeq	r3, r0, r3, ror #15
    3808:	0068011a 	rsbeq	r0, r8, sl, lsl r1
    380c:	38360000 	ldmdacc	r6!, {}
    3810:	291b0000 	ldmdbcs	fp, {}
    3814:	1b00002a 	blne	38c4 <.debug_info+0x38c4>
    3818:	000036c3 	andeq	r3, r0, r3, asr #13
    381c:	0001de1b 	andeq	sp, r1, fp, lsl lr
    3820:	00551b00 	subseq	r1, r5, r0, lsl #22
    3824:	551b0000 	ldrpl	r0, [fp]
    3828:	1b000000 	blne	3830 <.debug_info+0x3830>
    382c:	00003836 	andeq	r3, r0, r6, lsr r8
    3830:	0019821b 	andseq	r8, r9, fp, lsl r2
    3834:	04060000 	streq	r0, [r6]
    3838:	00000a1f 	andeq	r0, r0, pc, lsl sl
    383c:	38080406 	stmdacc	r8, {r1, r2, sl}
    3840:	011a0000 	tsteq	sl, r0
    3844:	00000068 	andeq	r0, r0, r8, rrx
    3848:	00003870 	andeq	r3, r0, r0, ror r8
    384c:	002a291b 	eoreq	r2, sl, fp, lsl r9
    3850:	36c31b00 	strbcc	r1, [r3], r0, lsl #22
    3854:	de1b0000 	cdple	0, 1, cr0, cr11, cr0, {0}
    3858:	1b000001 	blne	3864 <.debug_info+0x3864>
    385c:	00000055 	andeq	r0, r0, r5, asr r0
    3860:	0000551b 	andeq	r5, r0, fp, lsl r5
    3864:	0a1f1b00 	beq	7ca46c <tz_ioctl+0x7ca220>
    3868:	231b0000 	tstcs	fp, #0
    386c:	00000003 	andeq	r0, r0, r3
    3870:	38420406 	stmdacc	r2, {r1, r2, sl}^
    3874:	011a0000 	tsteq	sl, r0
    3878:	00000236 	andeq	r0, r0, r6, lsr r2
    387c:	0000388b 	andeq	r3, r0, fp, lsl #17
    3880:	0036c31b 	eorseq	ip, r6, fp, lsl r3
    3884:	02361b00 	eorseq	r1, r6, #0
    3888:	06000000 	streq	r0, [r0], -r0
    388c:	00387604 	eorseq	r7, r8, r4, lsl #12
    3890:	68011a00 	stmdavs	r1, {r9, fp, ip}
    3894:	a6000000 	strge	r0, [r0], -r0
    3898:	1b000038 	blne	3980 <.debug_info+0x3980>
    389c:	00000a1f 	andeq	r0, r0, pc, lsl sl
    38a0:	00024c1b 	andeq	r4, r2, fp, lsl ip
    38a4:	04060000 	streq	r0, [r6]
    38a8:	00003891 	muleq	r0, r1, r8
    38ac:	01f4011a 	mvnseq	r0, sl, lsl r1
    38b0:	38d00000 	ldmcc	r0, {}^
    38b4:	681b0000 	ldmdavs	fp, {}
    38b8:	1b000000 	blne	38c0 <.debug_info+0x38c0>
    38bc:	00002896 	muleq	r0, r6, r8
    38c0:	0034c41b 	eorseq	ip, r4, fp, lsl r4
    38c4:	01de1b00 	bicseq	r1, lr, r0, lsl #22
    38c8:	291b0000 	ldmdbcs	fp, {}
    38cc:	00000000 	andeq	r0, r0, r0
    38d0:	38ac0406 	stmiacc	ip!, {r1, r2, sl}
    38d4:	011a0000 	tsteq	sl, r0
    38d8:	00000068 	andeq	r0, r0, r8, rrx
    38dc:	000038fa 	strdeq	r3, [r0], -sl
    38e0:	0036c31b 	eorseq	ip, r6, fp, lsl r3
    38e4:	00291b00 	eoreq	r1, r9, r0, lsl #22
    38e8:	681b0000 	ldmdavs	fp, {}
    38ec:	1b000000 	blne	38f4 <.debug_info+0x38f4>
    38f0:	00001982 	andeq	r1, r0, r2, lsl #19
    38f4:	000f141b 	andeq	r1, pc, fp, lsl r4
    38f8:	04060000 	streq	r0, [r6]
    38fc:	000038d6 	ldrdeq	r3, [r0], -r6
    3900:	0068011a 	rsbeq	r0, r8, sl, lsl r1
    3904:	391a0000 	ldmdbcc	sl, {}
    3908:	c31b0000 	tstgt	fp, #0
    390c:	1b000036 	blne	39ec <.debug_info+0x39ec>
    3910:	00000a1f 	andeq	r0, r0, pc, lsl sl
    3914:	000a1f1b 	andeq	r1, sl, fp, lsl pc
    3918:	04060000 	streq	r0, [r6]
    391c:	00003900 	andeq	r3, r0, r0, lsl #18
    3920:	0068011a 	rsbeq	r0, r8, sl, lsl r1
    3924:	393a0000 	ldmdbcc	sl!, {}
    3928:	1f1b0000 	svcne	0x001b0000
    392c:	1b00000a 	blne	395c <.debug_info+0x395c>
    3930:	00003547 	andeq	r3, r0, r7, asr #10
    3934:	0000291b 	andeq	r2, r0, fp, lsl r9
    3938:	04060000 	streq	r0, [r6]
    393c:	00003920 	andeq	r3, r0, r0, lsr #18
    3940:	0068011a 	rsbeq	r0, r8, sl, lsl r1
    3944:	39550000 	ldmdbcc	r5, {}^
    3948:	c31b0000 	tstgt	fp, #0
    394c:	1b000036 	blne	3a2c <.debug_info+0x3a2c>
    3950:	00000a1f 	andeq	r0, r0, pc, lsl sl
    3954:	40040600 	andmi	r0, r4, r0, lsl #12
    3958:	06000039 	undefined instruction 0x06000039
    395c:	00396104 	eorseq	r6, r9, r4, lsl #2
    3960:	219e2900 	orrscs	r2, lr, r0, lsl #18
    3964:	354d0000 	strbcc	r0, [sp]
    3968:	c3150000 	tstgt	r5, #0
    396c:	01000019 	tsteq	r0, r9, lsl r0
    3970:	396a0406 	stmdbcc	sl!, {r1, r2, sl}^
    3974:	79110000 	ldmdbvc	r1, {}
    3978:	a0000015 	andge	r0, r0, r5, lsl r0
    397c:	a1028227 	tstge	r2, r7, lsr #4
    3980:	1200003a 	andne	r0, r0, #58	; 0x3a
    3984:	000027ea 	andeq	r2, r0, sl, ror #15
    3988:	95028327 	strls	r8, [r2, #-807]	; 0x327
    398c:	02000001 	andeq	r0, r0, #1
    3990:	96120023 	ldrls	r0, [r2], -r3, lsr #32
    3994:	27000029 	strcs	r0, [r0, -r9, lsr #32]
    3998:	22220284 	eorcs	r0, r2, #1073741832	; 0x40000008
    399c:	23020000 	movwcs	r0, #8192	; 0x2000
    39a0:	16fb1204 	ldrbtne	r1, [fp], r4, lsl #4
    39a4:	85270000 	strhi	r0, [r7]!
    39a8:	00251a02 	eoreq	r1, r5, r2, lsl #20
    39ac:	08230200 	stmdaeq	r3!, {r9}
    39b0:	000b3b12 	andeq	r3, fp, r2, lsl fp
    39b4:	02862700 	addeq	r2, r6, #0
    39b8:	00000068 	andeq	r0, r0, r8, rrx
    39bc:	120c2302 	andne	r2, ip, #134217728	; 0x8000000
    39c0:	00003005 	andeq	r3, r0, r5
    39c4:	4b028727 	blmi	a5668 <tz_ioctl+0xa541c>
    39c8:	0200000e 	andeq	r0, r0, #14
    39cc:	ee121023 	cdp	0, 1, cr1, cr2, cr3, {1}
    39d0:	27000012 	smladcs	r0, r2, r0, r0
    39d4:	029f0288 	addseq	r0, pc, #-2147483640	; 0x80000008
    39d8:	23020000 	movwcs	r0, #8192	; 0x2000
    39dc:	292e1238 	stmdbcs	lr!, {r3, r4, r5, r9, ip}
    39e0:	89270000 	stmdbhi	r7!, {}
    39e4:	00032302 	andeq	r2, r3, r2, lsl #6
    39e8:	40230200 	eormi	r0, r3, r0, lsl #4
    39ec:	002f6f12 	eoreq	r6, pc, r2, lsl pc
    39f0:	028a2700 	addeq	r2, sl, #0
    39f4:	00000068 	andeq	r0, r0, r8, rrx
    39f8:	12442302 	subne	r2, r4, #134217728	; 0x8000000
    39fc:	000000f8 	strdeq	r0, [r0], -r8
    3a00:	9f028c27 	svcls	0x00028c27
    3a04:	02000002 	andeq	r0, r0, #2
    3a08:	dd124823 	ldcle	8, cr4, [r2, #-140]	; 0xffffff74
    3a0c:	2700001d 	smladcs	r0, sp, r0, r0
    3a10:	3aa1028e 	bcc	fe844450 <tz_ioctl+0xfe844204>
    3a14:	23020000 	movwcs	r0, #8192	; 0x2000
    3a18:	1aa21250 	bne	fe884948 <tz_ioctl+0xfe8846fc>
    3a1c:	8f270000 	svchi	0x00270000
    3a20:	00005502 	andeq	r5, r0, r2, lsl #10
    3a24:	54230200 	strtpl	r0, [r3], #-512	; 0x200
    3a28:	00229412 	eoreq	r9, r2, r2, lsl r4
    3a2c:	02902700 	addseq	r2, r0, #0
    3a30:	00003aad 	andeq	r3, r0, sp, lsr #21
    3a34:	12582302 	subsne	r2, r8, #134217728	; 0x8000000
    3a38:	000022a4 	andeq	r2, r0, r4, lsr #5
    3a3c:	55029227 	strpl	r9, [r2, #-551]	; 0x227
    3a40:	02000000 	andeq	r0, r0, #0
    3a44:	3e125c23 	cdpcc	12, 1, cr5, cr2, cr3, {1}
    3a48:	27000004 	strcs	r0, [r0, -r4]
    3a4c:	00680293 	mlseq	r8, r3, r2, r0
    3a50:	23020000 	movwcs	r0, #8192	; 0x2000
    3a54:	229c1260 	addscs	r1, ip, #6
    3a58:	94270000 	strtls	r0, [r7]
    3a5c:	003ab902 	eorseq	fp, sl, r2, lsl #18
    3a60:	64230200 	strtvs	r0, [r3], #-512	; 0x200
    3a64:	001bae12 	andseq	sl, fp, r2, lsl lr
    3a68:	02952700 	addseq	r2, r5, #0
    3a6c:	0000029f 	muleq	r0, pc, r2
    3a70:	12682302 	rsbne	r2, r8, #134217728	; 0x8000000
    3a74:	00001c9d 	muleq	r0, sp, ip
    3a78:	29029c27 	stmdbcs	r2, {r0, r1, r2, r5, sl, fp, ip, pc}
    3a7c:	02000000 	andeq	r0, r0, #0
    3a80:	5f127023 	svcpl	0x00127023
    3a84:	27000001 	strcs	r0, [r0, -r1]
    3a88:	0068029f 	mlseq	r8, pc, r2, r0
    3a8c:	23020000 	movwcs	r0, #8192	; 0x2000
    3a90:	17791274 	undefined instruction 0x17791274
    3a94:	a1270000 	teqge	r7, r0
    3a98:	000e4b02 	andeq	r4, lr, r2, lsl #22
    3a9c:	78230200 	stmdavc	r3!, {r9}
    3aa0:	76040600 	strvc	r0, [r4], -r0, lsl #12
    3aa4:	15000039 	strne	r0, [r0, #-57]	; 0x39
    3aa8:	0000045a 	andeq	r0, r0, sl, asr r4
    3aac:	a7040601 	strge	r0, [r4, -r1, lsl #12]
    3ab0:	1500003a 	strne	r0, [r0, #-58]	; 0x3a
    3ab4:	00002ba2 	andeq	r2, r0, r2, lsr #23
    3ab8:	b3040601 	movwlt	r0, #17921	; 0x4601
    3abc:	2d00003a 	stccs	0, cr0, [r0, #-232]	; 0xffffff18
    3ac0:	02f32704 	rscseq	r2, r3, #1048576	; 0x100000
    3ac4:	00003aed 	andeq	r3, r0, sp, ror #21
    3ac8:	002afb2f 	eoreq	pc, sl, pc, lsr #22
    3acc:	02f42700 	rscseq	r2, r4, #0
    3ad0:	00003af3 	strdeq	r3, [r0], -r3
    3ad4:	00303c2f 	eorseq	r3, r0, pc, lsr #24
    3ad8:	02f52700 	rscseq	r2, r5, #0
    3adc:	00003aa1 	andeq	r3, r0, r1, lsr #21
    3ae0:	002eaf2f 	eoreq	sl, lr, pc, lsr #30
    3ae4:	02f62700 	rscseq	r2, r6, #0
    3ae8:	00003b5b 	andeq	r3, r0, fp, asr fp
    3aec:	1def1500 	cfstr64ne	mvdx1, [pc]
    3af0:	06010000 	streq	r0, [r1], -r0
    3af4:	003aed04 	eorseq	lr, sl, r4, lsl #26
    3af8:	11af1100 	undefined instruction 0x11af1100
    3afc:	273c0000 	ldrcs	r0, [ip, -r0]!
    3b00:	3b5b02f6 	blcc	16c46e0 <tz_ioctl+0x16c4494>
    3b04:	8d0e0000 	stchi	0, cr0, [lr]
    3b08:	3200000b 	andcc	r0, r0, #11
    3b0c:	0014500d 	andseq	r5, r4, sp
    3b10:	00230200 	eoreq	r0, r3, r0, lsl #4
    3b14:	0011190e 	andseq	r1, r1, lr, lsl #18
    3b18:	f30e3200 	vhsub.u8	d3, d14, d0
    3b1c:	02000013 	andeq	r0, r0, #19
    3b20:	6f142423 	svcvs	0x00142423
    3b24:	32007370 	andcc	r7, r0, #-1073741823	; 0xc0000001
    3b28:	003e7a0f 	eorseq	r7, lr, pc, lsl #20
    3b2c:	28230200 	stmdacs	r3!, {r9}
    3b30:	0013ea0e 	andseq	lr, r3, lr, lsl #20
    3b34:	9f103200 	svcls	0x00103200
    3b38:	02000002 	andeq	r0, r0, #2
    3b3c:	64142c23 	ldrvs	r2, [r4], #-3107	; 0xc23
    3b40:	32007665 	andcc	r7, r0, #105906176	; 0x6500000
    3b44:	00019511 	andeq	r9, r1, r1, lsl r5
    3b48:	34230200 	strtcc	r0, [r3], #-512	; 0x200
    3b4c:	001a840e 	andseq	r8, sl, lr, lsl #8
    3b50:	55123200 	ldrpl	r3, [r2, #-512]	; 0x200
    3b54:	02000000 	andeq	r0, r0, #0
    3b58:	06003823 	streq	r3, [r0], -r3, lsr #16
    3b5c:	003af904 	eorseq	pc, sl, r4, lsl #18
    3b60:	23631100 	cmncs	r3, #0
    3b64:	27600000 	strbcs	r0, [r0, -r0]!
    3b68:	3cd702e9 	lfmcc	f0, 2, [r7], {233}	; (ldclcc 2, cr0, [r7], {233})	; 0xe9
    3b6c:	c1120000 	tstgt	r2, r0
    3b70:	27000001 	strcs	r0, [r0, -r1]
    3b74:	48f905e8 	ldmmi	r9!, {r3, r5, r6, r7, r8, sl}^
    3b78:	23020000 	movwcs	r0, #8192	; 0x2000
    3b7c:	047d1200 	ldrbteq	r1, [sp], #-512	; 0x200
    3b80:	e9270000 	stmdb	r7!, {}
    3b84:	00491905 	subeq	r1, r9, r5, lsl #18
    3b88:	04230200 	strteq	r0, [r3], #-512	; 0x200
    3b8c:	00167612 	andseq	r7, r6, r2, lsl r6
    3b90:	05ea2700 	strbeq	r2, [sl, #1792]!	; 0x700
    3b94:	00004939 	andeq	r4, r0, r9, lsr r9
    3b98:	12082302 	andne	r2, r8, #134217728	; 0x8000000
    3b9c:	00000a23 	andeq	r0, r0, r3, lsr #20
    3ba0:	5405eb27 	strpl	lr, [r5], #-2855	; 0xb27
    3ba4:	02000049 	andeq	r0, r0, #73	; 0x49
    3ba8:	96120c23 	ldrls	r0, [r2], -r3, lsr #24
    3bac:	27000024 	strcs	r0, [r0, -r4, lsr #32]
    3bb0:	497405ec 	ldmdbmi	r4!, {r2, r3, r5, r6, r7, r8, sl}^
    3bb4:	23020000 	movwcs	r0, #8192	; 0x2000
    3bb8:	01071210 	tsteq	r7, r0, lsl r2
    3bbc:	ed270000 	stc	0, cr0, [r7]
    3bc0:	00499405 	subeq	r9, r9, r5, lsl #8
    3bc4:	14230200 	strtne	r0, [r3], #-512	; 0x200
    3bc8:	00304912 	eorseq	r4, r0, r2, lsl r9
    3bcc:	05ee2700 	strbeq	r2, [lr, #1792]!	; 0x700
    3bd0:	00004954 	andeq	r4, r0, r4, asr r9
    3bd4:	12182302 	andsne	r2, r8, #134217728	; 0x8000000
    3bd8:	00001bee 	andeq	r1, r0, lr, ror #23
    3bdc:	b905ef27 	stmdblt	r5, {r0, r1, r2, r5, r8, r9, sl, fp, sp, lr, pc}
    3be0:	02000049 	andeq	r0, r0, #73	; 0x49
    3be4:	59121c23 	ldmdbpl	r2, {r0, r1, r5, sl, fp, ip}
    3be8:	2700001c 	smladcs	r0, ip, r0, r0
    3bec:	49de05f0 	ldmibmi	lr, {r4, r5, r6, r7, r8, sl}^
    3bf0:	23020000 	movwcs	r0, #8192	; 0x2000
    3bf4:	25221220 	strcs	r1, [r2, #-544]!	; 0x220
    3bf8:	f2270000 	vhadd.s32	d0, d7, d0
    3bfc:	0049fe05 	subeq	pc, r9, r5, lsl #28
    3c00:	24230200 	strtcs	r0, [r3], #-512	; 0x200
    3c04:	002e6c12 	eoreq	r6, lr, r2, lsl ip
    3c08:	05f32700 	ldrbeq	r2, [r3, #1792]!	; 0x700
    3c0c:	00004a19 	andeq	r4, r0, r9, lsl sl
    3c10:	12282302 	eorne	r2, r8, #134217728	; 0x8000000
    3c14:	00002bec 	andeq	r2, r0, ip, ror #23
    3c18:	3505f427 	strcc	pc, [r5, #-1063]	; 0x427
    3c1c:	0200004a 	andeq	r0, r0, #74	; 0x4a
    3c20:	39122c23 	ldmdbcc	r2, {r0, r1, r5, sl, fp, sp}
    3c24:	27000016 	smladcs	r0, r6, r0, r0
    3c28:	4a4705f5 	bmi	11c5404 <tz_ioctl+0x11c51b8>
    3c2c:	23020000 	movwcs	r0, #8192	; 0x2000
    3c30:	1a4b1230 	bne	12c48c8 <tz_ioctl+0x12c467c>
    3c34:	f6270000 	undefined instruction 0xf6270000
    3c38:	00315405 	eorseq	r5, r1, r5, lsl #8
    3c3c:	34230200 	strtcc	r0, [r3], #-512	; 0x200
    3c40:	00004912 	andeq	r4, r0, r2, lsl r9
    3c44:	05f72700 	ldrbeq	r2, [r7, #1792]!	; 0x700
    3c48:	00003154 	andeq	r3, r0, r4, asr r1
    3c4c:	12382302 	eorsne	r2, r8, #134217728	; 0x8000000
    3c50:	00001405 	andeq	r1, r0, r5, lsl #8
    3c54:	6205f827 	andvs	pc, r5, #2555904	; 0x270000
    3c58:	0200004a 	andeq	r0, r0, #74	; 0x4a
    3c5c:	b7123c23 	ldrlt	r3, [r2, -r3, lsr #24]
    3c60:	27000015 	smladcs	r0, r5, r0, r0
    3c64:	4a8805f9 	bmi	fe205450 <tz_ioctl+0xfe205204>
    3c68:	23020000 	movwcs	r0, #8192	; 0x2000
    3c6c:	0d421240 	sfmeq	f1, 2, [r2, #-256]	; (stcleq 2, cr1, [r2, #-256])	; 0xffffff00
    3c70:	fa270000 	blx	9c3c78 <tz_ioctl+0x9c3a2c>
    3c74:	004ab905 	subeq	fp, sl, r5, lsl #18
    3c78:	44230200 	strtmi	r0, [r3], #-512	; 0x200
    3c7c:	001a9012 	andseq	r9, sl, r2, lsl r0
    3c80:	05fb2700 	ldrbeq	r2, [fp, #1792]!	; 0x700
    3c84:	00004ade 	ldrdeq	r4, [r0], -lr
    3c88:	12482302 	subne	r2, r8, #134217728	; 0x8000000
    3c8c:	00001586 	andeq	r1, r0, r6, lsl #11
    3c90:	fe05fc27 	cdp2	12, 0, cr15, cr5, cr7, {1}
    3c94:	0200004a 	andeq	r0, r0, #74	; 0x4a
    3c98:	02124c23 	andseq	r4, r2, #8960	; 0x2300
    3c9c:	2700002f 	strcs	r0, [r0, -pc, lsr #32]
    3ca0:	4b1905fd 	blmi	64549c <tz_ioctl+0x645250>
    3ca4:	23020000 	movwcs	r0, #8192	; 0x2000
    3ca8:	23c91250 	biccs	r1, r9, #5
    3cac:	fe270000 	cdp2	0, 2, cr0, cr7, cr0, {0}
    3cb0:	004b3505 	subeq	r3, fp, r5, lsl #10
    3cb4:	54230200 	strtpl	r0, [r3], #-512	; 0x200
    3cb8:	002ffb12 	eoreq	pc, pc, r2, lsl fp
    3cbc:	05ff2700 	ldrbeq	r2, [pc, #1792]!	; 43c4 <.debug_info+0x43c4>
    3cc0:	00004b5a 	andeq	r4, r0, sl, asr fp
    3cc4:	12582302 	subsne	r2, r8, #134217728	; 0x8000000
    3cc8:	00001652 	andeq	r1, r0, r2, asr r6
    3ccc:	85060127 	strhi	r0, [r6, #-295]	; 0x127
    3cd0:	0200004b 	andeq	r0, r0, #75	; 0x4b
    3cd4:	06005c23 	streq	r5, [r0], -r3, lsr #24
    3cd8:	003cdd04 	eorseq	sp, ip, r4, lsl #26
    3cdc:	23632900 	cmncs	r3, #0
    3ce0:	3b610000 	blcc	1843ce8 <tz_ioctl+0x1843a9c>
    3ce4:	cd110000 	ldcgt	0, cr0, [r1]
    3ce8:	68000010 	stmdavs	r0, {r4}
    3cec:	7a02ea27 	bvc	be590 <tz_ioctl+0xbe344>
    3cf0:	1200003e 	andne	r0, r0, #62	; 0x3e
    3cf4:	00001119 	andeq	r1, r0, r9, lsl r1
    3cf8:	f305cb27 	vqrdmulh.s<illegal width 8>	d12, d5, d23
    3cfc:	02000013 	andeq	r0, r0, #19
    3d00:	d2120023 	andsle	r0, r2, #35	; 0x23
    3d04:	27000009 	strcs	r0, [r0, -r9]
    3d08:	462405cc 	strtmi	r0, [r4], -ip, asr #11
    3d0c:	23020000 	movwcs	r0, #8192	; 0x2000
    3d10:	07231204 	streq	r1, [r3, -r4, lsl #4]!
    3d14:	cd270000 	stcgt	0, cr0, [r7]
    3d18:	00464f05 	subeq	r4, r6, r5, lsl #30
    3d1c:	08230200 	stmdaeq	r3!, {r9}
    3d20:	001e2212 	andseq	r2, lr, r2, lsl r2
    3d24:	05ce2700 	strbeq	r2, [lr, #1792]	; 0x700
    3d28:	00004674 	andeq	r4, r0, r4, ror r6
    3d2c:	120c2302 	andne	r2, ip, #134217728	; 0x8000000
    3d30:	00001e32 	andeq	r1, r0, r2, lsr lr
    3d34:	9905cf27 	stmdbls	r5, {r0, r1, r2, r5, r8, r9, sl, fp, lr, pc}
    3d38:	02000046 	andeq	r0, r0, #70	; 0x46
    3d3c:	31121023 	tstcc	r2, r3, lsr #32
    3d40:	27000009 	strcs	r0, [r0, -r9]
    3d44:	469905d0 	undefined instruction 0x469905d0
    3d48:	23020000 	movwcs	r0, #8192	; 0x2000
    3d4c:	2f0e1214 	svccs	0x000e1214
    3d50:	d1270000 	teqle	r7, r0
    3d54:	0046b905 	subeq	fp, r6, r5, lsl #18
    3d58:	18230200 	stmdane	r3!, {r9}
    3d5c:	0026f412 	eoreq	pc, r6, r2, lsl r4
    3d60:	05d22700 	ldrbeq	r2, [r2, #1792]	; 0x700
    3d64:	000046e0 	andeq	r4, r0, r0, ror #13
    3d68:	121c2302 	andsne	r2, ip, #134217728	; 0x8000000
    3d6c:	00002653 	andeq	r2, r0, r3, asr r6
    3d70:	0505d327 	streq	sp, [r5, #-807]	; 0x327
    3d74:	02000047 	andeq	r0, r0, #71	; 0x47
    3d78:	d2122023 	andsle	r2, r2, #35	; 0x23
    3d7c:	27000001 	strcs	r0, [r0, -r1]
    3d80:	472505d4 	undefined instruction 0x472505d4
    3d84:	23020000 	movwcs	r0, #8192	; 0x2000
    3d88:	063c1224 	ldrteq	r1, [ip], -r4, lsr #4
    3d8c:	d5270000 	strle	r0, [r7]!
    3d90:	00472505 	subeq	r2, r7, r5, lsl #10
    3d94:	28230200 	stmdacs	r3!, {r9}
    3d98:	002fe212 	eoreq	lr, pc, r2, lsl r2
    3d9c:	05d62700 	ldrbeq	r2, [r6, #1792]	; 0x700
    3da0:	00004740 	andeq	r4, r0, r0, asr #14
    3da4:	122c2302 	eorne	r2, ip, #134217728	; 0x8000000
    3da8:	00000f0e 	andeq	r0, r0, lr, lsl #30
    3dac:	5b05d727 	blpl	179a50 <tz_ioctl+0x179804>
    3db0:	02000047 	andeq	r0, r0, #71	; 0x47
    3db4:	36123023 	ldrcc	r3, [r2], -r3, lsr #32
    3db8:	27000006 	strcs	r0, [r0, -r6]
    3dbc:	477605d8 	undefined instruction 0x477605d8
    3dc0:	23020000 	movwcs	r0, #8192	; 0x2000
    3dc4:	251a1234 	ldrcs	r1, [sl, #-564]	; 0x234
    3dc8:	d9270000 	stmdble	r7!, {}
    3dcc:	00475b05 	subeq	r5, r7, r5, lsl #22
    3dd0:	38230200 	stmdacc	r3!, {r9}
    3dd4:	0026ee12 	eoreq	lr, r6, r2, lsl lr
    3dd8:	05da2700 	ldrbeq	r2, [sl, #1792]	; 0x700
    3ddc:	00004796 	muleq	r0, r6, r7
    3de0:	123c2302 	eorsne	r2, ip, #134217728	; 0x8000000
    3de4:	00002679 	andeq	r2, r0, r9, ror r6
    3de8:	b105db27 	tstlt	r5, r7, lsr #22
    3dec:	02000047 	andeq	r0, r0, #71	; 0x47
    3df0:	00124023 	andseq	r4, r2, r3, lsr #32
    3df4:	27000004 	strcs	r0, [r0, -r4]
    3df8:	47d105dc 	undefined instruction 0x47d105dc
    3dfc:	23020000 	movwcs	r0, #8192	; 0x2000
    3e00:	22f21244 	rscscs	r1, r2, #1073741828	; 0x40000004
    3e04:	dd270000 	stcle	0, cr0, [r7]
    3e08:	0047f105 	subeq	pc, r7, r5, lsl #2
    3e0c:	48230200 	stmdami	r3!, {r9}
    3e10:	00131c12 	andseq	r1, r3, r2, lsl ip
    3e14:	05de2700 	ldrbeq	r2, [lr, #1792]	; 0x700
    3e18:	00004820 	andeq	r4, r0, r0, lsr #16
    3e1c:	124c2302 	subne	r2, ip, #134217728	; 0x8000000
    3e20:	000004cf 	andeq	r0, r0, pc, asr #9
    3e24:	4a05df27 	bmi	17bac8 <tz_ioctl+0x17b87c>
    3e28:	02000048 	andeq	r0, r0, #72	; 0x48
    3e2c:	a9125023 	ldmdbge	r2, {r0, r1, r5, ip, lr}
    3e30:	27000000 	strcs	r0, [r0, -r0]
    3e34:	486005e0 	stmdami	r0!, {r5, r6, r7, r8, sl}^
    3e38:	23020000 	movwcs	r0, #8192	; 0x2000
    3e3c:	0e251254 	mcreq	2, 1, r1, cr5, cr4, {2}
    3e40:	e1270000 	teq	r7, r0
    3e44:	0047f105 	subeq	pc, r7, r5, lsl #2
    3e48:	58230200 	stmdapl	r3!, {r9}
    3e4c:	000db812 	andeq	fp, sp, r2, lsl r8
    3e50:	05e22700 	strbeq	r2, [r2, #1792]!	; 0x700
    3e54:	0000488a 	andeq	r4, r0, sl, lsl #17
    3e58:	125c2302 	subsne	r2, ip, #134217728	; 0x8000000
    3e5c:	00000900 	andeq	r0, r0, r0, lsl #18
    3e60:	b405e327 	strlt	lr, [r5], #-807	; 0x327
    3e64:	02000048 	andeq	r0, r0, #72	; 0x48
    3e68:	8c126023 	ldchi	0, cr6, [r2], {35}	; 0x23
    3e6c:	2700001b 	smladcs	r0, fp, r0, r0
    3e70:	48d405e4 	ldmmi	r4, {r2, r5, r6, r7, r8, sl}^
    3e74:	23020000 	movwcs	r0, #8192	; 0x2000
    3e78:	04060064 	streq	r0, [r6], #-100	; 0x64
    3e7c:	00003e80 	andeq	r3, r0, r0, lsl #29
    3e80:	0010cd29 	andseq	ip, r0, r9, lsr #26
    3e84:	003ce600 	eorseq	lr, ip, r0, lsl #12
    3e88:	26c51100 	strbcs	r1, [r5], r0, lsl #2
    3e8c:	27700000 	ldrbcs	r0, [r0, -r0]!
    3e90:	3f9602ec 	svccc	0x009602ec
    3e94:	92120000 	andsls	r0, r2, #0
    3e98:	2700002a 	strcs	r0, [r0, -sl, lsr #32]
    3e9c:	3f960421 	svccc	0x00960421
    3ea0:	23020000 	movwcs	r0, #8192	; 0x2000
    3ea4:	0fea1200 	svceq	0x00ea1200
    3ea8:	22270000 	eorcs	r0, r7, #0
    3eac:	00029f04 	andeq	r9, r2, r4, lsl #30
    3eb0:	04230200 	strteq	r0, [r3], #-512	; 0x200
    3eb4:	002c2812 	eoreq	r2, ip, r2, lsl r8
    3eb8:	04232700 	strteq	r2, [r3], #-1792	; 0x700
    3ebc:	0000029f 	muleq	r0, pc, r2
    3ec0:	120c2302 	andne	r2, ip, #134217728	; 0x8000000
    3ec4:	00000b9f 	muleq	r0, pc, fp
    3ec8:	af042427 	svcge	0x00042427
    3ecc:	02000040 	andeq	r0, r0, #64	; 0x40
    3ed0:	00121423 	andseq	r1, r2, r3, lsr #8
    3ed4:	27000000 	strcs	r0, [r0, -r0]
    3ed8:	009f0425 	addseq	r0, pc, r5, lsr #8
    3edc:	23020000 	movwcs	r0, #8192	; 0x2000
    3ee0:	2fa21218 	svccs	0x00a21218
    3ee4:	26270000 	strtcs	r0, [r7], -r0
    3ee8:	00009f04 	andeq	r9, r0, r4, lsl #30
    3eec:	19230200 	stmdbne	r3!, {r9}
    3ef0:	002cd812 	eoreq	sp, ip, r2, lsl r8
    3ef4:	04272700 	strteq	r2, [r7], #-1792	; 0x700
    3ef8:	00000055 	andeq	r0, r0, r5, asr r0
    3efc:	121c2302 	andsne	r2, ip, #134217728	; 0x8000000
    3f00:	00000c50 	andeq	r0, r0, r0, asr ip
    3f04:	d8042827 	stmdale	r4, {r0, r1, r2, r5, fp, sp}
    3f08:	02000027 	andeq	r0, r0, #39	; 0x27
    3f0c:	69122023 	ldmdbvs	r2, {r0, r1, r5, sp}
    3f10:	2700001d 	smladcs	r0, sp, r0, r0
    3f14:	0a030429 	beq	c4fc0 <tz_ioctl+0xc4d74>
    3f18:	23020000 	movwcs	r0, #8192	; 0x2000
    3f1c:	18ca1224 	stmiane	sl, {r2, r5, r9, ip}^
    3f20:	2a270000 	bcs	9c3f28 <tz_ioctl+0x9c3cdc>
    3f24:	002a2904 	eoreq	r2, sl, r4, lsl #18
    3f28:	3c230200 	sfmcc	f0, 4, [r3]	; (stccc 2, cr0, [r3])
    3f2c:	00301b12 	eorseq	r1, r0, r2, lsl fp
    3f30:	042b2700 	strteq	r2, [fp], #-1792	; 0x700
    3f34:	000001de 	ldrdeq	r0, [r0], -lr
    3f38:	12402302 	subne	r2, r0, #134217728	; 0x8000000
    3f3c:	0000107a 	andeq	r1, r0, sl, ror r0
    3f40:	de042c27 	cdple	12, 0, cr2, cr4, cr7, {1}
    3f44:	02000001 	andeq	r0, r0, #1
    3f48:	5f124823 	svcpl	0x00124823
    3f4c:	27000011 	smladcs	r0, r1, r0, r0
    3f50:	4308042e 	movwmi	r0, #33838	; 0x842e
    3f54:	23020000 	movwcs	r0, #8192	; 0x2000
    3f58:	2d3c1250 	lfmcs	f1, 4, [ip, #-320]!	; (ldccs 2, cr1, [ip, #-320]!)	; 0xfffffec0
    3f5c:	2f270000 	svccs	0x00270000
    3f60:	00002904 	andeq	r2, r0, r4, lsl #18
    3f64:	54230200 	strtpl	r0, [r3], #-512	; 0x200
    3f68:	002e3b12 	eoreq	r3, lr, r2, lsl fp
    3f6c:	04312700 	ldrteq	r2, [r1], #-1792	; 0x700
    3f70:	0000430e 	andeq	r4, r0, lr, lsl #6
    3f74:	12582302 	subsne	r2, r8, #134217728	; 0x8000000
    3f78:	00002408 	andeq	r2, r0, r8, lsl #8
    3f7c:	1d043227 	sfmne	f3, 4, [r4, #-156]	; (stcne 2, cr3, [r4, #-156])	; 0xffffff64
    3f80:	02000043 	andeq	r0, r0, #67	; 0x43
    3f84:	f6125c23 	undefined instruction 0xf6125c23
    3f88:	27000016 	smladcs	r0, r6, r0, r0
    3f8c:	4290043a 	addsmi	r0, r0, #973078528	; 0x3a000000
    3f90:	23020000 	movwcs	r0, #8192	; 0x2000
    3f94:	04060060 	streq	r0, [r6], #-96	; 0x60
    3f98:	00003e89 	andeq	r3, r0, r9, lsl #29
    3f9c:	002c1e15 	eoreq	r1, ip, r5, lsl lr
    3fa0:	04060100 	streq	r0, [r6], #-256	; 0x100
    3fa4:	00003f9c 	muleq	r0, ip, pc
    3fa8:	0018aa11 	andseq	sl, r8, r1, lsl sl
    3fac:	6a272000 	bvs	9cbfb4 <tz_ioctl+0x9cbd68>
    3fb0:	00401003 	subeq	r1, r0, r3
    3fb4:	22f21200 	rscscs	r1, r2, #0
    3fb8:	6b270000 	blvs	9c3fc0 <tz_ioctl+0x9c3d74>
    3fbc:	00090103 	andeq	r0, r9, r3, lsl #2
    3fc0:	00230200 	eoreq	r0, r3, r0, lsl #4
    3fc4:	64697023 	strbtvs	r7, [r9], #-35	; 0x23
    3fc8:	036c2700 	cmneq	ip, #0
    3fcc:	000027d8 	ldrdeq	r2, [r0], -r8
    3fd0:	120c2302 	andne	r2, ip, #134217728	; 0x8000000
    3fd4:	00001794 	muleq	r0, r4, r7
    3fd8:	ff036d27 	undefined instruction 0xff036d27
    3fdc:	02000026 	andeq	r0, r0, #38	; 0x26
    3fe0:	75231023 	strvc	r1, [r3, #-35]!	; 0x23
    3fe4:	27006469 	strcs	r6, [r0, -r9, ror #8]
    3fe8:	01c8036e 	biceq	r0, r8, lr, ror #6
    3fec:	23020000 	movwcs	r0, #8192	; 0x2000
    3ff0:	01291214 	teqeq	r9, r4, lsl r2
    3ff4:	6e270000 	cdpvs	0, 2, cr0, cr7, cr0, {0}
    3ff8:	0001c803 	andeq	ip, r1, r3, lsl #16
    3ffc:	18230200 	stmdane	r3!, {r9}
    4000:	00141d12 	andseq	r1, r4, r2, lsl sp
    4004:	036f2700 	cmneq	pc, #0
    4008:	00000068 	andeq	r0, r0, r8, rrx
    400c:	001c2302 	andseq	r2, ip, r2, lsl #6
    4010:	00265911 	eoreq	r5, r6, r1, lsl r9
    4014:	75272000 	strvc	r2, [r7]!
    4018:	00407803 	subeq	r7, r0, r3, lsl #16
    401c:	1a221200 	bne	884808 <tz_ioctl+0x8845bc>
    4020:	76270000 	strtvc	r0, [r7], -r0
    4024:	00002903 	andeq	r2, r0, r3, lsl #18
    4028:	00230200 	eoreq	r0, r3, r0, lsl #4
    402c:	00109d12 	andseq	r9, r0, r2, lsl sp
    4030:	03772700 	cmneq	r7, #0
    4034:	00000055 	andeq	r0, r0, r5, asr r0
    4038:	12042302 	andne	r2, r4, #134217728	; 0x8000000
    403c:	00000ce9 	andeq	r0, r0, r9, ror #25
    4040:	55037827 	strpl	r7, [r3, #-2087]	; 0x827
    4044:	02000000 	andeq	r0, r0, #0
    4048:	95120823 	ldrls	r0, [r2, #-2083]	; 0x823
    404c:	2700001d 	smladcs	r0, sp, r0, r0
    4050:	0055037b 	subseq	r0, r5, fp, ror r3
    4054:	23020000 	movwcs	r0, #8192	; 0x2000
    4058:	100c120c 	andne	r1, ip, ip, lsl #4
    405c:	7c270000 	stcvc	0, cr0, [r7]
    4060:	00005503 	andeq	r5, r0, r3, lsl #10
    4064:	10230200 	eorne	r0, r3, r0, lsl #4
    4068:	00126712 	andseq	r6, r2, r2, lsl r7
    406c:	037d2700 	cmneq	sp, #0
    4070:	000001de 	ldrdeq	r0, [r0], -lr
    4074:	00182302 	andseq	r2, r8, r2, lsl #6
    4078:	9127082d 	teqls	r7, sp, lsr #16
    407c:	00409a03 	subeq	r9, r0, r3, lsl #20
    4080:	0a5a2f00 	beq	168bc08 <tz_ioctl+0x168b9bc>
    4084:	92270000 	eorls	r0, r7, #0
    4088:	00029f03 	andeq	r9, r2, r3, lsl #30
    408c:	09712f00 	ldmdbeq	r1!, {r8, r9, sl, fp, sp}^
    4090:	93270000 	teqls	r7, #0
    4094:	0018ee03 	andseq	lr, r8, r3, lsl #28
    4098:	09150000 	ldmdbeq	r5, {}
    409c:	01000022 	tsteq	r0, r2, lsr #32
    40a0:	40a60406 	adcmi	r0, r6, r6, lsl #8
    40a4:	09290000 	stmdbeq	r9!, {}
    40a8:	9a000022 	bls	4138 <.debug_info+0x4138>
    40ac:	25000040 	strcs	r0, [r0, #-64]	; 0x40
    40b0:	00000b69 	andeq	r0, r0, r9, ror #22
    40b4:	bb040327 	bllt	104d58 <tz_ioctl+0x104b0c>
    40b8:	06000040 	streq	r0, [r0], -r0, asr #32
    40bc:	0040c104 	subeq	ip, r0, r4, lsl #2
    40c0:	10c01500 	sbcne	r1, r0, r0, lsl #10
    40c4:	11010000 	tstne	r1, r0
    40c8:	00002942 	andeq	r2, r0, r2, asr #18
    40cc:	04052708 	streq	r2, [r5], #-1800	; 0x708
    40d0:	000040f3 	strdeq	r4, [r0], -r3
    40d4:	001f5112 	andseq	r5, pc, r2, lsl r1
    40d8:	04062700 	streq	r2, [r6], #-1792	; 0x700
    40dc:	00004104 	andeq	r4, r0, r4, lsl #2
    40e0:	12002302 	andne	r2, r0, #134217728	; 0x8000000
    40e4:	00001430 	andeq	r1, r0, r0, lsr r4
    40e8:	16040727 	strne	r0, [r4], -r7, lsr #14
    40ec:	02000041 	andeq	r0, r0, #65	; 0x41
    40f0:	21000423 	tstcs	r0, r3, lsr #8
    40f4:	00410401 	subeq	r0, r1, r1, lsl #8
    40f8:	3f961b00 	svccc	0x00961b00
    40fc:	961b0000 	ldrls	r0, [fp], -r0
    4100:	0000003f 	andeq	r0, r0, pc, lsr r0
    4104:	40f30406 	rscsmi	r0, r3, r6, lsl #8
    4108:	01210000 	teqeq	r1, r0
    410c:	00004116 	andeq	r4, r0, r6, lsl r1
    4110:	003f961b 	eorseq	r9, pc, fp, lsl r6
    4114:	04060000 	streq	r0, [r6]
    4118:	0000410a 	andeq	r4, r0, sl, lsl #2
    411c:	001ab011 	andseq	fp, sl, r1, lsl r0
    4120:	0a272000 	beq	9cc128 <tz_ioctl+0x9cbedc>
    4124:	0041a204 	subeq	sl, r1, r4, lsl #4
    4128:	06881200 	streq	r1, [r8], r0, lsl #4
    412c:	0b270000 	bleq	9c4134 <tz_ioctl+0x9c3ee8>
    4130:	0041b704 	subeq	fp, r1, r4, lsl #14
    4134:	00230200 	eoreq	r0, r3, r0, lsl #4
    4138:	001db212 	andseq	fp, sp, r2, lsl r2
    413c:	040c2700 	streq	r2, [ip], #-1792	; 0x700
    4140:	00004116 	andeq	r4, r0, r6, lsl r1
    4144:	12042302 	andne	r2, r4, #134217728	; 0x8000000
    4148:	00000a2a 	andeq	r0, r0, sl, lsr #20
    414c:	d7040d27 	strle	r0, [r4, -r7, lsr #26]
    4150:	02000041 	andeq	r0, r0, #65	; 0x41
    4154:	51120823 	tstpl	r2, r3, lsr #16
    4158:	2700001f 	smladcs	r0, pc, r0, r0
    415c:	4104040e 	tstmi	r4, lr, lsl #8
    4160:	23020000 	movwcs	r0, #8192	; 0x2000
    4164:	1430120c 	ldrtne	r1, [r0], #-524	; 0x20c
    4168:	0f270000 	svceq	0x00270000
    416c:	00411604 	subeq	r1, r1, r4, lsl #12
    4170:	10230200 	eorne	r0, r3, r0, lsl #4
    4174:	00274712 	eoreq	r4, r7, r2, lsl r7
    4178:	04102700 	ldreq	r2, [r0], #-1792	; 0x700
    417c:	00004116 	andeq	r4, r0, r6, lsl r1
    4180:	12142302 	andsne	r2, r4, #134217728	; 0x8000000
    4184:	000009e7 	andeq	r0, r0, r7, ror #19
    4188:	b7041127 	strlt	r1, [r4, -r7, lsr #2]
    418c:	02000041 	andeq	r0, r0, #65	; 0x41
    4190:	91121823 	tstls	r2, r3, lsr #16
    4194:	27000008 	strcs	r0, [r0, -r8]
    4198:	41f80412 	mvnsmi	r0, r2, lsl r4
    419c:	23020000 	movwcs	r0, #8192	; 0x2000
    41a0:	011a001c 	tsteq	sl, ip, lsl r0
    41a4:	00000068 	andeq	r0, r0, r8, rrx
    41a8:	000041b7 	undefined instruction 0x000041b7
    41ac:	003f961b 	eorseq	r9, pc, fp, lsl r6
    41b0:	3f961b00 	svccc	0x00961b00
    41b4:	06000000 	streq	r0, [r0], -r0
    41b8:	0041a204 	subeq	sl, r1, r4, lsl #4
    41bc:	68011a00 	stmdavs	r1, {r9, fp, ip}
    41c0:	d7000000 	strle	r0, [r0, -r0]
    41c4:	1b000041 	blne	42d0 <.debug_info+0x42d0>
    41c8:	00003f96 	muleq	r0, r6, pc
    41cc:	003f961b 	eorseq	r9, pc, fp, lsl r6
    41d0:	00681b00 	rsbeq	r1, r8, r0, lsl #22
    41d4:	06000000 	streq	r0, [r0], -r0
    41d8:	0041bd04 	subeq	fp, r1, r4, lsl #26
    41dc:	68011a00 	stmdavs	r1, {r9, fp, ip}
    41e0:	f2000000 	vhadd.s8	d0, d0, d0
    41e4:	1b000041 	blne	42f0 <.debug_info+0x42f0>
    41e8:	000041f2 	strdeq	r4, [r0], -r2
    41ec:	0000681b 	andeq	r6, r0, fp, lsl r8
    41f0:	04060000 	streq	r0, [r6]
    41f4:	00003f96 	muleq	r0, r6, pc
    41f8:	41dd0406 	bicsmi	r0, sp, r6, lsl #8
    41fc:	4d100000 	ldcmi	0, cr0, [r0]
    4200:	10000028 	andne	r0, r0, r8, lsr #32
    4204:	42350d33 	eorsmi	r0, r5, #3264	; 0xcc0
    4208:	770e0000 	strvc	r0, [lr, -r0]
    420c:	3300001b 	movwcc	r0, #27
    4210:	0001040e 	andeq	r0, r1, lr, lsl #8
    4214:	00230200 	eoreq	r0, r3, r0, lsl #4
    4218:	0011190e 	andseq	r1, r1, lr, lsl #18
    421c:	3b0f3300 	blcc	3d0e24 <tz_ioctl+0x3d0bd8>
    4220:	02000042 	andeq	r0, r0, #66	; 0x42
    4224:	ea0e0423 	b	381094 <tz_ioctl+0x380e48>
    4228:	33000013 	movwcc	r0, #19
    422c:	00029f10 	andeq	r9, r2, r0, lsl pc
    4230:	08230200 	stmdaeq	r3!, {r9}
    4234:	0d881500 	cfstr32eq	mvfx1, [r8]
    4238:	06010000 	streq	r0, [r1], -r0
    423c:	00423504 	subeq	r3, r2, r4, lsl #10
    4240:	2e001000 	cdpcs	0, 0, cr1, cr0, cr0, {0}
    4244:	33040000 	movwcc	r0, #16384	; 0x4000
    4248:	00425c14 	subeq	r5, r2, r4, lsl ip
    424c:	11190e00 	tstne	r9, r0, lsl #28
    4250:	15330000 	ldrne	r0, [r3]!
    4254:	00004262 	andeq	r4, r0, r2, ror #4
    4258:	00002302 	andeq	r2, r0, r2, lsl #6
    425c:	00118f15 	andseq	r8, r1, r5, lsl pc
    4260:	04060100 	streq	r0, [r6], #-256	; 0x100
    4264:	0000425c 	andeq	r4, r0, ip, asr r2
    4268:	36270c24 	strtcc	r0, [r7], -r4, lsr #24
    426c:	00429004 	subeq	r9, r2, r4
    4270:	16761200 	ldrbtne	r1, [r6], -r0, lsl #4
    4274:	37270000 	strcc	r0, [r7, -r0]!
    4278:	00029f04 	andeq	r9, r2, r4, lsl #30
    427c:	00230200 	eoreq	r0, r3, r0, lsl #4
    4280:	001b7712 	andseq	r7, fp, r2, lsl r7
    4284:	04382700 	ldrteq	r2, [r8], #-1792	; 0x700
    4288:	00000068 	andeq	r0, r0, r8, rrx
    428c:	00082302 	andeq	r2, r8, r2, lsl #6
    4290:	3327102d 	teqcc	r7, #45	; 0x2d
    4294:	0042be04 	subeq	fp, r2, r4, lsl #28
    4298:	0a132f00 	beq	4cbc08 <tz_ioctl+0x4cb9bc>
    429c:	34270000 	strtcc	r0, [r7]
    42a0:	0041fe04 	subeq	pc, r1, r4, lsl #28
    42a4:	027d2f00 	rsbseq	r2, sp, #0
    42a8:	35270000 	strcc	r0, [r7]!
    42ac:	00424104 	subeq	r4, r2, r4, lsl #2
    42b0:	66612e00 	strbtvs	r2, [r1], -r0, lsl #28
    42b4:	39270073 	stmdbcc	r7!, {r0, r1, r4, r5, r6}
    42b8:	00426804 	subeq	r6, r2, r4, lsl #16
    42bc:	ed110000 	ldc	0, cr0, [r1]
    42c0:	10000010 	andne	r0, r0, r0, lsl r0
    42c4:	08042e27 	stmdaeq	r4, {r0, r1, r2, r5, r9, sl, fp, sp}
    42c8:	12000043 	andne	r0, r0, #67	; 0x43
    42cc:	000017a9 	andeq	r1, r0, r9, lsr #15
    42d0:	68050227 	stmdavs	r5, {r0, r1, r2, r5, r9}
    42d4:	02000000 	andeq	r0, r0, #0
    42d8:	55120023 	ldrpl	r0, [r2, #-35]	; 0x23
    42dc:	2700000f 	strcs	r0, [r0, -pc]
    42e0:	00680503 	rsbeq	r0, r8, r3, lsl #10
    42e4:	23020000 	movwcs	r0, #8192	; 0x2000
    42e8:	213d1204 	teqcs	sp, r4, lsl #4
    42ec:	04270000 	strteq	r0, [r7]
    42f0:	00430805 	subeq	r0, r3, r5, lsl #16
    42f4:	08230200 	stmdaeq	r3!, {r9}
    42f8:	00163112 	andseq	r3, r6, r2, lsl r1
    42fc:	05052700 	streq	r2, [r5, #-1792]	; 0x700
    4300:	00002a29 	andeq	r2, r0, r9, lsr #20
    4304:	000c2302 	andeq	r2, ip, r2, lsl #6
    4308:	42be0406 	adcsmi	r0, lr, #100663296	; 0x6000000
    430c:	04060000 	streq	r0, [r6]
    4310:	00004314 	andeq	r4, r0, r4, lsl r3
    4314:	00294229 	eoreq	r4, r9, r9, lsr #4
    4318:	0040c700 	subeq	ip, r0, r0, lsl #14
    431c:	23040600 	movwcs	r0, #17920	; 0x4600
    4320:	29000043 	stmdbcs	r0, {r0, r1, r6}
    4324:	00001ab0 	undefined instruction 0x00001ab0
    4328:	0000411c 	andeq	r4, r0, ip, lsl r1
    432c:	00214f11 	eoreq	r4, r1, r1, lsl pc
    4330:	2b272000 	blcs	9cc338 <tz_ioctl+0x9cc0ec>
    4334:	0043fd05 	subeq	pc, r3, r5, lsl #26
    4338:	17ed1200 	strbne	r1, [sp, r0, lsl #4]!
    433c:	cb270000 	blgt	9c4344 <tz_ioctl+0x9c40f8>
    4340:	00004306 	andeq	r4, r0, r6, lsl #6
    4344:	00230200 	eoreq	r0, r3, r0, lsl #4
    4348:	00275012 	eoreq	r5, r7, r2, lsl r0
    434c:	06cc2700 	strbeq	r2, [ip], r0, lsl #14
    4350:	00000068 	andeq	r0, r0, r8, rrx
    4354:	12042302 	andne	r2, r4, #134217728	; 0x8000000
    4358:	00001270 	andeq	r1, r0, r0, ror r2
    435c:	8106cd27 	tsthi	r6, r7, lsr #26
    4360:	0200004c 	andeq	r0, r0, #76	; 0x4c
    4364:	77120823 	ldrvc	r0, [r2, -r3, lsr #16]
    4368:	27000028 	strcs	r0, [r0, -r8, lsr #32]
    436c:	4bad06cf 	blmi	feb45eb0 <tz_ioctl+0xfeb45c64>
    4370:	23020000 	movwcs	r0, #8192	; 0x2000
    4374:	1119120c 	tstne	r9, ip, lsl #4
    4378:	d0270000 	eorle	r0, r7, r0
    437c:	0013f306 	andseq	pc, r3, r6, lsl #6
    4380:	10230200 	eorne	r0, r3, r0, lsl #4
    4384:	00037212 	andeq	r7, r3, r2, lsl r2
    4388:	06d12700 	ldrbeq	r2, [r1], r0, lsl #14
    438c:	000043fd 	strdeq	r4, [r0], -sp
    4390:	12142302 	andsne	r2, r4, #134217728	; 0x8000000
    4394:	0000216a 	andeq	r2, r0, sl, ror #2
    4398:	9f06d227 	svcls	0x0006d227
    439c:	02000002 	andeq	r0, r0, #2
    43a0:	b5121823 	ldrlt	r1, [r2, #-2083]	; 0x823
    43a4:	27000000 	strcs	r0, [r0, -r0]
    43a8:	086b06d4 	stmdaeq	fp!, {r2, r4, r6, r7, r9, sl}^
    43ac:	23020000 	movwcs	r0, #8192	; 0x2000
    43b0:	07531220 	ldrbeq	r1, [r3, -r0, lsr #4]
    43b4:	d5270000 	strle	r0, [r7]!
    43b8:	00086b06 	andeq	r6, r8, r6, lsl #22
    43bc:	20230200 	eorcs	r0, r3, r0, lsl #4
    43c0:	001f3b12 	andseq	r3, pc, r2, lsl fp
    43c4:	06d72700 	ldrbeq	r2, [r7], r0, lsl #14
    43c8:	0000086b 	andeq	r0, r0, fp, ror #16
    43cc:	12202302 	eorne	r2, r0, #134217728	; 0x8000000
    43d0:	00001fdf 	ldrdeq	r1, [r0], -pc
    43d4:	6b06d827 	blvs	1ba478 <tz_ioctl+0x1ba22c>
    43d8:	02000008 	andeq	r0, r0, #8
    43dc:	5f122023 	svcpl	0x00122023
    43e0:	2700000d 	strcs	r0, [r0, -sp]
    43e4:	086b06d9 	stmdaeq	fp!, {r0, r3, r4, r6, r7, r9, sl}^
    43e8:	23020000 	movwcs	r0, #8192	; 0x2000
    43ec:	05501220 	ldrbeq	r1, [r0, #-544]	; 0x220
    43f0:	da270000 	ble	9c43f8 <tz_ioctl+0x9c41ac>
    43f4:	00086b06 	andeq	r6, r8, r6, lsl #22
    43f8:	20230200 	eorcs	r0, r3, r0, lsl #4
    43fc:	2c040600 	stccs	6, cr0, [r4], {0}
    4400:	11000043 	tstne	r0, r3, asr #32
    4404:	0000151a 	andeq	r1, r0, sl, lsl r5
    4408:	052c2748 	streq	r2, [ip, #-1864]!	; 0x748
    440c:	0000451f 	andeq	r4, r0, pc, lsl r5
    4410:	001eaa12 	andseq	sl, lr, r2, lsl sl
    4414:	06142700 	ldreq	r2, [r4], -r0, lsl #14
    4418:	00004b9b 	muleq	r0, fp, fp
    441c:	12002302 	andne	r2, r0, #134217728	; 0x8000000
    4420:	000024d2 	ldrdeq	r2, [r0], -r2
    4424:	47061527 	strmi	r1, [r6, -r7, lsr #10]
    4428:	0200004a 	andeq	r0, r0, #74	; 0x4a
    442c:	70120423 	andsvc	r0, r2, r3, lsr #8
    4430:	2700002d 	strcs	r0, [r0, -sp, lsr #32]
    4434:	4a470617 	bmi	11c5c98 <tz_ioctl+0x11c5a4c>
    4438:	23020000 	movwcs	r0, #8192	; 0x2000
    443c:	01531208 	cmpeq	r3, r8, lsl #4
    4440:	18270000 	stmdane	r7!, {}
    4444:	00315406 	eorseq	r5, r1, r6, lsl #8
    4448:	0c230200 	sfmeq	f0, 4, [r3]	; (stceq 2, cr0, [r3])
    444c:	0005ba12 	andeq	fp, r5, r2, lsl sl
    4450:	06192700 	ldreq	r2, [r9], -r0, lsl #14
    4454:	00004a47 	andeq	r4, r0, r7, asr #20
    4458:	12102302 	andsne	r2, r0, #134217728	; 0x8000000
    445c:	000001e1 	andeq	r0, r0, r1, ror #3
    4460:	47061a27 	strmi	r1, [r6, -r7, lsr #20]
    4464:	0200004a 	andeq	r0, r0, #74	; 0x4a
    4468:	02121423 	andseq	r1, r2, #587202560	; 0x23000000
    446c:	27000003 	strcs	r0, [r0, -r3]
    4470:	4bad061b 	blmi	feb45ce4 <tz_ioctl+0xfeb45a98>
    4474:	23020000 	movwcs	r0, #8192	; 0x2000
    4478:	1f7b1218 	svcne	0x007b1218
    447c:	1c270000 	stcne	0, cr0, [r7]
    4480:	004bad06 	subeq	sl, fp, r6, lsl #26
    4484:	1c230200 	sfmne	f0, 4, [r3]	; (stcne 2, cr0, [r3])
    4488:	001b7d12 	andseq	r7, fp, r2, lsl sp
    448c:	061d2700 	ldreq	r2, [sp], -r0, lsl #14
    4490:	00003007 	andeq	r3, r0, r7
    4494:	12202302 	eorne	r2, r0, #134217728	; 0x8000000
    4498:	000019a6 	andeq	r1, r0, r6, lsr #19
    449c:	c3061e27 	movwgt	r1, #28199	; 0x6e27
    44a0:	0200004b 	andeq	r0, r0, #75	; 0x4b
    44a4:	3b122423 	blcc	489094 <tz_ioctl+0x488e48>
    44a8:	2700001e 	smladcs	r0, lr, r0, r0
    44ac:	4bc3061f 	blmi	ff0c5d30 <tz_ioctl+0xff0c5ae4>
    44b0:	23020000 	movwcs	r0, #8192	; 0x2000
    44b4:	0f131228 	svceq	0x00131228
    44b8:	20270000 	eorcs	r0, r7, r0
    44bc:	004bea06 	subeq	lr, fp, r6, lsl #20
    44c0:	2c230200 	sfmcs	f0, 4, [r3]	; (stccs 2, cr0, [r3])
    44c4:	0007f112 	andeq	pc, r7, r2, lsl r1
    44c8:	06212700 	strteq	r2, [r1], -r0, lsl #14
    44cc:	00004c10 	andeq	r4, r0, r0, lsl ip
    44d0:	12302302 	eorsne	r2, r0, #134217728	; 0x8000000
    44d4:	00001325 	andeq	r1, r0, r5, lsr #6
    44d8:	47062227 	strmi	r2, [r6, -r7, lsr #4]
    44dc:	0200004a 	andeq	r0, r0, #74	; 0x4a
    44e0:	35123423 	ldrcc	r3, [r2, #-1059]	; 0x423
    44e4:	27000023 	strcs	r0, [r0, -r3, lsr #32]
    44e8:	4bad0623 	blmi	feb45d7c <tz_ioctl+0xfeb45b30>
    44ec:	23020000 	movwcs	r0, #8192	; 0x2000
    44f0:	1dff1238 	lfmne	f1, 2, [pc, #224]!	; (ldclne 2, cr1, [pc, #224]!)	; 0xe0
    44f4:	25270000 	strcs	r0, [r7]!
    44f8:	004c3706 	subeq	r3, ip, r6, lsl #14
    44fc:	3c230200 	sfmcc	f0, 4, [r3]	; (stccc 2, cr0, [r3])
    4500:	00260112 	eoreq	r0, r6, r2, lsl r1
    4504:	06262700 	strteq	r2, [r6], -r0, lsl #14
    4508:	00004c37 	andeq	r4, r0, r7, lsr ip
    450c:	12402302 	subne	r2, r0, #134217728	; 0x8000000
    4510:	00001af0 	strdeq	r1, [r0], -r0
    4514:	57062b27 	strpl	r2, [r6, -r7, lsr #22]
    4518:	0200004c 	andeq	r0, r0, #76	; 0x4c
    451c:	06004423 	streq	r4, [r0], -r3, lsr #8
    4520:	00452504 	subeq	r2, r5, r4, lsl #10
    4524:	151a2900 	ldrne	r2, [sl, #-2304]	; 0x900
    4528:	44030000 	strmi	r0, [r3]
    452c:	04060000 	streq	r0, [r6]
    4530:	00004534 	andeq	r4, r0, r4, lsr r5
    4534:	00061729 	andeq	r1, r6, r9, lsr #14
    4538:	00302300 	eorseq	r2, r0, r0, lsl #6
    453c:	43040600 	movwmi	r0, #17920	; 0x4600
    4540:	29000045 	stmdbcs	r0, {r0, r2, r6}
    4544:	000006f2 	strdeq	r0, [r0], -r2
    4548:	00003256 	andeq	r3, r0, r6, asr r2
    454c:	000c3515 	andeq	r3, ip, r5, lsl r5
    4550:	04060100 	streq	r0, [r6], #-256	; 0x100
    4554:	00004558 	andeq	r4, r0, r8, asr r5
    4558:	000c3529 	andeq	r3, ip, r9, lsr #10
    455c:	00454c00 	subeq	r4, r5, r0, lsl #24
    4560:	06d61500 	ldrbeq	r1, [r6], r0, lsl #10
    4564:	06010000 	streq	r0, [r1], -r0
    4568:	00456d04 	subeq	r6, r5, r4, lsl #26
    456c:	61040600 	tstvs	r4, r0, lsl #12
    4570:	15000045 	strne	r0, [r0, #-69]	; 0x45
    4574:	0000008f 	andeq	r0, r0, pc, lsl #1
    4578:	73040601 	movwvc	r0, #17921	; 0x4601
    457c:	11000045 	tstne	r0, r5, asr #32
    4580:	000029a4 	andeq	r2, r0, r4, lsr #19
    4584:	059b2710 	ldreq	r2, [fp, #1808]	; 0x710
    4588:	000045c9 	andeq	r4, r0, r9, asr #11
    458c:	000c4712 	andeq	r4, ip, r2, lsl r7
    4590:	059c2700 	ldreq	r2, [ip, #1792]	; 0x700
    4594:	00000055 	andeq	r0, r0, r5, asr r0
    4598:	12002302 	andne	r2, r0, #134217728	; 0x8000000
    459c:	00001ef3 	strdeq	r1, [r0], -r3
    45a0:	55059d27 	strpl	r9, [r5, #-3367]	; 0xd27
    45a4:	02000000 	andeq	r0, r0, #0
    45a8:	f5120423 	undefined instruction 0xf5120423
    45ac:	2700002b 	strcs	r0, [r0, -fp, lsr #32]
    45b0:	0055059e 	ldrbeq	r0, [r5], #-94	; 0xffffffa2
    45b4:	23020000 	movwcs	r0, #8192	; 0x2000
    45b8:	28281208 	stmdacs	r8!, {r3, r9, ip}
    45bc:	9f270000 	svcls	0x00270000
    45c0:	0045c905 	subeq	ip, r5, r5, lsl #18
    45c4:	0c230200 	sfmeq	f0, 4, [r3]	; (stceq 2, cr0, [r3])
    45c8:	15040600 	strne	r0, [r4, #-1536]	; 0x600
    45cc:	25000028 	strcs	r0, [r0, #-40]	; 0x28
    45d0:	000011bd 	undefined instruction 0x000011bd
    45d4:	db05bc27 	blle	173678 <tz_ioctl+0x17342c>
    45d8:	06000045 	streq	r0, [r0], -r5, asr #32
    45dc:	0045e104 	subeq	lr, r5, r4, lsl #2
    45e0:	68011a00 	stmdavs	r1, {r9, fp, ip}
    45e4:	0a000000 	beq	45ec <.debug_info+0x45ec>
    45e8:	1b000046 	blne	4708 <.debug_info+0x4708>
    45ec:	00000323 	andeq	r0, r0, r3, lsr #6
    45f0:	0000431b 	andeq	r4, r0, fp, lsl r3
    45f4:	00681b00 	rsbeq	r1, r8, r0, lsl #22
    45f8:	de1b0000 	cdple	0, 1, cr0, cr11, cr0, {0}
    45fc:	1b000001 	blne	4608 <.debug_info+0x4608>
    4600:	0000010f 	andeq	r0, r0, pc, lsl #2
    4604:	0000551b 	andeq	r5, r0, fp, lsl r5
    4608:	011a0000 	tsteq	sl, r0
    460c:	000001de 	ldrdeq	r0, [r0], -lr
    4610:	00004624 	andeq	r4, r0, r4, lsr #12
    4614:	002a291b 	eoreq	r2, sl, fp, lsl r9
    4618:	01de1b00 	bicseq	r1, lr, r0, lsl #22
    461c:	681b0000 	ldmdavs	fp, {}
    4620:	00000000 	andeq	r0, r0, r0
    4624:	460a0406 	strmi	r0, [sl], -r6, lsl #8
    4628:	011a0000 	tsteq	sl, r0
    462c:	000001f4 	strdeq	r0, [r0], -r4
    4630:	00004649 	andeq	r4, r0, r9, asr #12
    4634:	002a291b 	eoreq	r2, sl, fp, lsl r9
    4638:	01631b00 	cmneq	r3, r0, lsl #22
    463c:	e91b0000 	ldmdb	fp, {}
    4640:	1b000001 	blne	464c <.debug_info+0x464c>
    4644:	00004649 	andeq	r4, r0, r9, asr #12
    4648:	de040600 	cfmadd32le	mvax0, mvfx0, mvfx4, mvfx0
    464c:	06000001 	streq	r0, [r0], -r1
    4650:	00462a04 	subeq	r2, r6, r4, lsl #20
    4654:	f4011a00 	vst1.8	{d1-d2}, [r1], r0
    4658:	74000001 	strvc	r0, [r0], #-1
    465c:	1b000046 	blne	477c <.debug_info+0x477c>
    4660:	00002a29 	andeq	r2, r0, r9, lsr #20
    4664:	0000431b 	andeq	r4, r0, fp, lsl r3
    4668:	01e91b00 	mvneq	r1, r0, lsl #22
    466c:	491b0000 	ldmdbmi	fp, {}
    4670:	00000046 	andeq	r0, r0, r6, asr #32
    4674:	46550406 	ldrbmi	r0, [r5], -r6, lsl #8
    4678:	011a0000 	tsteq	sl, r0
    467c:	000001f4 	strdeq	r0, [r0], -r4
    4680:	00004699 	muleq	r0, r9, r6
    4684:	0028961b 	eoreq	r9, r8, fp, lsl r6
    4688:	34c41b00 	strbcc	r1, [r4], #2816	; 0xb00
    468c:	291b0000 	ldmdbcs	fp, {}
    4690:	1b000000 	blne	4698 <.debug_info+0x4698>
    4694:	000001de 	ldrdeq	r0, [r0], -lr
    4698:	7a040600 	bvc	105ea0 <tz_ioctl+0x105c54>
    469c:	1a000046 	bne	47bc <.debug_info+0x47bc>
    46a0:	00006801 	andeq	r6, r0, r1, lsl #16
    46a4:	0046b900 	subeq	fp, r6, r0, lsl #18
    46a8:	2a291b00 	bcs	a4b2b0 <tz_ioctl+0xa4b064>
    46ac:	231b0000 	tstcs	fp, #0
    46b0:	1b000003 	blne	46c4 <.debug_info+0x46c4>
    46b4:	000045cf 	andeq	r4, r0, pc, asr #11
    46b8:	9f040600 	svcls	0x00040600
    46bc:	1a000046 	bne	47dc <.debug_info+0x47dc>
    46c0:	00005501 	andeq	r5, r0, r1, lsl #10
    46c4:	0046d400 	subeq	sp, r6, r0, lsl #8
    46c8:	2a291b00 	bcs	a4b2d0 <tz_ioctl+0xa4b084>
    46cc:	d41b0000 	ldrle	r0, [fp]
    46d0:	00000046 	andeq	r0, r0, r6, asr #32
    46d4:	46da0406 	ldrbmi	r0, [sl], r6, lsl #8
    46d8:	2e150000 	cdpcs	0, 1, cr0, cr5, cr0, {0}
    46dc:	01000007 	tsteq	r0, r7
    46e0:	46bf0406 	ldrtmi	r0, [pc], r6, lsl #8
    46e4:	011a0000 	tsteq	sl, r0
    46e8:	00000068 	andeq	r0, r0, r8, rrx
    46ec:	00004705 	andeq	r4, r0, r5, lsl #14
    46f0:	0022221b 	eoreq	r2, r2, fp, lsl r2
    46f4:	2a291b00 	bcs	a4b2fc <tz_ioctl+0xa4b0b0>
    46f8:	551b0000 	ldrpl	r0, [fp]
    46fc:	1b000000 	blne	4704 <.debug_info+0x4704>
    4700:	00000029 	andeq	r0, r0, r9, lsr #32
    4704:	e6040600 	str	r0, [r4], -r0, lsl #12
    4708:	1a000046 	bne	4828 <.debug_info+0x4828>
    470c:	00013001 	andeq	r3, r1, r1
    4710:	00472500 	subeq	r2, r7, r0, lsl #10
    4714:	2a291b00 	bcs	a4b31c <tz_ioctl+0xa4b0d0>
    4718:	551b0000 	ldrpl	r0, [fp]
    471c:	1b000000 	blne	4724 <.debug_info+0x4724>
    4720:	00000029 	andeq	r0, r0, r9, lsr #32
    4724:	0b040600 	bleq	105f2c <tz_ioctl+0x105ce0>
    4728:	1a000047 	bne	484c <.debug_info+0x484c>
    472c:	00006801 	andeq	r6, r0, r1, lsl #16
    4730:	00474000 	subeq	r4, r7, r0
    4734:	2a291b00 	bcs	a4b33c <tz_ioctl+0xa4b0f0>
    4738:	251b0000 	ldrcs	r0, [fp]
    473c:	00000015 	andeq	r0, r0, r5, lsl r0
    4740:	472b0406 	strmi	r0, [fp, -r6, lsl #8]!
    4744:	011a0000 	tsteq	sl, r0
    4748:	00000068 	andeq	r0, r0, r8, rrx
    474c:	0000475b 	andeq	r4, r0, fp, asr r7
    4750:	0022221b 	eoreq	r2, r2, fp, lsl r2
    4754:	2a291b00 	bcs	a4b35c <tz_ioctl+0xa4b110>
    4758:	06000000 	streq	r0, [r0], -r0
    475c:	00474604 	subeq	r4, r7, r4, lsl #12
    4760:	68011a00 	stmdavs	r1, {r9, fp, ip}
    4764:	76000000 	strvc	r0, [r0], -r0
    4768:	1b000047 	blne	488c <.debug_info+0x488c>
    476c:	00002a29 	andeq	r2, r0, r9, lsr #20
    4770:	0040af1b 	subeq	sl, r0, fp, lsl pc
    4774:	04060000 	streq	r0, [r6]
    4778:	00004761 	andeq	r4, r0, r1, ror #14
    477c:	0068011a 	rsbeq	r0, r8, sl, lsl r1
    4780:	47960000 	ldrmi	r0, [r6, r0]
    4784:	291b0000 	ldmdbcs	fp, {}
    4788:	1b00002a 	blne	4838 <.debug_info+0x4838>
    478c:	00002228 	andeq	r2, r0, r8, lsr #4
    4790:	0000681b 	andeq	r6, r0, fp, lsl r8
    4794:	04060000 	streq	r0, [r6]
    4798:	0000477c 	andeq	r4, r0, ip, ror r7
    479c:	0068011a 	rsbeq	r0, r8, sl, lsl r1
    47a0:	47b10000 	ldrmi	r0, [r1, r0]!
    47a4:	961b0000 	ldrls	r0, [fp], -r0
    47a8:	1b000028 	blne	4850 <.debug_info+0x4850>
    47ac:	00000068 	andeq	r0, r0, r8, rrx
    47b0:	9c040600 	stcls	6, cr0, [r4], {0}
    47b4:	1a000047 	bne	48d8 <.debug_info+0x48d8>
    47b8:	00006801 	andeq	r6, r0, r1, lsl #16
    47bc:	0047d100 	subeq	sp, r7, r0, lsl #2
    47c0:	00681b00 	rsbeq	r1, r8, r0, lsl #22
    47c4:	291b0000 	ldmdbcs	fp, {}
    47c8:	1b00002a 	blne	4878 <.debug_info+0x4878>
    47cc:	00000068 	andeq	r0, r0, r8, rrx
    47d0:	b7040600 	strlt	r0, [r4, -r0, lsl #12]
    47d4:	1a000047 	bne	48f8 <.debug_info+0x48f8>
    47d8:	00006801 	andeq	r6, r0, r1, lsl #16
    47dc:	0047f100 	subeq	pc, r7, r0, lsl #2
    47e0:	2a291b00 	bcs	a4b3e8 <tz_ioctl+0xa4b19c>
    47e4:	681b0000 	ldmdavs	fp, {}
    47e8:	1b000000 	blne	47f0 <.debug_info+0x47f0>
    47ec:	00003f96 	muleq	r0, r6, pc
    47f0:	d7040600 	strle	r0, [r4, -r0, lsl #12]
    47f4:	1a000047 	bne	4918 <.debug_info+0x4918>
    47f8:	0001f401 	andeq	pc, r1, r1, lsl #8
    47fc:	00482000 	subeq	r2, r8, r0
    4800:	2a291b00 	bcs	a4b408 <tz_ioctl+0xa4b1bc>
    4804:	1f1b0000 	svcne	0x001b0000
    4808:	1b00000a 	blne	4838 <.debug_info+0x4838>
    480c:	00000068 	andeq	r0, r0, r8, rrx
    4810:	0001e91b 	andeq	lr, r1, fp, lsl r9
    4814:	46491b00 	strbmi	r1, [r9], -r0, lsl #22
    4818:	681b0000 	ldmdavs	fp, {}
    481c:	00000000 	andeq	r0, r0, r0
    4820:	47f70406 	ldrbmi	r0, [r7, r6, lsl #8]!
    4824:	011a0000 	tsteq	sl, r0
    4828:	00000029 	andeq	r0, r0, r9, lsr #32
    482c:	0000484a 	andeq	r4, r0, sl, asr #16
    4830:	002a291b 	eoreq	r2, sl, fp, lsl r9
    4834:	00291b00 	eoreq	r1, r9, r0, lsl #22
    4838:	291b0000 	ldmdbcs	fp, {}
    483c:	1b000000 	blne	4844 <.debug_info+0x4844>
    4840:	00000029 	andeq	r0, r0, r9, lsr #32
    4844:	0000291b 	andeq	r2, r0, fp, lsl r9
    4848:	04060000 	streq	r0, [r6]
    484c:	00004826 	andeq	r4, r0, r6, lsr #16
    4850:	0068011a 	rsbeq	r0, r8, sl, lsl r1
    4854:	48600000 	stmdami	r0!, {}^
    4858:	681b0000 	ldmdavs	fp, {}
    485c:	00000000 	andeq	r0, r0, r0
    4860:	48500406 	ldmdami	r0, {r1, r2, sl}^
    4864:	011a0000 	tsteq	sl, r0
    4868:	000001f4 	strdeq	r0, [r0], -r4
    486c:	0000488a 	andeq	r4, r0, sl, lsl #17
    4870:	003af31b 	eorseq	pc, sl, fp, lsl r3
    4874:	2a291b00 	bcs	a4b47c <tz_ioctl+0xa4b230>
    4878:	491b0000 	ldmdbmi	fp, {}
    487c:	1b000046 	blne	499c <.debug_info+0x499c>
    4880:	000001e9 	andeq	r0, r0, r9, ror #3
    4884:	0000551b 	andeq	r5, r0, fp, lsl r5
    4888:	04060000 	streq	r0, [r6]
    488c:	00004866 	andeq	r4, r0, r6, ror #16
    4890:	01f4011a 	mvnseq	r0, sl, lsl r1
    4894:	48b40000 	ldmmi	r4!, {}
    4898:	291b0000 	ldmdbcs	fp, {}
    489c:	1b00002a 	blne	494c <.debug_info+0x494c>
    48a0:	00004649 	andeq	r4, r0, r9, asr #12
    48a4:	003af31b 	eorseq	pc, sl, fp, lsl r3
    48a8:	01e91b00 	mvneq	r1, r0, lsl #22
    48ac:	551b0000 	ldrpl	r0, [fp]
    48b0:	00000000 	andeq	r0, r0, r0
    48b4:	48900406 	ldmmi	r0, {r1, r2, sl}
    48b8:	011a0000 	tsteq	sl, r0
    48bc:	00000068 	andeq	r0, r0, r8, rrx
    48c0:	000048d4 	ldrdeq	r4, [r0], -r4
    48c4:	002a291b 	eoreq	r2, sl, fp, lsl r9
    48c8:	01301b00 	teqeq	r0, r0, lsl #22
    48cc:	f21b0000 	vhadd.s16	d0, d11, d0
    48d0:	00000041 	andeq	r0, r0, r1, asr #32
    48d4:	48ba0406 	ldmmi	sl!, {r1, r2, sl}
    48d8:	011a0000 	tsteq	sl, r0
    48dc:	00000068 	andeq	r0, r0, r8, rrx
    48e0:	000048f9 	strdeq	r4, [r0], -r9
    48e4:	0022221b 	eoreq	r2, r2, fp, lsl r2
    48e8:	22281b00 	eorcs	r1, r8, #0
    48ec:	681b0000 	ldmdavs	fp, {}
    48f0:	1b000000 	blne	48f8 <.debug_info+0x48f8>
    48f4:	00002545 	andeq	r2, r0, r5, asr #10
    48f8:	da040600 	ble	106100 <tz_ioctl+0x105eb4>
    48fc:	1a000048 	bne	4a24 <.debug_info+0x4a24>
    4900:	00222801 	eoreq	r2, r2, r1, lsl #16
    4904:	00491900 	subeq	r1, r9, r0, lsl #18
    4908:	22221b00 	eorcs	r1, r2, #0
    490c:	281b0000 	ldmdacs	fp, {}
    4910:	1b000022 	blne	49a0 <.debug_info+0x49a0>
    4914:	00002545 	andeq	r2, r0, r5, asr #10
    4918:	ff040600 	undefined instruction 0xff040600
    491c:	1a000048 	bne	4a44 <.debug_info+0x4a44>
    4920:	00006801 	andeq	r6, r0, r1, lsl #16
    4924:	00493900 	subeq	r3, r9, r0, lsl #18
    4928:	22281b00 	eorcs	r1, r8, #0
    492c:	221b0000 	andscs	r0, fp, #0
    4930:	1b000022 	blne	49c0 <.debug_info+0x49c0>
    4934:	00002228 	andeq	r2, r0, r8, lsr #4
    4938:	1f040600 	svcne	0x00040600
    493c:	1a000049 	bne	4a68 <.debug_info+0x4a68>
    4940:	00006801 	andeq	r6, r0, r1, lsl #16
    4944:	00495400 	subeq	r5, r9, r0, lsl #8
    4948:	22221b00 	eorcs	r1, r2, #0
    494c:	281b0000 	ldmdacs	fp, {}
    4950:	00000022 	andeq	r0, r0, r2, lsr #32
    4954:	493f0406 	ldmdbmi	pc!, {r1, r2, sl}
    4958:	011a0000 	tsteq	sl, r0
    495c:	00000068 	andeq	r0, r0, r8, rrx
    4960:	00004974 	andeq	r4, r0, r4, ror r9
    4964:	0022221b 	eoreq	r2, r2, fp, lsl r2
    4968:	22281b00 	eorcs	r1, r8, #0
    496c:	431b0000 	tstmi	fp, #0
    4970:	00000000 	andeq	r0, r0, r0
    4974:	495a0406 	ldmdbmi	sl, {r1, r2, sl}^
    4978:	011a0000 	tsteq	sl, r0
    497c:	00000068 	andeq	r0, r0, r8, rrx
    4980:	00004994 	muleq	r0, r4, r9
    4984:	0022221b 	eoreq	r2, r2, fp, lsl r2
    4988:	22281b00 	eorcs	r1, r8, #0
    498c:	681b0000 	ldmdavs	fp, {}
    4990:	00000000 	andeq	r0, r0, r0
    4994:	497a0406 	ldmdbmi	sl!, {r1, r2, sl}^
    4998:	011a0000 	tsteq	sl, r0
    499c:	00000068 	andeq	r0, r0, r8, rrx
    49a0:	000049b9 	undefined instruction 0x000049b9
    49a4:	0022221b 	eoreq	r2, r2, fp, lsl r2
    49a8:	22281b00 	eorcs	r1, r8, #0
    49ac:	681b0000 	ldmdavs	fp, {}
    49b0:	1b000000 	blne	49b8 <.debug_info+0x49b8>
    49b4:	00000195 	muleq	r0, r5, r1
    49b8:	9a040600 	bls	1061c0 <tz_ioctl+0x105f74>
    49bc:	1a000049 	bne	4ae8 <.debug_info+0x4ae8>
    49c0:	00006801 	andeq	r6, r0, r1, lsl #16
    49c4:	0049de00 	subeq	sp, r9, r0, lsl #28
    49c8:	22221b00 	eorcs	r1, r2, #0
    49cc:	281b0000 	ldmdacs	fp, {}
    49d0:	1b000022 	blne	4a60 <.debug_info+0x4a60>
    49d4:	00002222 	andeq	r2, r0, r2, lsr #4
    49d8:	0022281b 	eoreq	r2, r2, fp, lsl r8
    49dc:	04060000 	streq	r0, [r6]
    49e0:	000049bf 	undefined instruction 0x000049bf
    49e4:	0068011a 	rsbeq	r0, r8, sl, lsl r1
    49e8:	49fe0000 	ldmibmi	lr!, {}^
    49ec:	281b0000 	ldmdacs	fp, {}
    49f0:	1b000022 	blne	4a80 <.debug_info+0x4a80>
    49f4:	00000163 	andeq	r0, r0, r3, ror #2
    49f8:	0000681b 	andeq	r6, r0, fp, lsl r8
    49fc:	04060000 	streq	r0, [r6]
    4a00:	000049e4 	andeq	r4, r0, r4, ror #19
    4a04:	0323011a 	teqeq	r3, #-2147483642	; 0x80000006
    4a08:	4a190000 	bmi	644a10 <tz_ioctl+0x6447c4>
    4a0c:	281b0000 	ldmdacs	fp, {}
    4a10:	1b000022 	blne	4aa0 <.debug_info+0x4aa0>
    4a14:	00002545 	andeq	r2, r0, r5, asr #10
    4a18:	04040600 	streq	r0, [r4], #-1536	; 0x600
    4a1c:	2100004a 	tstcs	r0, sl, asr #32
    4a20:	004a3501 	subeq	r3, sl, r1, lsl #10
    4a24:	22281b00 	eorcs	r1, r8, #0
    4a28:	451b0000 	ldrmi	r0, [fp]
    4a2c:	1b000025 	blne	4ac8 <.debug_info+0x4ac8>
    4a30:	00000323 	andeq	r0, r0, r3, lsr #6
    4a34:	1f040600 	svcne	0x00040600
    4a38:	2100004a 	tstcs	r0, sl, asr #32
    4a3c:	004a4701 	subeq	r4, sl, r1, lsl #14
    4a40:	22221b00 	eorcs	r1, r2, #0
    4a44:	06000000 	streq	r0, [r0], -r0
    4a48:	004a3b04 	subeq	r3, sl, r4, lsl #22
    4a4c:	68011a00 	stmdavs	r1, {r9, fp, ip}
    4a50:	62000000 	andvs	r0, r0, #0
    4a54:	1b00004a 	blne	4b84 <.debug_info+0x4b84>
    4a58:	00002228 	andeq	r2, r0, r8, lsr #4
    4a5c:	0031ea1b 	eorseq	lr, r1, fp, lsl sl
    4a60:	04060000 	streq	r0, [r6]
    4a64:	00004a4d 	andeq	r4, r0, sp, asr #20
    4a68:	0068011a 	rsbeq	r0, r8, sl, lsl r1
    4a6c:	4a820000 	bmi	fe084a74 <tz_ioctl+0xfe084828>
    4a70:	261b0000 	ldrcs	r0, [fp], -r0
    4a74:	1b000026 	blne	4b14 <.debug_info+0x4b14>
    4a78:	00002228 	andeq	r2, r0, r8, lsr #4
    4a7c:	004a821b 	subeq	r8, sl, fp, lsl r2
    4a80:	04060000 	streq	r0, [r6]
    4a84:	00000917 	andeq	r0, r0, r7, lsl r9
    4a88:	4a680406 	bmi	1a05aa8 <tz_ioctl+0x1a0585c>
    4a8c:	011a0000 	tsteq	sl, r0
    4a90:	00000068 	andeq	r0, r0, r8, rrx
    4a94:	00004ab2 	undefined instruction 0x00004ab2
    4a98:	0022281b 	eoreq	r2, r2, fp, lsl r8
    4a9c:	00431b00 	subeq	r1, r3, r0, lsl #22
    4aa0:	b21b0000 	andslt	r0, fp, #0
    4aa4:	1b00004a 	blne	4bd4 <.debug_info+0x4bd4>
    4aa8:	000001e9 	andeq	r0, r0, r9, ror #3
    4aac:	0000681b 	andeq	r6, r0, fp, lsl r8
    4ab0:	04060000 	streq	r0, [r6]
    4ab4:	00004ab8 	undefined instruction 0x00004ab8
    4ab8:	8e040630 	mcrhi	6, 0, r0, cr4, cr0, {1}
    4abc:	1a00004a 	bne	4bec <.debug_info+0x4bec>
    4ac0:	0001f401 	andeq	pc, r1, r1, lsl #8
    4ac4:	004ade00 	subeq	sp, sl, r0, lsl #28
    4ac8:	22281b00 	eorcs	r1, r8, #0
    4acc:	431b0000 	tstmi	fp, #0
    4ad0:	1b000000 	blne	4ad8 <.debug_info+0x4ad8>
    4ad4:	00000323 	andeq	r0, r0, r3, lsr #6
    4ad8:	0001e91b 	andeq	lr, r1, fp, lsl r9
    4adc:	04060000 	streq	r0, [r6]
    4ae0:	00004abf 	undefined instruction 0x00004abf
    4ae4:	01f4011a 	mvnseq	r0, sl, lsl r1
    4ae8:	4afe0000 	bmi	fff84af0 <tz_ioctl+0xfff848a4>
    4aec:	281b0000 	ldmdacs	fp, {}
    4af0:	1b000022 	blne	4b80 <.debug_info+0x4b80>
    4af4:	00000163 	andeq	r0, r0, r3, ror #2
    4af8:	0001e91b 	andeq	lr, r1, fp, lsl r9
    4afc:	04060000 	streq	r0, [r6]
    4b00:	00004ae4 	andeq	r4, r0, r4, ror #21
    4b04:	0068011a 	rsbeq	r0, r8, sl, lsl r1
    4b08:	4b190000 	blmi	644b10 <tz_ioctl+0x6448c4>
    4b0c:	281b0000 	ldmdacs	fp, {}
    4b10:	1b000022 	blne	4ba0 <.debug_info+0x4ba0>
    4b14:	00000043 	andeq	r0, r0, r3, asr #32
    4b18:	04040600 	streq	r0, [r4], #-1536	; 0x600
    4b1c:	2100004b 	tstcs	r0, fp, asr #32
    4b20:	004b3501 	subeq	r3, fp, r1, lsl #10
    4b24:	22221b00 	eorcs	r1, r2, #0
    4b28:	de1b0000 	cdple	0, 1, cr0, cr11, cr0, {0}
    4b2c:	1b000001 	blne	4b38 <.debug_info+0x4b38>
    4b30:	000001de 	ldrdeq	r0, [r0], -lr
    4b34:	1f040600 	svcne	0x00040600
    4b38:	1a00004b 	bne	4c6c <.debug_info+0x4c6c>
    4b3c:	00013001 	andeq	r3, r1, r1
    4b40:	004b5a00 	subeq	r5, fp, r0, lsl #20
    4b44:	22221b00 	eorcs	r1, r2, #0
    4b48:	681b0000 	ldmdavs	fp, {}
    4b4c:	1b000000 	blne	4b54 <.debug_info+0x4b54>
    4b50:	000001de 	ldrdeq	r0, [r0], -lr
    4b54:	0001de1b 	andeq	sp, r1, fp, lsl lr
    4b58:	04060000 	streq	r0, [r6]
    4b5c:	00004b3b 	andeq	r4, r0, fp, lsr fp
    4b60:	0068011a 	rsbeq	r0, r8, sl, lsl r1
    4b64:	4b7f0000 	blmi	1fc4b6c <tz_ioctl+0x1fc4920>
    4b68:	221b0000 	andscs	r0, fp, #0
    4b6c:	1b000022 	blne	4bfc <.debug_info+0x4bfc>
    4b70:	00004b7f 	andeq	r4, r0, pc, ror fp
    4b74:	00010f1b 	andeq	r0, r1, fp, lsl pc
    4b78:	010f1b00 	tsteq	pc, r0, lsl #22
    4b7c:	06000000 	streq	r0, [r0], -r0
    4b80:	00457f04 	subeq	r7, r5, r4, lsl #30
    4b84:	60040600 	andvs	r0, r4, r0, lsl #12
    4b88:	1a00004b 	bne	4cbc <.debug_info+0x4cbc>
    4b8c:	00222201 	eoreq	r2, r2, r1, lsl #4
    4b90:	004b9b00 	subeq	r9, fp, r0, lsl #22
    4b94:	251a1b00 	ldrcs	r1, [sl, #-2816]	; 0xb00
    4b98:	06000000 	streq	r0, [r0], -r0
    4b9c:	004b8b04 	subeq	r8, fp, r4, lsl #22
    4ba0:	ad012100 	stfges	f2, [r1]
    4ba4:	1b00004b 	blne	4cd8 <.debug_info+0x4cd8>
    4ba8:	0000251a 	andeq	r2, r0, sl, lsl r5
    4bac:	a1040600 	tstge	r4, r0, lsl #12
    4bb0:	1a00004b 	bne	4ce4 <.debug_info+0x4ce4>
    4bb4:	00006801 	andeq	r6, r0, r1, lsl #16
    4bb8:	004bc300 	subeq	ip, fp, r0, lsl #6
    4bbc:	251a1b00 	ldrcs	r1, [sl, #-2816]	; 0xb00
    4bc0:	06000000 	streq	r0, [r0], -r0
    4bc4:	004bb304 	subeq	fp, fp, r4, lsl #6
    4bc8:	68011a00 	stmdavs	r1, {r9, fp, ip}
    4bcc:	de000000 	cdple	0, 0, cr0, cr0, cr0, {0}
    4bd0:	1b00004b 	blne	4d04 <.debug_info+0x4d04>
    4bd4:	00002228 	andeq	r2, r0, r8, lsr #4
    4bd8:	004bde1b 	subeq	sp, fp, fp, lsl lr
    4bdc:	04060000 	streq	r0, [r6]
    4be0:	00004be4 	andeq	r4, r0, r4, ror #23
    4be4:	002f8a15 	eoreq	r8, pc, r5, lsl sl
    4be8:	04060100 	streq	r0, [r6], #-256	; 0x100
    4bec:	00004bc9 	andeq	r4, r0, r9, asr #23
    4bf0:	0068011a 	rsbeq	r0, r8, sl, lsl r1
    4bf4:	4c0a0000 	stcmi	0, cr0, [sl], {0}
    4bf8:	1a1b0000 	bne	6c4c00 <tz_ioctl+0x6c49b4>
    4bfc:	1b000025 	blne	4c98 <.debug_info+0x4c98>
    4c00:	00004c0a 	andeq	r4, r0, sl, lsl #24
    4c04:	0001631b 	andeq	r6, r1, fp, lsl r3
    4c08:	04060000 	streq	r0, [r6]
    4c0c:	00000068 	andeq	r0, r0, r8, rrx
    4c10:	4bf00406 	blmi	ffc05c30 <tz_ioctl+0xffc059e4>
    4c14:	011a0000 	tsteq	sl, r0
    4c18:	00000068 	andeq	r0, r0, r8, rrx
    4c1c:	00004c2b 	andeq	r4, r0, fp, lsr #24
    4c20:	004c2b1b 	subeq	r2, ip, fp, lsl fp
    4c24:	26261b00 	strtcs	r1, [r6], -r0, lsl #22
    4c28:	06000000 	streq	r0, [r0], -r0
    4c2c:	004c3104 	subeq	r3, ip, r4, lsl #2
    4c30:	0cba1500 	cfldr32eq	mvfx1, [sl]
    4c34:	06010000 	streq	r0, [r1], -r0
    4c38:	004c1604 	subeq	r1, ip, r4, lsl #12
    4c3c:	68011a00 	stmdavs	r1, {r9, fp, ip}
    4c40:	57000000 	strpl	r0, [r0, -r0]
    4c44:	1b00004c 	blne	4d7c <.debug_info+0x4d7c>
    4c48:	0000251a 	andeq	r2, r0, sl, lsl r5
    4c4c:	000a1f1b 	andeq	r1, sl, fp, lsl pc
    4c50:	024c1b00 	subeq	r1, ip, #0
    4c54:	06000000 	streq	r0, [r0], -r0
    4c58:	004c3d04 	subeq	r3, ip, r4, lsl #26
    4c5c:	68011a00 	stmdavs	r1, {r9, fp, ip}
    4c60:	81000000 	tsthi	r0, r0
    4c64:	1b00004c 	blne	4d9c <.debug_info+0x4d9c>
    4c68:	000043fd 	strdeq	r4, [r0], -sp
    4c6c:	0000681b 	andeq	r6, r0, fp, lsl r8
    4c70:	00431b00 	subeq	r1, r3, r0, lsl #22
    4c74:	231b0000 	tstcs	fp, #0
    4c78:	1b000003 	blne	4c8c <.debug_info+0x4c8c>
    4c7c:	00002626 	andeq	r2, r0, r6, lsr #12
    4c80:	5d040600 	stcpl	6, cr0, [r4]
    4c84:	1000004c 	andne	r0, r0, ip, asr #32
    4c88:	0000278d 	andeq	r2, r0, sp, lsl #15
    4c8c:	f612341c 	undefined instruction 0xf612341c
    4c90:	0e00004c 	cdpeq	0, 0, cr0, cr0, cr12, {2}
    4c94:	00001a22 	andeq	r1, r0, r2, lsr #20
    4c98:	026d1334 	rsbeq	r1, sp, #-805306368	; 0xd0000000
    4c9c:	23020000 	movwcs	r0, #8192	; 0x2000
    4ca0:	6e651400 	cdpvs	4, 6, cr1, cr5, cr0, {0}
    4ca4:	14340064 	ldrtne	r0, [r4], #-100	; 0x64
    4ca8:	0000026d 	andeq	r0, r0, sp, ror #4
    4cac:	0e042302 	cdpeq	3, 0, cr2, cr4, cr2, {0}
    4cb0:	000017ed 	andeq	r1, r0, sp, ror #15
    4cb4:	00431534 	subeq	r1, r3, r4, lsr r5
    4cb8:	23020000 	movwcs	r0, #8192	; 0x2000
    4cbc:	30430e08 	subcc	r0, r3, r8, lsl #28
    4cc0:	16340000 	ldrtne	r0, [r4], -r0
    4cc4:	00000029 	andeq	r0, r0, r9, lsr #32
    4cc8:	0e0c2302 	cdpeq	3, 0, cr2, cr12, cr2, {0}
    4ccc:	000028ae 	andeq	r2, r0, lr, lsr #17
    4cd0:	4cf61734 	ldclmi	7, cr1, [r6], #208	; 0xd0
    4cd4:	23020000 	movwcs	r0, #8192	; 0x2000
    4cd8:	0ea70e10 	mcreq	14, 5, r0, cr7, cr0, {0}
    4cdc:	17340000 	ldrne	r0, [r4, -r0]!
    4ce0:	00004cf6 	strdeq	r4, [r0], -r6
    4ce4:	0e142302 	cdpeq	3, 1, cr2, cr4, cr2, {0}
    4ce8:	00002f84 	andeq	r2, r0, r4, lsl #31
    4cec:	4cf61734 	ldclmi	7, cr1, [r6], #208	; 0xd0
    4cf0:	23020000 	movwcs	r0, #8192	; 0x2000
    4cf4:	04060018 	streq	r0, [r6], #-24
    4cf8:	00004c87 	andeq	r4, r0, r7, lsl #25
    4cfc:	001d7c10 	andseq	r7, sp, r0, lsl ip
    4d00:	13351000 	teqne	r5, #0
    4d04:	00004d33 	andeq	r4, r0, r3, lsr sp
    4d08:	002f450e 	eoreq	r4, pc, lr, lsl #10
    4d0c:	23283500 	teqcs	r8, #0
    4d10:	02000003 	andeq	r0, r0, #3
    4d14:	230e0023 	movwcs	r0, #57379	; 0xe023
    4d18:	35000020 	strcc	r0, [r0, #-32]
    4d1c:	00029f29 	andeq	r9, r2, r9, lsr #30
    4d20:	04230200 	strteq	r0, [r3], #-512	; 0x200
    4d24:	0028c10e 	eoreq	ip, r8, lr, lsl #2
    4d28:	9f2a3500 	svcls	0x002a3500
    4d2c:	02000015 	andeq	r0, r0, #21
    4d30:	10000c23 	andne	r0, r0, r3, lsr #24
    4d34:	00000f97 	muleq	r0, r7, pc
    4d38:	4e2b3604 	cfmadda32mi	mvax0, mvax3, mvfx11, mvfx4
    4d3c:	0e00004d 	cdpeq	0, 0, cr0, cr0, cr13, {2}
    4d40:	00000043 	andeq	r0, r0, r3, asr #32
    4d44:	00682c36 	rsbeq	r2, r8, r6, lsr ip
    4d48:	23020000 	movwcs	r0, #8192	; 0x2000
    4d4c:	200b0000 	andcs	r0, fp, r0
    4d50:	3600001d 	undefined instruction 0x3600001d
    4d54:	004d332d 	subeq	r3, sp, sp, lsr #6
    4d58:	25d51000 	ldrbcs	r1, [r5]
    4d5c:	36440000 	strbcc	r0, [r4], -r0
    4d60:	004e54c4 	subeq	r5, lr, r4, asr #9
    4d64:	304f0e00 	subcc	r0, pc, r0, lsl #28
    4d68:	c5360000 	ldrgt	r0, [r6]!
    4d6c:	00004fd9 	ldrdeq	r4, [r0], -r9
    4d70:	0e002302 	cdpeq	3, 0, cr2, cr0, cr2, {0}
    4d74:	00002308 	andeq	r2, r0, r8, lsl #6
    4d78:	4febc636 	svcmi	0x00ebc636
    4d7c:	23020000 	movwcs	r0, #8192	; 0x2000
    4d80:	23810e04 	orrcs	r0, r1, #64	; 0x40
    4d84:	c7360000 	ldrgt	r0, [r6, -r0]!
    4d88:	00004fd9 	ldrdeq	r4, [r0], -r9
    4d8c:	0e082302 	cdpeq	3, 0, cr2, cr8, cr2, {0}
    4d90:	0000187e 	andeq	r1, r0, lr, ror r8
    4d94:	4fd9c836 	svcmi	0x00d9c836
    4d98:	23020000 	movwcs	r0, #8192	; 0x2000
    4d9c:	2c800e0c 	stccs	14, cr0, [r0], {12}
    4da0:	c9360000 	ldmdbgt	r6!, {}
    4da4:	00004fd9 	ldrdeq	r4, [r0], -r9
    4da8:	0e102302 	cdpeq	3, 1, cr2, cr0, cr2, {0}
    4dac:	00000f92 	muleq	r0, r2, pc
    4db0:	4fd9ca36 	svcmi	0x00d9ca36
    4db4:	23020000 	movwcs	r0, #8192	; 0x2000
    4db8:	1a300e14 	bne	c03858 <tz_ioctl+0xc0360c>
    4dbc:	cb360000 	blgt	d84dc4 <tz_ioctl+0xd84b78>
    4dc0:	00004fd9 	ldrdeq	r4, [r0], -r9
    4dc4:	0e182302 	cdpeq	3, 1, cr2, cr8, cr2, {0}
    4dc8:	00001979 	andeq	r1, r0, r9, ror r9
    4dcc:	4fd9cc36 	svcmi	0x00d9cc36
    4dd0:	23020000 	movwcs	r0, #8192	; 0x2000
    4dd4:	022a0e1c 	eoreq	r0, sl, #448	; 0x1c0
    4dd8:	cd360000 	ldcgt	0, cr0, [r6]
    4ddc:	00004fd9 	ldrdeq	r4, [r0], -r9
    4de0:	0e202302 	cdpeq	3, 2, cr2, cr0, cr2, {0}
    4de4:	000018d2 	ldrdeq	r1, [r0], -r2
    4de8:	4fd9ce36 	svcmi	0x00d9ce36
    4dec:	23020000 	movwcs	r0, #8192	; 0x2000
    4df0:	04a90e24 	strteq	r0, [r9], #3620	; 0xe24
    4df4:	cf360000 	svcgt	0x00360000
    4df8:	00004fd9 	ldrdeq	r4, [r0], -r9
    4dfc:	0e282302 	cdpeq	3, 2, cr2, cr8, cr2, {0}
    4e00:	000019b8 	undefined instruction 0x000019b8
    4e04:	4fd9d036 	svcmi	0x00d9d036
    4e08:	23020000 	movwcs	r0, #8192	; 0x2000
    4e0c:	08ba0e2c 	ldmeq	sl!, {r2, r3, r5, r9, sl, fp}
    4e10:	d1360000 	teqle	r6, r0
    4e14:	00004fd9 	ldrdeq	r4, [r0], -r9
    4e18:	0e302302 	cdpeq	3, 3, cr2, cr0, cr2, {0}
    4e1c:	00000b4b 	andeq	r0, r0, fp, asr #22
    4e20:	4fd9d236 	svcmi	0x00d9d236
    4e24:	23020000 	movwcs	r0, #8192	; 0x2000
    4e28:	13ce0e34 	bicne	r0, lr, #832	; 0x340
    4e2c:	d3360000 	teqle	r6, #0
    4e30:	00004fd9 	ldrdeq	r4, [r0], -r9
    4e34:	0e382302 	cdpeq	3, 3, cr2, cr8, cr2, {0}
    4e38:	000005a4 	andeq	r0, r0, r4, lsr #11
    4e3c:	4fd9d436 	svcmi	0x00d9d436
    4e40:	23020000 	movwcs	r0, #8192	; 0x2000
    4e44:	1b2d0e3c 	blne	b438f8 <tz_ioctl+0xb436ac>
    4e48:	d5360000 	ldrle	r0, [r6]!
    4e4c:	00004fd9 	ldrdeq	r4, [r0], -r9
    4e50:	00402302 	subeq	r2, r0, r2, lsl #6
    4e54:	0068011a 	rsbeq	r0, r8, sl, lsl r1
    4e58:	4e640000 	cdpmi	0, 6, cr0, cr4, cr0, {0}
    4e5c:	641b0000 	ldrvs	r0, [fp]
    4e60:	0000004e 	andeq	r0, r0, lr, asr #32
    4e64:	4e6a0406 	cdpmi	4, 6, cr0, cr10, cr6, {0}
    4e68:	05100000 	ldreq	r0, [r0]
    4e6c:	c800001f 	stmdagt	r0, {r0, r1, r2, r3, r4}
    4e70:	4fd9a734 	svcmi	0x00d9a734
    4e74:	ae120000 	cdpge	0, 1, cr0, cr2, cr0, {0}
    4e78:	37000028 	strcc	r0, [r0, -r8, lsr #32]
    4e7c:	4e64017c 	mcrmi	1, 3, r0, cr4, cr12, {3}
    4e80:	23020000 	movwcs	r0, #8192	; 0x2000
    4e84:	00702300 	rsbseq	r2, r0, r0, lsl #6
    4e88:	34017e37 	strcc	r7, [r1], #-3639	; 0xe37
    4e8c:	02000056 	andeq	r0, r0, #86	; 0x56
    4e90:	8d120423 	cfldrshi	mvf0, [r2, #-140]	; 0xffffff74
    4e94:	3700000b 	strcc	r0, [r0, -fp]
    4e98:	14500180 	ldrbne	r0, [r0], #-384	; 0x180
    4e9c:	23020000 	movwcs	r0, #8192	; 0x2000
    4ea0:	16271208 	strtne	r1, [r7], -r8, lsl #4
    4ea4:	81370000 	teqhi	r7, r0
    4ea8:	00004301 	andeq	r4, r0, r1, lsl #6
    4eac:	2c230200 	sfmcs	f0, 4, [r3]	; (stccs 2, cr0, [r3])
    4eb0:	00281612 	eoreq	r1, r8, r2, lsl r6
    4eb4:	01823700 	orreq	r3, r2, r0, lsl #14
    4eb8:	0000563a 	andeq	r5, r0, sl, lsr r6
    4ebc:	23302302 	teqcs	r0, #134217728	; 0x8000000
    4ec0:	006d6573 	rsbeq	r6, sp, r3, ror r5
    4ec4:	de018437 	cfmvdhrle	mvd1, r8
    4ec8:	02000027 	andeq	r0, r0, #39	; 0x27
    4ecc:	62233423 	eorvs	r3, r3, #587202560	; 0x23000000
    4ed0:	37007375 	smlsdxcc	r0, r5, r3, r7
    4ed4:	50dc0188 	sbcspl	r0, ip, r8, lsl #3
    4ed8:	23020000 	movwcs	r0, #8192	; 0x2000
    4edc:	0a621250 	beq	1884948 <tz_ioctl+0x18846fc>
    4ee0:	89370000 	ldmdbhi	r7!, {}
    4ee4:	00526001 	subseq	r6, r2, r1
    4ee8:	54230200 	strtpl	r0, [r3], #-512	; 0x200
    4eec:	0009d912 	andeq	sp, r9, r2, lsl r9
    4ef0:	018b3700 	orreq	r3, fp, r0, lsl #14
    4ef4:	00000323 	andeq	r0, r0, r3, lsr #6
    4ef8:	12582302 	subsne	r2, r8, #134217728	; 0x8000000
    4efc:	00002003 	andeq	r2, r0, r3
    4f00:	29018d37 	stmdbcs	r1, {r0, r1, r2, r4, r5, r8, sl, fp, pc}
    4f04:	02000050 	andeq	r0, r0, #80	; 0x50
    4f08:	7c125c23 	ldcvc	12, cr5, [r2], {35}	; 0x23
    4f0c:	3700002d 	strcc	r0, [r0, -sp, lsr #32]
    4f10:	56400192 	undefined instruction 0x56400192
    4f14:	23020000 	movwcs	r0, #8192	; 0x2000
    4f18:	1feb1270 	svcne	0x00eb1270
    4f1c:	93370000 	teqls	r7, #0
    4f20:	00010f01 	andeq	r0, r1, r1, lsl #30
    4f24:	78230200 	stmdavc	r3!, {r9}
    4f28:	000f5b12 	andeq	r5, pc, r2, lsl fp
    4f2c:	01993700 	orrseq	r3, r9, r0, lsl #14
    4f30:	00005646 	andeq	r5, r0, r6, asr #12
    4f34:	01802303 	orreq	r2, r0, r3, lsl #6
    4f38:	00206312 	eoreq	r6, r0, r2, lsl r3
    4f3c:	019b3700 	orrseq	r3, fp, r0, lsl #14
    4f40:	0000029f 	muleq	r0, pc, r2
    4f44:	01842303 	orreq	r2, r4, r3, lsl #6
    4f48:	00219612 	eoreq	r9, r1, r2, lsl r6
    4f4c:	019d3700 	orrseq	r3, sp, r0, lsl #14
    4f50:	00005652 	andeq	r5, r0, r2, asr r6
    4f54:	018c2303 	orreq	r2, ip, r3, lsl #6
    4f58:	0013a012 	andseq	sl, r3, r2, lsl r0
    4f5c:	01a03700 	lsleq	r3, r0, #14
    4f60:	00005088 	andeq	r5, r0, r8, lsl #1
    4f64:	01902303 	orrseq	r2, r0, r3, lsl #6
    4f68:	000ab412 	andeq	fp, sl, r2, lsl r4
    4f6c:	01a23700 	undefined instruction 0x01a23700
    4f70:	00000195 	muleq	r0, r5, r1
    4f74:	01902303 	orrseq	r2, r0, r3, lsl #6
    4f78:	00103312 	andseq	r3, r0, r2, lsl r3
    4f7c:	01a43700 	undefined instruction 0x01a43700
    4f80:	000008b5 	undefined instruction 0x000008b5
    4f84:	01942303 	orrseq	r2, r4, r3, lsl #6
    4f88:	002c0c12 	eoreq	r0, ip, r2, lsl ip
    4f8c:	01a53700 	undefined instruction 0x01a53700
    4f90:	0000029f 	muleq	r0, pc, r2
    4f94:	01a42303 	undefined instruction 0x01a42303
    4f98:	00199a12 	andseq	r9, r9, r2, lsl sl
    4f9c:	01a73700 	undefined instruction 0x01a73700
    4fa0:	00004cfc 	strdeq	r4, [r0], -ip
    4fa4:	01ac2303 	undefined instruction 0x01ac2303
    4fa8:	000cc312 	andeq	ip, ip, r2, lsl r3
    4fac:	01a83700 	undefined instruction 0x01a83700
    4fb0:	00005504 	andeq	r5, r0, r4, lsl #10
    4fb4:	01bc2303 	undefined instruction 0x01bc2303
    4fb8:	0005b312 	andeq	fp, r5, r2, lsl r3
    4fbc:	01a93700 	undefined instruction 0x01a93700
    4fc0:	0000537e 	andeq	r5, r0, lr, ror r3
    4fc4:	01c02303 	biceq	r2, r0, r3, lsl #6
    4fc8:	00251a12 	eoreq	r1, r5, r2, lsl sl
    4fcc:	01ab3700 	undefined instruction 0x01ab3700
    4fd0:	00004feb 	andeq	r4, r0, fp, ror #31
    4fd4:	01c42303 	biceq	r2, r4, r3, lsl #6
    4fd8:	54040600 	strpl	r0, [r4], #-1536	; 0x600
    4fdc:	2100004e 	tstcs	r0, lr, asr #32
    4fe0:	004feb01 	subeq	lr, pc, r1, lsl #22
    4fe4:	4e641b00 	vmulmi.f64	d17, d4, d0
    4fe8:	06000000 	streq	r0, [r0], -r0
    4fec:	004fdf04 	subeq	sp, pc, r4, lsl #30
    4ff0:	12f83100 	rscsne	r3, r8, #0
    4ff4:	36040000 	strcc	r0, [r4], -r0
    4ff8:	5029015f 	eorpl	r0, r9, pc, asr r1
    4ffc:	122b0000 	eorne	r0, fp, #0
    5000:	00000020 	andeq	r0, r0, r0, lsr #32
    5004:	0004302b 	andeq	r3, r4, fp, lsr #32
    5008:	be2b0100 	suflte	f0, f3, f0
    500c:	0200002e 	andeq	r0, r0, #46	; 0x2e
    5010:	0020f82b 	eoreq	pc, r0, fp, lsr #16
    5014:	842b0300 	strthi	r0, [fp], #-768	; 0x300
    5018:	0400000a 	streq	r0, [r0], #-10
    501c:	0027332b 	eoreq	r3, r7, fp, lsr #6
    5020:	c22b0500 	eorgt	r0, fp, #0
    5024:	06000013 	undefined instruction 0x06000013
    5028:	19331100 	ldmdbne	r3!, {r8, ip}
    502c:	36140000 	ldrcc	r0, [r4], -r0
    5030:	5088019a 	umullpl	r0, r8, sl, r1
    5034:	af120000 	svcge	0x00120000
    5038:	36000017 	undefined instruction 0x36000017
    503c:	4d4e019b 	stfmie	f0, [lr, #-620]	; 0xfffffd94
    5040:	23020000 	movwcs	r0, #8192	; 0x2000
    5044:	2ad43200 	bcs	ff50c808 <tz_ioctl+0xff50c5bc>
    5048:	9c360000 	ldcls	0, cr0, [r6]
    504c:	00005501 	andeq	r5, r0, r1, lsl #10
    5050:	1f010400 	svcne	0x00010400
    5054:	32042302 	andcc	r2, r4, #134217728	; 0x8000000
    5058:	00000a93 	muleq	r0, r3, sl
    505c:	55019d36 	strpl	r9, [r1, #-3382]	; 0xd36
    5060:	04000000 	streq	r0, [r0]
    5064:	23021e01 	movwcs	r1, #11777	; 0x2e01
    5068:	1a651204 	bne	1944818 <tz_ioctl+0x19445cc>
    506c:	9e360000 	cdpls	0, 3, cr0, cr6, cr0, {0}
    5070:	004ff101 	subeq	pc, pc, r1, lsl #2
    5074:	08230200 	stmdaeq	r3!, {r9}
    5078:	001fc912 	andseq	ip, pc, r2, lsl r9
    507c:	01a03600 	lsleq	r3, r0, #12
    5080:	0000029f 	muleq	r0, pc, r2
    5084:	000c2302 	andeq	r2, ip, r2, lsl #6
    5088:	00000933 	andeq	r0, r0, r3, lsr r9
    508c:	09390000 	ldmdbeq	r9!, {}
    5090:	00188c10 	andseq	r8, r8, r0, lsl ip
    5094:	26371400 	ldrtcs	r1, [r7], -r0, lsl #8
    5098:	000050c7 	andeq	r5, r0, r7, asr #1
    509c:	0009440e 	andeq	r4, r9, lr, lsl #8
    50a0:	80273700 	eorhi	r3, r7, r0, lsl #14
    50a4:	02000010 	andeq	r0, r0, #16
    50a8:	f40e0023 	vst4.8	{d0-d3}, [lr, :128], r3
    50ac:	37000002 	strcc	r0, [r0, -r2]
    50b0:	0051a228 	subseq	sl, r1, r8, lsr #4
    50b4:	0c230200 	sfmeq	f0, 4, [r3]	; (stceq 2, cr0, [r3])
    50b8:	002b320e 	eoreq	r3, fp, lr, lsl #4
    50bc:	c2293700 	eorgt	r3, r9, #0
    50c0:	02000051 	andeq	r0, r0, #81	; 0x51
    50c4:	1a001023 	bne	9158 <tz_ioctl+0x8f0c>
    50c8:	0001f401 	andeq	pc, r1, r1, lsl #8
    50cc:	0050dc00 	subseq	sp, r0, r0, lsl #24
    50d0:	50dc1b00 	sbcspl	r1, ip, r0, lsl #22
    50d4:	631b0000 	tstvs	fp, #0
    50d8:	00000001 	andeq	r0, r0, r1
    50dc:	50e20406 	rscpl	r0, r2, r6, lsl #8
    50e0:	a7100000 	ldrge	r0, [r0, -r0]
    50e4:	34000008 	strcc	r0, [r0], #-8
    50e8:	51a22337 	undefined instruction 0x51a22337
    50ec:	ed0e0000 	stc	0, cr0, [lr]
    50f0:	37000017 	smladcc	r0, r7, r0, r0
    50f4:	00004334 	andeq	r4, r0, r4, lsr r3
    50f8:	00230200 	eoreq	r0, r3, r0, lsl #4
    50fc:	0029810e 	eoreq	r8, r9, lr, lsl #2
    5100:	c8353700 	ldmdagt	r5!, {r8, r9, sl, ip, sp}
    5104:	02000051 	andeq	r0, r0, #81	; 0x51
    5108:	dc0e0423 	cfstrsle	mvf0, [lr], {35}	; 0x23
    510c:	37000021 	strcc	r0, [r0, -r1, lsr #32]
    5110:	00520836 	subseq	r0, r2, r6, lsr r8
    5114:	08230200 	stmdaeq	r3!, {r9}
    5118:	0014b30e 	andseq	fp, r4, lr, lsl #6
    511c:	45373700 	ldrmi	r3, [r7, #-1792]!	; 0x700
    5120:	02000052 	andeq	r0, r0, #82	; 0x52
    5124:	300e0c23 	andcc	r0, lr, r3, lsr #24
    5128:	3700001f 	smladcc	r0, pc, r0, r0
    512c:	00532739 	subseq	r2, r3, r9, lsr r7
    5130:	10230200 	eorne	r0, r3, r0, lsl #4
    5134:	0027d00e 	eoreq	sp, r7, lr
    5138:	423a3700 	eorsmi	r3, sl, #0
    513c:	02000053 	andeq	r0, r0, #83	; 0x53
    5140:	860e1423 	strhi	r1, [lr], -r3, lsr #8
    5144:	3700000e 	strcc	r0, [r0, -lr]
    5148:	004fd93b 	subeq	sp, pc, fp, lsr r9
    514c:	18230200 	stmdane	r3!, {r9}
    5150:	001ccd0e 	andseq	ip, ip, lr, lsl #26
    5154:	d93c3700 	ldmdble	ip!, {r8, r9, sl, ip, sp}
    5158:	0200004f 	andeq	r0, r0, #79	; 0x4f
    515c:	b60e1c23 	strlt	r1, [lr], -r3, lsr #24
    5160:	3700001e 	smladcc	r0, lr, r0, r0
    5164:	004feb3d 	subeq	lr, pc, sp, lsr fp
    5168:	20230200 	eorcs	r0, r3, r0, lsl #4
    516c:	0023810e 	eoreq	r8, r3, lr, lsl #2
    5170:	5d3f3700 	ldcpl	7, cr3, [pc]
    5174:	02000053 	andeq	r0, r0, #83	; 0x53
    5178:	7e0e2423 	cdpvc	4, 0, cr2, cr14, cr3, {1}
    517c:	37000018 	smladcc	r0, r8, r0, r0
    5180:	004fd940 	subeq	sp, pc, r0, asr #18
    5184:	28230200 	stmdacs	r3!, {r9}
    5188:	006d7014 	rsbeq	r7, sp, r4, lsl r0
    518c:	53634237 	cmnpl	r3, #1879048195	; 0x70000003
    5190:	23020000 	movwcs	r0, #8192	; 0x2000
    5194:	0070142c 	rsbseq	r1, r0, ip, lsr #8
    5198:	53784437 	cmnpl	r8, #922746880	; 0x37000000
    519c:	23020000 	movwcs	r0, #8192	; 0x2000
    51a0:	04060030 	streq	r0, [r6], #-48	; 0x30
    51a4:	000050c7 	andeq	r5, r0, r7, asr #1
    51a8:	01f4011a 	mvnseq	r0, sl, lsl r1
    51ac:	51c20000 	bicpl	r0, r2, r0
    51b0:	dc1b0000 	ldcle	0, cr0, [fp], {0}
    51b4:	1b000050 	blne	52fc <.debug_info+0x52fc>
    51b8:	00000043 	andeq	r0, r0, r3, asr #32
    51bc:	0001e91b 	andeq	lr, r1, fp, lsl r9
    51c0:	04060000 	streq	r0, [r6]
    51c4:	000051a8 	andeq	r5, r0, r8, lsr #3
    51c8:	50900406 	addspl	r0, r0, r6, lsl #8
    51cc:	0c100000 	ldceq	0, cr0, [r0], {0}
    51d0:	1400000b 	strne	r0, [r0], #-11
    51d4:	52083637 	andpl	r3, r8, #57671680	; 0x3700000
    51d8:	44120000 	ldrmi	r0, [r2]
    51dc:	37000009 	strcc	r0, [r0, -r9]
    51e0:	10800137 	addne	r0, r0, r7, lsr r1
    51e4:	23020000 	movwcs	r0, #8192	; 0x2000
    51e8:	02f41200 	rscseq	r1, r4, #0
    51ec:	38370000 	ldmdacc	r7!, {}
    51f0:	0055d701 	subseq	sp, r5, r1, lsl #14
    51f4:	0c230200 	sfmeq	f0, 4, [r3]	; (stceq 2, cr0, [r3])
    51f8:	002b3212 	eoreq	r3, fp, r2, lsl r2
    51fc:	013a3700 	teqeq	sl, r0, lsl #14
    5200:	000055fc 	strdeq	r5, [r0], -ip
    5204:	00102302 	andseq	r2, r0, r2, lsl #6
    5208:	51ce0406 	bicpl	r0, lr, r6, lsl #8
    520c:	94100000 	ldrls	r0, [r0]
    5210:	14000023 	strne	r0, [r0], #-35	; 0x23
    5214:	52453737 	subpl	r3, r5, #14417920	; 0xdc0000
    5218:	440e0000 	strmi	r0, [lr]
    521c:	37000009 	strcc	r0, [r0, -r9]
    5220:	0010809e 	mulseq	r0, lr, r0
    5224:	00230200 	eoreq	r0, r3, r0, lsl #4
    5228:	0002f40e 	andeq	pc, r2, lr, lsl #8
    522c:	b49f3700 	ldrlt	r3, [pc], #1792	; 5234 <.debug_info+0x5234>
    5230:	02000053 	andeq	r0, r0, #83	; 0x53
    5234:	320e0c23 	andcc	r0, lr, #8960	; 0x2300
    5238:	3700002b 	strcc	r0, [r0, -fp, lsr #32]
    523c:	0053d4a0 	subseq	sp, r3, r0, lsr #9
    5240:	10230200 	eorne	r0, r3, r0, lsl #4
    5244:	0e040600 	cfmadd32eq	mvax0, mvfx0, mvfx4, mvfx0
    5248:	1a000052 	bne	5398 <.debug_info+0x5398>
    524c:	00006801 	andeq	r6, r0, r1, lsl #16
    5250:	00526000 	subseq	r6, r2, r0
    5254:	4e641b00 	vmulmi.f64	d17, d4, d0
    5258:	601b0000 	andsvs	r0, fp, r0
    525c:	00000052 	andeq	r0, r0, r2, asr r0
    5260:	52660406 	rsbpl	r0, r6, #100663296	; 0x6000000
    5264:	2d110000 	ldccs	0, cr0, [r1]
    5268:	3400002e 	strcc	r0, [r0], #-46	; 0x2e
    526c:	2702991e 	smladcs	r2, lr, r9, r9
    5270:	0e000053 	mcreq	0, 0, r0, cr0, cr3, {2}
    5274:	000017ed 	andeq	r1, r0, sp, ror #15
    5278:	00437b37 	subeq	r7, r3, r7, lsr fp
    527c:	23020000 	movwcs	r0, #8192	; 0x2000
    5280:	75621400 	strbvc	r1, [r2, #-1024]!	; 0x400
    5284:	7c370073 	ldcvc	0, cr0, [r7], #-460	; 0xfffffe34
    5288:	000050dc 	ldrdeq	r5, [r0], -ip
    528c:	0e042302 	cdpeq	3, 0, cr2, cr4, cr2, {0}
    5290:	00001119 	andeq	r1, r0, r9, lsl r1
    5294:	13f37e37 	mvnsne	r7, #880	; 0x370
    5298:	23020000 	movwcs	r0, #8192	; 0x2000
    529c:	26380e08 	ldrtcs	r0, [r8], -r8, lsl #28
    52a0:	7f370000 	svcvc	0x00370000
    52a4:	00000043 	andeq	r0, r0, r3, asr #32
    52a8:	0e0c2302 	cdpeq	3, 0, cr2, cr12, cr2, {0}
    52ac:	00000f41 	andeq	r0, r0, r1, asr #30
    52b0:	01b68137 	undefined instruction 0x01b68137
    52b4:	23020000 	movwcs	r0, #8192	; 0x2000
    52b8:	0e860e10 	mcreq	14, 4, r0, cr6, cr0, {0}
    52bc:	83370000 	teqhi	r7, #0
    52c0:	00004fd9 	ldrdeq	r4, [r0], -r9
    52c4:	0e142302 	cdpeq	3, 1, cr2, cr4, cr2, {0}
    52c8:	00001ccd 	andeq	r1, r0, sp, asr #25
    52cc:	4fd98437 	svcmi	0x00d98437
    52d0:	23020000 	movwcs	r0, #8192	; 0x2000
    52d4:	1eb60e18 	mrcne	14, 5, r0, cr6, cr8, {0}
    52d8:	85370000 	ldrhi	r0, [r7]!
    52dc:	00004feb 	andeq	r4, r0, fp, ror #31
    52e0:	0e1c2302 	cdpeq	3, 1, cr2, cr12, cr2, {0}
    52e4:	00002381 	andeq	r2, r0, r1, lsl #7
    52e8:	535d8637 	cmppl	sp, #57671680	; 0x3700000
    52ec:	23020000 	movwcs	r0, #8192	; 0x2000
    52f0:	187e0e20 	ldmdane	lr!, {r5, r9, sl, fp}^
    52f4:	87370000 	ldrhi	r0, [r7, -r0]!
    52f8:	00004fd9 	ldrdeq	r4, [r0], -r9
    52fc:	0e242302 	cdpeq	3, 2, cr2, cr4, cr2, {0}
    5300:	000005b3 	undefined instruction 0x000005b3
    5304:	537e8837 	cmnpl	lr, #3604480	; 0x370000
    5308:	23020000 	movwcs	r0, #8192	; 0x2000
    530c:	6d701428 	cfldrdvs	mvd1, [r0, #-160]!	; 0xffffff60
    5310:	638a3700 	orrvs	r3, sl, #0
    5314:	02000053 	andeq	r0, r0, #83	; 0x53
    5318:	70142c23 	andsvc	r2, r4, r3, lsr #24
    531c:	998c3700 	stmibls	ip, {r8, r9, sl, ip, sp}
    5320:	02000053 	andeq	r0, r0, #83	; 0x53
    5324:	06003023 	streq	r3, [r0], -r3, lsr #32
    5328:	00524b04 	subseq	r4, r2, r4, lsl #22
    532c:	68011a00 	stmdavs	r1, {r9, fp, ip}
    5330:	42000000 	andmi	r0, r0, #0
    5334:	1b000053 	blne	5488 <.debug_info+0x5488>
    5338:	00004e64 	andeq	r4, r0, r4, ror #28
    533c:	0017571b 	andseq	r5, r7, fp, lsl r7
    5340:	04060000 	streq	r0, [r6]
    5344:	0000532d 	andeq	r5, r0, sp, lsr #6
    5348:	0068011a 	rsbeq	r0, r8, sl, lsl r1
    534c:	535d0000 	cmppl	sp, #0
    5350:	641b0000 	ldrvs	r0, [fp]
    5354:	1b00004e 	blne	5494 <.debug_info+0x5494>
    5358:	00004d4e 	andeq	r4, r0, lr, asr #26
    535c:	48040600 	stmdami	r4, {r9, sl}
    5360:	06000053 	undefined instruction 0x06000053
    5364:	00536904 	subseq	r6, r3, r4, lsl #18
    5368:	25d52900 	ldrbcs	r2, [r5, #2304]	; 0x900
    536c:	4d590000 	ldclmi	0, cr0, [r9]
    5370:	7d150000 	ldcvc	0, cr0, [r5]
    5374:	0100001e 	tsteq	r0, lr, lsl r0
    5378:	53720406 	cmnpl	r2, #100663296	; 0x6000000
    537c:	04060000 	streq	r0, [r6]
    5380:	00005384 	andeq	r5, r0, r4, lsl #7
    5384:	538a0406 	orrpl	r0, sl, #100663296	; 0x6000000
    5388:	f2290000 	vhadd.s32	d0, d9, d0
    538c:	f900000f 	undefined instruction 0xf900000f
    5390:	15000013 	strne	r0, [r0, #-19]
    5394:	000022d1 	ldrdeq	r2, [r0], -r1
    5398:	93040601 	movwls	r0, #17921	; 0x4601
    539c:	1a000053 	bne	54f0 <.debug_info+0x54f0>
    53a0:	0001f401 	andeq	pc, r1, r1, lsl #8
    53a4:	0053b400 	subseq	fp, r3, r0, lsl #8
    53a8:	52601b00 	rsbpl	r1, r0, #0
    53ac:	631b0000 	tstvs	fp, #0
    53b0:	00000001 	andeq	r0, r0, r1
    53b4:	539f0406 	orrspl	r0, pc, #100663296	; 0x6000000
    53b8:	011a0000 	tsteq	sl, r0
    53bc:	000001f4 	strdeq	r0, [r0], -r4
    53c0:	000053d4 	ldrdeq	r5, [r0], -r4
    53c4:	0052601b 	subseq	r6, r2, fp, lsl r0
    53c8:	00431b00 	subeq	r1, r3, r0, lsl #22
    53cc:	e91b0000 	ldmdb	fp, {}
    53d0:	00000001 	andeq	r0, r0, r1
    53d4:	53ba0406 	undefined instruction 0x53ba0406
    53d8:	c3100000 	tstgt	r0, #0
    53dc:	3400000c 	strcc	r0, [r0], #-12
    53e0:	549a2137 	ldrpl	r2, [sl], #311	; 0x137
    53e4:	ed0e0000 	stc	0, cr0, [lr]
    53e8:	37000017 	smladcc	r0, r7, r0, r0
    53ec:	000043be 	undefined instruction 0x000043be
    53f0:	00230200 	eoreq	r0, r3, r0, lsl #4
    53f4:	0011190e 	andseq	r1, r1, lr, lsl #18
    53f8:	f3bf3700 	vcvt.s<illegal width 64>.f<illegal width 64>	d3, d0
    53fc:	02000013 	andeq	r0, r0, #19
    5400:	5d0e0423 	cfstrspl	mvf0, [lr, #-140]	; 0xffffff74
    5404:	3700002f 	strcc	r0, [r0, -pc, lsr #32]
    5408:	0054d1c1 	subseq	sp, r4, r1, asr #3
    540c:	08230200 	stmdaeq	r3!, {r9}
    5410:	0021dc0e 	eoreq	sp, r1, lr, lsl #24
    5414:	08c23700 	stmiaeq	r2, {r8, r9, sl, ip, sp}^
    5418:	02000052 	andeq	r0, r0, #82	; 0x52
    541c:	090e0c23 	stmdbeq	lr, {r0, r1, r5, sl, fp}
    5420:	37000020 	strcc	r0, [r0, -r0, lsr #32]
    5424:	00144ac3 	andseq	r4, r4, r3, asr #21
    5428:	10230200 	eorne	r0, r3, r0, lsl #4
    542c:	0004250e 	andeq	r2, r4, lr, lsl #10
    5430:	42c53700 	sbcmi	r3, r5, #0
    5434:	02000053 	andeq	r0, r0, #83	; 0x53
    5438:	c40e1423 	strgt	r1, [lr], #-1059	; 0x423
    543c:	3700002c 	strcc	r0, [r0, -ip, lsr #32]
    5440:	0054f2c6 	subseq	pc, r4, r6, asr #5
    5444:	18230200 	stmdane	r3!, {r9}
    5448:	0023d80e 	eoreq	sp, r3, lr, lsl #16
    544c:	0ac83700 	beq	ff213054 <tz_ioctl+0xff212e08>
    5450:	02000055 	andeq	r0, r0, #85	; 0x55
    5454:	530e1c23 	movwpl	r1, #60451	; 0xec23
    5458:	3700000e 	strcc	r0, [r0, -lr]
    545c:	004febc9 	subeq	lr, pc, r9, asr #23
    5460:	20230200 	eorcs	r0, r3, r0, lsl #4
    5464:	0023810e 	eoreq	r8, r3, lr, lsl #2
    5468:	5dcb3700 	stclpl	7, cr3, [fp]
    546c:	02000053 	andeq	r0, r0, #83	; 0x53
    5470:	7e0e2423 	cdpvc	4, 0, cr2, cr14, cr3, {1}
    5474:	37000018 	smladcc	r0, r8, r0, r0
    5478:	004fd9cc 	subeq	sp, pc, ip, asr #19
    547c:	28230200 	stmdacs	r3!, {r9}
    5480:	006d7014 	rsbeq	r7, sp, r4, lsl r0
    5484:	5363ce37 	cmnpl	r3, #880	; 0x370
    5488:	23020000 	movwcs	r0, #8192	; 0x2000
    548c:	0070142c 	rsbseq	r1, r0, ip, lsr #8
    5490:	5516d037 	ldrpl	sp, [r6, #-55]	; 0x37
    5494:	23020000 	movwcs	r0, #8192	; 0x2000
    5498:	30100030 	andscc	r0, r0, r0, lsr r0
    549c:	14000005 	strne	r0, [r0], #-5
    54a0:	54d1c137 	ldrbpl	ip, [r1], #311	; 0x137
    54a4:	440e0000 	strmi	r0, [lr]
    54a8:	37000009 	strcc	r0, [r0, -r9]
    54ac:	001080fd 	ldrsheq	r8, [r0], -sp
    54b0:	00230200 	eoreq	r0, r3, r0, lsl #4
    54b4:	0002f40e 	andeq	pc, r2, lr, lsl #8
    54b8:	97fe3700 	ldrbls	r3, [lr, r0, lsl #14]!
    54bc:	02000055 	andeq	r0, r0, #85	; 0x55
    54c0:	320e0c23 	andcc	r0, lr, #8960	; 0x2300
    54c4:	3700002b 	strcc	r0, [r0, -fp, lsr #32]
    54c8:	0055b7ff 	ldrsheq	fp, [r5], #-127	; 0xffffff81
    54cc:	10230200 	eorne	r0, r3, r0, lsl #4
    54d0:	9a040600 	bls	106cd8 <tz_ioctl+0x106a8c>
    54d4:	1a000054 	bne	562c <.debug_info+0x562c>
    54d8:	00016301 	andeq	r6, r1, r1, lsl #6
    54dc:	0054ec00 	subseq	lr, r4, r0, lsl #24
    54e0:	4e641b00 	vmulmi.f64	d17, d4, d0
    54e4:	ec1b0000 	ldc	0, cr0, [fp], {0}
    54e8:	00000054 	andeq	r0, r0, r4, asr r0
    54ec:	01a00406 	lsleq	r0, r6, #8
    54f0:	04060000 	streq	r0, [r6]
    54f4:	000054d7 	ldrdeq	r5, [r0], -r7
    54f8:	55040121 	strpl	r0, [r4, #-289]	; 0x121
    54fc:	041b0000 	ldreq	r0, [fp]
    5500:	00000055 	andeq	r0, r0, r5, asr r0
    5504:	53da0406 	bicspl	r0, sl, #100663296	; 0x6000000
    5508:	04060000 	streq	r0, [r6]
    550c:	000054f8 	strdeq	r5, [r0], -r8
    5510:	00139215 	andseq	r9, r3, r5, lsl r2
    5514:	04060100 	streq	r0, [r6], #-256	; 0x100
    5518:	00005510 	andeq	r5, r0, r0, lsl r5
    551c:	00245610 	eoreq	r5, r4, r0, lsl r6
    5520:	d5371800 	ldrle	r1, [r7, #-2048]!	; 0x800
    5524:	00005582 	andeq	r5, r0, r2, lsl #11
    5528:	0017ed12 	andseq	lr, r7, r2, lsl sp
    552c:	012c3700 	teqeq	ip, r0, lsl #14
    5530:	00000043 	andeq	r0, r0, r3, asr #32
    5534:	12002302 	andne	r2, r0, #134217728	; 0x8000000
    5538:	000005b3 	undefined instruction 0x000005b3
    553c:	7e012d37 	mcrvc	13, 0, r2, cr1, cr7, {1}
    5540:	02000053 	andeq	r0, r0, #83	; 0x53
    5544:	d0120423 	andsle	r0, r2, r3, lsr #8
    5548:	37000027 	strcc	r0, [r0, -r7, lsr #32]
    554c:	5342012e 	movtpl	r0, #8494	; 0x212e
    5550:	23020000 	movwcs	r0, #8192	; 0x2000
    5554:	2cc41208 	sfmcs	f1, 2, [r4], {8}	; (stclcs 2, cr1, [r4], {8})
    5558:	2f370000 	svccs	0x00370000
    555c:	0054f201 	subseq	pc, r4, r1, lsl #4
    5560:	0c230200 	sfmeq	f0, 4, [r3]	; (stceq 2, cr0, [r3])
    5564:	00251a12 	eoreq	r1, r5, r2, lsl sl
    5568:	01303700 	teqeq	r0, r0, lsl #14
    556c:	00004feb 	andeq	r4, r0, fp, ror #31
    5570:	23102302 	tstcs	r0, #134217728	; 0x8000000
    5574:	37006d70 	smlsdxcc	r0, r0, sp, r6
    5578:	53630132 	cmnpl	r3, #-2147483636	; 0x8000000c
    557c:	23020000 	movwcs	r0, #8192	; 0x2000
    5580:	011a0014 	tsteq	sl, r4, lsl r0
    5584:	000001f4 	strdeq	r0, [r0], -r4
    5588:	00005597 	muleq	r0, r7, r5
    558c:	0055041b 	subseq	r0, r5, fp, lsl r4
    5590:	01631b00 	cmneq	r3, r0, lsl #22
    5594:	06000000 	streq	r0, [r0], -r0
    5598:	00558204 	subseq	r8, r5, r4, lsl #4
    559c:	f4011a00 	vst1.8	{d1-d2}, [r1], r0
    55a0:	b7000001 	strlt	r0, [r0, -r1]
    55a4:	1b000055 	blne	5700 <.debug_info+0x5700>
    55a8:	00005504 	andeq	r5, r0, r4, lsl #10
    55ac:	0000431b 	andeq	r4, r0, fp, lsl r3
    55b0:	01e91b00 	mvneq	r1, r0, lsl #22
    55b4:	06000000 	streq	r0, [r0], -r0
    55b8:	00559d04 	subseq	r9, r5, r4, lsl #26
    55bc:	f4011a00 	vst1.8	{d1-d2}, [r1], r0
    55c0:	d7000001 	strle	r0, [r0, -r1]
    55c4:	1b000055 	blne	5720 <.debug_info+0x5720>
    55c8:	00004e64 	andeq	r4, r0, r4, ror #28
    55cc:	0052081b 	subseq	r0, r2, fp, lsl r8
    55d0:	01631b00 	cmneq	r3, r0, lsl #22
    55d4:	06000000 	streq	r0, [r0], -r0
    55d8:	0055bd04 	subseq	fp, r5, r4, lsl #26
    55dc:	f4011a00 	vst1.8	{d1-d2}, [r1], r0
    55e0:	fc000001 	stc2	0, cr0, [r0], {1}
    55e4:	1b000055 	blne	5740 <.debug_info+0x5740>
    55e8:	00004e64 	andeq	r4, r0, r4, ror #28
    55ec:	0052081b 	subseq	r0, r2, fp, lsl r8
    55f0:	00431b00 	subeq	r1, r3, r0, lsl #22
    55f4:	e91b0000 	ldmdb	fp, {}
    55f8:	00000001 	andeq	r0, r0, r1
    55fc:	55dd0406 	ldrbpl	r0, [sp, #1030]	; 0x406
    5600:	5d110000 	ldcpl	0, cr0, [r1]
    5604:	08000025 	stmdaeq	r0, {r0, r2, r5}
    5608:	2e017237 	mcrcs	2, 0, r7, cr1, cr7, {1}
    560c:	12000056 	andne	r0, r0, #86	; 0x56
    5610:	00001981 	andeq	r1, r0, r1, lsl #19
    5614:	55017737 	strpl	r7, [r1, #-1847]	; 0x737
    5618:	02000000 	andeq	r0, r0, #0
    561c:	68120023 	ldmdavs	r2, {r0, r1, r5}
    5620:	37000013 	smladcc	r0, r3, r0, r0
    5624:	00290178 	eoreq	r0, r9, r8, ror r1
    5628:	23020000 	movwcs	r0, #8192	; 0x2000
    562c:	11150004 	tstne	r5, r4
    5630:	0100001d 	tsteq	r0, sp, lsl r0
    5634:	562e0406 	strtpl	r0, [lr], -r6, lsl #8
    5638:	04060000 	streq	r0, [r6]
    563c:	0000551c 	andeq	r5, r0, ip, lsl r5
    5640:	010f0406 	tsteq	pc, r6, lsl #8
    5644:	04060000 	streq	r0, [r6]
    5648:	00005602 	andeq	r5, r0, r2, lsl #12
    564c:	0011d115 	andseq	sp, r1, r5, lsl r1
    5650:	04060100 	streq	r0, [r6], #-256	; 0x100
    5654:	0000564c 	andeq	r5, r0, ip, asr #12
    5658:	0002852a 	andeq	r8, r2, sl, lsr #10
    565c:	083a0400 	ldmdaeq	sl!, {sl}
    5660:	0000568f 	andeq	r5, r0, pc, lsl #13
    5664:	002a072b 	eoreq	r0, sl, fp, lsr #14
    5668:	b02b0000 	eorlt	r0, fp, r0
    566c:	01000006 	tsteq	r0, r6
    5670:	0017552b 	andseq	r5, r7, fp, lsr #10
    5674:	962b0200 	strtls	r0, [fp], -r0, lsl #4
    5678:	03000001 	movweq	r0, #1
    567c:	00010d2b 	andeq	r0, r1, fp, lsr #26
    5680:	162b0500 	strtne	r0, [fp], -r0, lsl #10
    5684:	06000010 	undefined instruction 0x06000010
    5688:	00259b2b 	eoreq	r9, r5, fp, lsr #22
    568c:	0d000700 	stceq	7, cr0, [r0]
    5690:	d0143a10 	andsle	r3, r4, r0, lsl sl
    5694:	0e000056 	mcreq	0, 0, r0, cr0, cr6, {2}
    5698:	00002683 	andeq	r2, r0, r3, lsl #13
    569c:	022b153a 	eoreq	r1, fp, #243269632	; 0xe800000
    56a0:	23020000 	movwcs	r0, #8192	; 0x2000
    56a4:	264b0e00 	strbcs	r0, [fp], -r0, lsl #28
    56a8:	163a0000 	ldrtne	r0, [sl], -r0
    56ac:	00000220 	andeq	r0, r0, r0, lsr #4
    56b0:	0e042302 	cdpeq	3, 0, cr2, cr4, cr2, {0}
    56b4:	00000d6f 	andeq	r0, r0, pc, ror #26
    56b8:	0220173a 	eoreq	r1, r0, #15204352	; 0xe80000
    56bc:	23020000 	movwcs	r0, #8192	; 0x2000
    56c0:	07600e06 	strbeq	r0, [r0, -r6, lsl #28]!
    56c4:	183a0000 	ldmdane	sl!, {}
    56c8:	000056d0 	ldrdeq	r5, [r0], -r0
    56cc:	00082302 	andeq	r2, r8, r2, lsl #6
    56d0:	00021503 	andeq	r1, r2, r3, lsl #10
    56d4:	0056e000 	subseq	lr, r6, r0
    56d8:	00400400 	subeq	r0, r0, r0, lsl #8
    56dc:	00070000 	andeq	r0, r7, r0
    56e0:	0027830b 	eoreq	r8, r7, fp, lsl #6
    56e4:	8f193a00 	svchi	0x00193a00
    56e8:	0d000056 	stceq	0, cr0, [r0, #-344]	; 0xfffffea8
    56ec:	101e3a08 	andsne	r3, lr, r8, lsl #20
    56f0:	0e000057 	mcreq	0, 0, r0, cr0, cr7, {2}
    56f4:	0000237a 	andeq	r2, r0, sl, ror r3
    56f8:	03231f3a 	teqeq	r3, #232	; 0xe8
    56fc:	23020000 	movwcs	r0, #8192	; 0x2000
    5700:	109d0e00 	addsne	r0, sp, r0, lsl #28
    5704:	203a0000 	eorscs	r0, sl, r0
    5708:	0000022b 	andeq	r0, r0, fp, lsr #4
    570c:	00042302 	andeq	r2, r4, r2, lsl #6
    5710:	233a080d 	teqcs	sl, #851968	; 0xd0000
    5714:	00005731 	andeq	r5, r0, r1, lsr r7
    5718:	3a006114 	bcc	1db70 <tz_ioctl+0x1d924>
    571c:	00022b24 	andeq	r2, r2, r4, lsr #22
    5720:	00230200 	eoreq	r0, r3, r0, lsl #4
    5724:	3a006214 	bcc	1df7c <tz_ioctl+0x1dd30>
    5728:	00022b25 	andeq	r2, r2, r5, lsr #22
    572c:	04230200 	strteq	r0, [r3], #-512	; 0x200
    5730:	3a081600 	bcc	20af38 <tz_ioctl+0x20acec>
    5734:	0057501c 	subseq	r5, r7, ip, lsl r0
    5738:	13541800 	cmpne	r4, #0
    573c:	213a0000 	teqcs	sl, r0
    5740:	000056eb 	andeq	r5, r0, fp, ror #13
    5744:	000f7d18 	andeq	r7, pc, r8, lsl sp
    5748:	10263a00 	eorne	r3, r6, r0, lsl #20
    574c:	00000057 	andeq	r0, r0, r7, asr r0
    5750:	001fcf0b 	andseq	ip, pc, fp, lsl #30
    5754:	31273a00 	teqcc	r7, r0, lsl #20
    5758:	10000057 	andne	r0, r0, r7, asr r0
    575c:	000011f0 	strdeq	r1, [r0], -r0
    5760:	84293a14 	strthi	r3, [r9], #-2580	; 0xa14
    5764:	0e000057 	mcreq	0, 0, r0, cr0, cr7, {2}
    5768:	00000efa 	strdeq	r0, [r0], -sl
    576c:	56e02a3a 	undefined instruction 0x56e02a3a
    5770:	23020000 	movwcs	r0, #8192	; 0x2000
    5774:	1f460e00 	svcne	0x00460e00
    5778:	2b3a0000 	blcs	e85780 <tz_ioctl+0xe85534>
    577c:	0000020a 	andeq	r0, r0, sl, lsl #4
    5780:	00102302 	andseq	r2, r0, r2, lsl #6
    5784:	0002b80b 	andeq	fp, r2, fp, lsl #16
    5788:	5b2c3a00 	blpl	b13f90 <tz_ioctl+0xb13d44>
    578c:	2a000057 	bcs	58f0 <.debug_info+0x58f0>
    5790:	00000568 	andeq	r0, r0, r8, ror #10
    5794:	ba2e3a04 	blt	b93fac <tz_ioctl+0xb93d60>
    5798:	2b000057 	blcs	58fc <.debug_info+0x58fc>
    579c:	00000708 	andeq	r0, r0, r8, lsl #14
    57a0:	80808080 	addhi	r8, r0, r0, lsl #1
    57a4:	0ece2b08 	vdiveq.f64	d18, d14, d8
    57a8:	80810000 	addhi	r0, r1, r0
    57ac:	2b088080 	blcs	2259b4 <tz_ioctl+0x225768>
    57b0:	00000ad9 	ldrdeq	r0, [r0], -r9
    57b4:	80808082 	addhi	r8, r0, r2, lsl #1
    57b8:	15100008 	ldrne	r0, [r0, #-8]
    57bc:	44000008 	strmi	r0, [r0], #-8
    57c0:	581b3a3a 	ldmdapl	fp, {r1, r3, r4, r5, r9, fp, ip, sp}
    57c4:	c40e0000 	strgt	r0, [lr]
    57c8:	3a000014 	bcc	5820 <.debug_info+0x5820>
    57cc:	00581b3c 	subseq	r1, r8, ip, lsr fp
    57d0:	00230200 	eoreq	r0, r3, r0, lsl #4
    57d4:	0021c20e 	eoreq	ip, r1, lr, lsl #4
    57d8:	2b3e3a00 	blcs	f93fe0 <tz_ioctl+0xf93d94>
    57dc:	02000002 	andeq	r0, r0, #2
    57e0:	eb0e2023 	bl	388094 <tz_ioctl+0x387e48>
    57e4:	3a000024 	bcc	587c <.debug_info+0x587c>
    57e8:	00578f45 	subseq	r8, r7, r5, asr #30
    57ec:	24230200 	strtcs	r0, [r3], #-512	; 0x200
    57f0:	00057b0e 	andeq	r7, r5, lr, lsl #22
    57f4:	84493a00 	strbhi	r3, [r9], #-2560	; 0xa00
    57f8:	02000057 	andeq	r0, r0, #87	; 0x57
    57fc:	ae0e2823 	cdpge	8, 0, cr2, cr14, cr3, {1}
    5800:	3a000007 	bcc	5824 <.debug_info+0x5824>
    5804:	00020a4b 	andeq	r0, r2, fp, asr #20
    5808:	3c230200 	sfmcc	f0, 4, [r3]	; (stccc 2, cr0, [r3])
    580c:	0015eb0e 	andseq	lr, r5, lr, lsl #22
    5810:	0a4d3a00 	beq	1354018 <tz_ioctl+0x1353dcc>
    5814:	02000002 	andeq	r0, r0, #2
    5818:	03004023 	movweq	r4, #35	; 0x23
    581c:	00005750 	andeq	r5, r0, r0, asr r7
    5820:	0000582b 	andeq	r5, r0, fp, lsr #16
    5824:	00004004 	andeq	r4, r0, r4
    5828:	0b000300 	bleq	6430 <.debug_info+0x6430>
    582c:	0000268b 	andeq	r2, r0, fp, lsl #13
    5830:	57ba503a 	undefined instruction 0x57ba503a
    5834:	280d0000 	stmdacs	sp, {}
    5838:	58695f3a 	stmdapl	r9!, {r1, r3, r4, r5, r8, r9, sl, fp, ip, lr}^
    583c:	4b0e0000 	blmi	380008 <tz_ioctl+0x37fdbc>
    5840:	3a00000e 	bcc	5880 <.debug_info+0x5880>
    5844:	00005560 	andeq	r5, r0, r0, ror #10
    5848:	00230200 	eoreq	r0, r3, r0, lsl #4
    584c:	0021c20e 	eoreq	ip, r1, lr, lsl #4
    5850:	55613a00 	strbpl	r3, [r1, #-2560]!	; 0xa00
    5854:	02000000 	andeq	r0, r0, #0
    5858:	c40e0423 	strgt	r0, [lr], #-1059	; 0x423
    585c:	3a000014 	bcc	58b4 <.debug_info+0x58b4>
    5860:	00581b62 	subseq	r1, r8, r2, ror #22
    5864:	08230200 	stmdaeq	r3!, {r9}
    5868:	146e0b00 	strbtne	r0, [lr], #-2816	; 0xb00
    586c:	653a0000 	ldrvs	r0, [sl]!
    5870:	00005836 	andeq	r5, r0, r6, lsr r8
    5874:	000dda10 	andeq	sp, sp, r0, lsl sl
    5878:	673a0c00 	ldrvs	r0, [sl, -r0, lsl #24]!
    587c:	000058ab 	andeq	r5, r0, fp, lsr #17
    5880:	0006080e 	andeq	r0, r6, lr, lsl #16
    5884:	ab683a00 	blge	1a1408c <tz_ioctl+0x1a13e40>
    5888:	02000058 	andeq	r0, r0, #88	; 0x58
    588c:	7b0e0023 	blvc	380094 <tz_ioctl+0x37fe48>
    5890:	3a000005 	bcc	58ac <.debug_info+0x58ac>
    5894:	0058b169 	subseq	fp, r8, r9, ror #2
    5898:	04230200 	strteq	r0, [r3], #-512	; 0x200
    589c:	0015eb0e 	andseq	lr, r5, lr, lsl #22
    58a0:	e86a3a00 	stmda	sl!, {r9, fp, ip, sp}^
    58a4:	02000018 	andeq	r0, r0, #24
    58a8:	06000823 	streq	r0, [r0], -r3, lsr #16
    58ac:	00586904 	subseq	r6, r8, r4, lsl #18
    58b0:	84040600 	strhi	r0, [r4], #-1536	; 0x600
    58b4:	0b000057 	bleq	5a18 <.debug_info+0x5a18>
    58b8:	00002faa 	andeq	r2, r0, sl, lsr #31
    58bc:	58746b3a 	ldmdapl	r4!, {r1, r3, r4, r5, r8, r9, fp, sp, lr}^
    58c0:	140d0000 	strne	r0, [sp]
    58c4:	58e71c01 	stmiapl	r7!, {r0, sl, fp, ip}^
    58c8:	e00e0000 	and	r0, lr, r0
    58cc:	01000008 	tsteq	r0, r8
    58d0:	0056e020 	subseq	lr, r6, r0, lsr #32
    58d4:	00230200 	eoreq	r0, r3, r0, lsl #4
    58d8:	0016110e 	andseq	r1, r6, lr, lsl #2
    58dc:	68220100 	stmdavs	r2!, {r8}
    58e0:	02000000 	andeq	r0, r0, #0
    58e4:	0b001023 	bleq	9978 <tz_ioctl+0x972c>
    58e8:	0000089b 	muleq	r0, fp, r8
    58ec:	58c22301 	stmiapl	r2, {r0, r8, r9, sp}^
    58f0:	ff340000 	undefined instruction 0xff340000
    58f4:	06000006 	streq	r0, [r0], -r6
    58f8:	00680167 	rsbeq	r0, r8, r7, ror #2
    58fc:	19030000 	stmdbne	r3, {}
    5900:	35000059 	strcc	r0, [r0, #-89]	; 0x59
    5904:	0600726e 	streq	r7, [r0], -lr, ror #4
    5908:	00006867 	andeq	r6, r0, r7, ror #16
    590c:	129b3600 	addsne	r3, fp, #0
    5910:	67060000 	strvs	r0, [r6, -r0]
    5914:	00005919 	andeq	r5, r0, r9, lsl r9
    5918:	1f040600 	svcne	0x00040600
    591c:	07000059 	smlsdeq	r0, r9, r0, r0
    5920:	00005924 	andeq	r5, r0, r4, lsr #18
    5924:	0000290f 	andeq	r2, r0, pc, lsl #18
    5928:	05f43400 	ldrbeq	r3, [r4, #1024]!	; 0x400
    592c:	5e040000 	cdppl	0, 0, cr0, cr4, cr0, {0}
    5930:	000eac01 	andeq	sl, lr, r1, lsl #24
    5934:	59450300 	stmdbpl	r5, {r8, r9}^
    5938:	73370000 	teqvc	r7, #0
    593c:	60040070 	andvs	r0, r4, r0, ror r0
    5940:	00000029 	andeq	r0, r0, r9, lsr #32
    5944:	23bb3400 	undefined instruction 0x23bb3400
    5948:	94020000 	strls	r0, [r2]
    594c:	00006801 	andeq	r6, r0, r1, lsl #16
    5950:	59620300 	stmdbpl	r2!, {r8, r9}^
    5954:	9d360000 	ldcls	0, cr0, [r6]
    5958:	02000010 	andeq	r0, r0, #16
    595c:	0001e994 	muleq	r1, r4, r9
    5960:	ee340000 	cdp	0, 3, cr0, cr4, cr0, {0}
    5964:	3b000001 	blcc	5970 <.debug_info+0x5970>
    5968:	01300120 	teqeq	r0, r0, lsr #2
    596c:	7f030000 	svcvc	0x00030000
    5970:	35000059 	strcc	r0, [r0, #-89]	; 0x59
    5974:	00727470 	rsbseq	r7, r2, r0, ror r4
    5978:	4ab2203b 	bmi	fec8da6c <tz_ioctl+0xfec8d820>
    597c:	34000000 	strcc	r0, [r0]
    5980:	00001337 	andeq	r1, r0, r7, lsr r3
    5984:	6801550e 	stmdavs	r1, {r1, r2, r3, r8, sl, ip, lr}
    5988:	03000000 	movweq	r0, #0
    598c:	000059b2 	undefined instruction 0x000059b2
    5990:	00697435 	rsbeq	r7, r9, r5, lsr r4
    5994:	0eac550e 	cdpeq	5, 10, cr5, cr12, cr14, {0}
    5998:	79360000 	ldmdbvc	r6!, {}
    599c:	0e000018 	mcreq	0, 0, r0, cr0, cr8, {0}
    59a0:	00006855 	andeq	r6, r0, r5, asr r8
    59a4:	0d393800 	ldceq	8, cr3, [r9]
    59a8:	39000059 	stmdbcc	r0, {r0, r3, r4, r6}
    59ac:	00005903 	andeq	r5, r0, r3, lsl #18
    59b0:	333a0000 	teqcc	sl, #0
    59b4:	05000011 	streq	r0, [r0, #-17]
    59b8:	d60301c9 	strle	r0, [r3], -r9, asr #3
    59bc:	3b000059 	blcc	5b28 <.debug_info+0x5b28>
    59c0:	000059cc 	andeq	r5, r0, ip, asr #19
    59c4:	593a3c38 	ldmdbpl	sl!, {r3, r4, r5, sl, fp, ip, sp}
    59c8:	00000000 	andeq	r0, r0, r0
    59cc:	3a3c3838 	bcc	f13ab4 <tz_ioctl+0xf13868>
    59d0:	00000059 	andeq	r0, r0, r9, asr r0
    59d4:	c53a0000 	ldrgt	r0, [sl]!
    59d8:	05000005 	streq	r0, [r0, #-5]
    59dc:	160301dc 	undefined instruction 0x160301dc
    59e0:	3b00005a 	blcc	5b50 <.debug_info+0x5b50>
    59e4:	000059ff 	strdeq	r5, [r0], -pc
    59e8:	00599a39 	subseq	r9, r9, r9, lsr sl
    59ec:	59903900 	ldmibpl	r0, {r8, fp, ip, sp}
    59f0:	39380000 	ldmdbcc	r8!, {}
    59f4:	0000590d 	andeq	r5, r0, sp, lsl #18
    59f8:	00590339 	subseq	r0, r9, r9, lsr r3
    59fc:	3b000000 	blcc	5a04 <.debug_info+0x5a04>
    5a00:	00005a0c 	andeq	r5, r0, ip, lsl #20
    5a04:	593a3c38 	ldmdbpl	sl!, {r3, r4, r5, sl, fp, ip, sp}
    5a08:	00000000 	andeq	r0, r0, r0
    5a0c:	3a3c3838 	bcc	f13af4 <tz_ioctl+0xf138a8>
    5a10:	00000059 	andeq	r0, r0, r9, asr r0
    5a14:	a8340000 	ldmdage	r4!, {}
    5a18:	3c00000b 	stccc	0, cr0, [r0], {11}
    5a1c:	00680109 	rsbeq	r0, r8, r9, lsl #2
    5a20:	3e030000 	cdpcc	0, 0, cr0, cr3, cr0, {0}
    5a24:	3600005a 	undefined instruction 0x3600005a
    5a28:	0000109d 	muleq	r0, sp, r0
    5a2c:	0029093c 	eoreq	r0, r9, ip, lsr r9
    5a30:	703d0000 	eorsvc	r0, sp, r0
    5a34:	3c000007 	stccc	0, cr0, [r0], {7}
    5a38:	0000680b 	andeq	r6, r0, fp, lsl #16
    5a3c:	eb3a0000 	bl	e80008 <tz_ioctl+0xe7fdbc>
    5a40:	3d000021 	stccc	0, cr0, [r0, #-132]	; 0xffffff7c
    5a44:	7803013f 	stmdavc	r3, {r0, r1, r2, r3, r4, r5, r8}
    5a48:	3500005a 	strcc	r0, [r0, #-90]	; 0x5a
    5a4c:	00727470 	rsbseq	r7, r2, r0, ror r4
    5a50:	4ab23f3d 	bmi	fec9574c <tz_ioctl+0xfec95500>
    5a54:	9d360000 	ldcls	0, cr0, [r6]
    5a58:	3d000010 	stccc	0, cr0, [r0, #-64]	; 0xffffffc0
    5a5c:	0001e93f 	andeq	lr, r1, pc, lsr r9
    5a60:	11c73600 	bicne	r3, r7, r0, lsl #12
    5a64:	3f3d0000 	svccc	0x003d0000
    5a68:	00000068 	andeq	r0, r0, r8, rrx
    5a6c:	70666735 	rsbvc	r6, r6, r5, lsr r7
    5a70:	4c403d00 	mcrrmi	13, 0, r3, r0, cr0
    5a74:	00000002 	andeq	r0, r0, r2
    5a78:	002b023a 	eoreq	r0, fp, sl, lsr r2
    5a7c:	014f0300 	cmpeq	pc, r0, lsl #6
    5a80:	005b1e03 	subseq	r1, fp, r3, lsl #28
    5a84:	29383600 	ldmdbcs	r8!, {r9, sl, ip, sp}
    5a88:	2f030000 	svccs	0x00030000
    5a8c:	00000029 	andeq	r0, r0, r9, lsr #32
    5a90:	72747035 	rsbsvc	r7, r4, #53	; 0x35
    5a94:	b22f0300 	eorlt	r0, pc, #0
    5a98:	3600004a 	strcc	r0, [r0], -sl, asr #32
    5a9c:	0000172c 	andeq	r1, r0, ip, lsr #14
    5aa0:	01e92f03 	mvneq	r2, r3, lsl #30
    5aa4:	5d360000 	ldcpl	0, cr0, [r6]
    5aa8:	0300001d 	movweq	r0, #29
    5aac:	0001e92f 	andeq	lr, r1, pc, lsr #18
    5ab0:	21ff3600 	mvnscs	r3, r0, lsl #12
    5ab4:	2f030000 	svccs	0x00030000
    5ab8:	0000024c 	andeq	r0, r0, ip, asr #4
    5abc:	140d3d38 	strne	r3, [sp], #-3384	; 0xd38
    5ac0:	2f030000 	svccs	0x00030000
    5ac4:	00001982 	andeq	r1, r0, r2, lsl #19
    5ac8:	005b003b 	subseq	r0, fp, fp, lsr r0
    5acc:	5ae93b00 	bpl	ffa546d4 <tz_ioctl+0xffa54488>
    5ad0:	9a390000 	bls	e45ad8 <tz_ioctl+0xe4588c>
    5ad4:	39000059 	stmdbcc	r0, {r0, r3, r4, r6}
    5ad8:	00005990 	muleq	r0, r0, r9
    5adc:	590d3938 	stmdbpl	sp, {r3, r4, r5, r8, fp, ip, sp}
    5ae0:	03390000 	teqeq	r9, #0
    5ae4:	00000059 	andeq	r0, r0, r9, asr r0
    5ae8:	5af63b00 	bpl	ffd946f0 <tz_ioctl+0xffd944a4>
    5aec:	3c380000 	ldccc	0, cr0, [r8]
    5af0:	0000593a 	andeq	r5, r0, sl, lsr r9
    5af4:	38380000 	ldmdacc	r8!, {}
    5af8:	00593a3c 	subseq	r3, r9, ip, lsr sl
    5afc:	00000000 	andeq	r0, r0, r0
    5b00:	005b0f3b 	subseq	r0, fp, fp, lsr pc
    5b04:	3c383800 	ldccc	8, cr3, [r8]
    5b08:	0000593a 	andeq	r5, r0, sl, lsr r9
    5b0c:	38000000 	stmdacc	r0, {}
    5b10:	0030243d 	eorseq	r2, r0, sp, lsr r4
    5b14:	822f0300 	eorhi	r0, pc, #0
    5b18:	00000019 	andeq	r0, r0, r9, lsl r0
    5b1c:	08340000 	ldmdaeq	r4!, {}
    5b20:	02000013 	andeq	r0, r0, #19
    5b24:	032301e6 	teqeq	r3, #-2147483591	; 0x80000039
    5b28:	eb030000 	bl	c5b30 <tz_ioctl+0xc58e4>
    5b2c:	3600005b 	undefined instruction 0x3600005b
    5b30:	0000109d 	muleq	r0, sp, r0
    5b34:	01e9e602 	mvneq	lr, r2, lsl #12
    5b38:	43360000 	teqmi	r6, #0
    5b3c:	02000030 	andeq	r0, r0, #48	; 0x30
    5b40:	00024ce6 	andeq	r4, r2, r6, ror #25
    5b44:	07703d00 	ldrbeq	r3, [r0, -r0, lsl #26]!
    5b48:	e8020000 	stmda	r2, {}
    5b4c:	00000055 	andeq	r0, r0, r5, asr r0
    5b50:	74657237 	strbtvc	r7, [r5], #-567	; 0x237
    5b54:	23e90200 	mvncs	r0, #0
    5b58:	3b000003 	blcc	5b6c <.debug_info+0x5b6c>
    5b5c:	00005bcf 	andeq	r5, r0, pc, asr #23
    5b60:	005ab139 	subseq	fp, sl, r9, lsr r1
    5b64:	5aa63900 	bpl	fe993f6c <tz_ioctl+0xfe993d20>
    5b68:	9b390000 	blls	e45b70 <tz_ioctl+0xe45924>
    5b6c:	3900005a 	stmdbcc	r0, {r1, r3, r4, r6}
    5b70:	00005a90 	muleq	r0, r0, sl
    5b74:	005a8539 	subseq	r8, sl, r9, lsr r5
    5b78:	bd3c3800 	ldclt	8, cr3, [ip]
    5b7c:	3b00005a 	blcc	5cec <.debug_info+0x5cec>
    5b80:	00005bb7 	undefined instruction 0x00005bb7
    5b84:	005ba03b 	subseq	sl, fp, fp, lsr r0
    5b88:	599a3900 	ldmibpl	sl, {r8, fp, ip, sp}
    5b8c:	90390000 	eorsls	r0, r9, r0
    5b90:	38000059 	stmdacc	r0, {r0, r3, r4, r6}
    5b94:	00590d39 	subseq	r0, r9, r9, lsr sp
    5b98:	59033900 	stmdbpl	r3, {r8, fp, ip, sp}
    5b9c:	00000000 	andeq	r0, r0, r0
    5ba0:	005bad3b 	subseq	sl, fp, fp, lsr sp
    5ba4:	3a3c3800 	bcc	f13bac <tz_ioctl+0xf13960>
    5ba8:	00000059 	andeq	r0, r0, r9, asr r0
    5bac:	3c383800 	ldccc	8, cr3, [r8]
    5bb0:	0000593a 	andeq	r5, r0, sl, lsr r9
    5bb4:	3b000000 	blcc	5bbc <.debug_info+0x5bbc>
    5bb8:	00005bc6 	andeq	r5, r0, r6, asr #23
    5bbc:	3a3c3838 	bcc	f13ca4 <tz_ioctl+0xf13a58>
    5bc0:	00000059 	andeq	r0, r0, r9, asr r0
    5bc4:	3c380000 	ldccc	0, cr0, [r8]
    5bc8:	00005b10 	andeq	r5, r0, r0, lsl fp
    5bcc:	3b000000 	blcc	5bd4 <.debug_info+0x5bd4>
    5bd0:	00005be1 	andeq	r5, r0, r1, ror #23
    5bd4:	005a2739 	subseq	r2, sl, r9, lsr r7
    5bd8:	323c3800 	eorscc	r3, ip, #0
    5bdc:	0000005a 	andeq	r0, r0, sl, asr r0
    5be0:	853e3800 	ldrhi	r3, [lr, #-2048]!	; 0x800
    5be4:	02000018 	andeq	r0, r0, #24
    5be8:	340000ec 	strcc	r0, [r0], #-236	; 0xec
    5bec:	00001081 	andeq	r1, r0, r1, lsl #1
    5bf0:	1a01c802 	bne	77c00 <tz_ioctl+0x779b4>
    5bf4:	0300005c 	movweq	r0, #92	; 0x5c
    5bf8:	00005c1a 	andeq	r5, r0, sl, lsl ip
    5bfc:	00109d36 	andseq	r9, r0, r6, lsr sp
    5c00:	e9c80200 	stmib	r8, {r9}^
    5c04:	3d000001 	stccc	0, cr0, [r0, #-4]
    5c08:	000007e6 	andeq	r0, r0, r6, ror #15
    5c0c:	0068ca02 	rsbeq	ip, r8, r2, lsl #20
    5c10:	39380000 	ldmdbcc	r8!, {}
    5c14:	00005956 	andeq	r5, r0, r6, asr r9
    5c18:	04060000 	streq	r0, [r6]
    5c1c:	00001a5b 	andeq	r1, r0, fp, asr sl
    5c20:	00257334 	eoreq	r7, r5, r4, lsr r3
    5c24:	01e00200 	mvneq	r0, r0, lsl #4
    5c28:	00000323 	andeq	r0, r0, r3, lsr #6
    5c2c:	005c4603 	subseq	r4, ip, r3, lsl #12
    5c30:	00733500 	rsbseq	r3, r3, r0, lsl #10
    5c34:	5c1ae002 	ldcpl	0, cr14, [sl], {2}
    5c38:	ae360000 	cdpge	0, 3, cr0, cr6, cr0, {0}
    5c3c:	02000027 	andeq	r0, r0, #39	; 0x27
    5c40:	00024ce0 	andeq	r4, r2, r0, ror #25
    5c44:	b6340000 	ldrtlt	r0, [r4], -r0
    5c48:	0200002e 	andeq	r0, r0, #46	; 0x2e
    5c4c:	032301f1 	teqeq	r3, #1073741884	; 0x4000003c
    5c50:	d4030000 	strle	r0, [r3]
    5c54:	3600005d 	undefined instruction 0x3600005d
    5c58:	0000109d 	muleq	r0, sp, r0
    5c5c:	01e9f102 	mvneq	pc, r2, lsl #2
    5c60:	43360000 	teqmi	r6, #0
    5c64:	02000030 	andeq	r0, r0, #48	; 0x30
    5c68:	00024cf1 	strdeq	r4, [r2], -r1
    5c6c:	65723700 	ldrbvs	r3, [r2, #-1792]!	; 0x700
    5c70:	f3020074 	vqadd.u8	q0, q1, q10
    5c74:	00000323 	andeq	r0, r0, r3, lsr #6
    5c78:	005d213b 	subseq	r2, sp, fp, lsr r1
    5c7c:	5b3a3900 	blpl	e94084 <tz_ioctl+0xe93e38>
    5c80:	2f390000 	svccs	0x00390000
    5c84:	3800005b 	stmdacc	r0, {r0, r1, r3, r4, r6}
    5c88:	005b453c 	subseq	r4, fp, ip, lsr r5
    5c8c:	5b503c00 	blpl	1414c94 <tz_ioctl+0x1414a48>
    5c90:	063b0000 	ldrteq	r0, [fp], -r0
    5c94:	3900005d 	stmdbcc	r0, {r0, r2, r3, r4, r6}
    5c98:	00005ab1 	undefined instruction 0x00005ab1
    5c9c:	005aa639 	subseq	sl, sl, r9, lsr r6
    5ca0:	5a903900 	bpl	fe4140a8 <tz_ioctl+0xfe413e5c>
    5ca4:	85390000 	ldrhi	r0, [r9]!
    5ca8:	3900005a 	stmdbcc	r0, {r1, r3, r4, r6}
    5cac:	00005a9b 	muleq	r0, fp, sl
    5cb0:	5abd3c38 	bpl	fef54d98 <tz_ioctl+0xfef54b4c>
    5cb4:	ee3b0000 	cdp	0, 3, cr0, cr11, cr0, {0}
    5cb8:	3b00005c 	blcc	5e30 <.debug_info+0x5e30>
    5cbc:	00005cd7 	ldrdeq	r5, [r0], -r7
    5cc0:	00599a39 	subseq	r9, r9, r9, lsr sl
    5cc4:	59903900 	ldmibpl	r0, {r8, fp, ip, sp}
    5cc8:	39380000 	ldmdbcc	r8!, {}
    5ccc:	0000590d 	andeq	r5, r0, sp, lsl #18
    5cd0:	00590339 	subseq	r0, r9, r9, lsr r3
    5cd4:	3b000000 	blcc	5cdc <.debug_info+0x5cdc>
    5cd8:	00005ce4 	andeq	r5, r0, r4, ror #25
    5cdc:	593a3c38 	ldmdbpl	sl!, {r3, r4, r5, sl, fp, ip, sp}
    5ce0:	00000000 	andeq	r0, r0, r0
    5ce4:	3a3c3838 	bcc	f13dcc <tz_ioctl+0xf13b80>
    5ce8:	00000059 	andeq	r0, r0, r9, asr r0
    5cec:	fd3b0000 	ldc2	0, cr0, [fp]
    5cf0:	3800005c 	stmdacc	r0, {r2, r3, r4, r6}
    5cf4:	593a3c38 	ldmdbpl	sl!, {r3, r4, r5, sl, fp, ip, sp}
    5cf8:	00000000 	andeq	r0, r0, r0
    5cfc:	103c3800 	eorsne	r3, ip, r0, lsl #16
    5d00:	0000005b 	andeq	r0, r0, fp, asr r0
    5d04:	183b0000 	ldmdane	fp!, {}
    5d08:	3900005d 	stmdbcc	r0, {r0, r2, r3, r4, r6}
    5d0c:	00005a27 	andeq	r5, r0, r7, lsr #20
    5d10:	5a323c38 	bpl	c94df8 <tz_ioctl+0xc94bac>
    5d14:	00000000 	andeq	r0, r0, r0
    5d18:	5be23f38 	blpl	ff895a00 <tz_ioctl+0xff8957b4>
    5d1c:	00000000 	andeq	r0, r0, r0
    5d20:	73373800 	teqvc	r7, #0
    5d24:	1afa0200 	bne	ffe8652c <tz_ioctl+0xffe862e0>
    5d28:	3b00005c 	blcc	5ea0 <.debug_info+0x5ea0>
    5d2c:	00005d9f 	muleq	r0, pc, sp
    5d30:	005ab139 	subseq	fp, sl, r9, lsr r1
    5d34:	5aa63900 	bpl	fe99413c <tz_ioctl+0xfe993ef0>
    5d38:	9b390000 	blls	e45d40 <tz_ioctl+0xe45af4>
    5d3c:	3900005a 	stmdbcc	r0, {r1, r3, r4, r6}
    5d40:	00005a90 	muleq	r0, r0, sl
    5d44:	005a8539 	subseq	r8, sl, r9, lsr r5
    5d48:	bd3c3800 	ldclt	8, cr3, [ip]
    5d4c:	3b00005a 	blcc	5ebc <.debug_info+0x5ebc>
    5d50:	00005d87 	andeq	r5, r0, r7, lsl #27
    5d54:	005d703b 	subseq	r7, sp, fp, lsr r0
    5d58:	599a3900 	ldmibpl	sl, {r8, fp, ip, sp}
    5d5c:	90390000 	eorsls	r0, r9, r0
    5d60:	38000059 	stmdacc	r0, {r0, r3, r4, r6}
    5d64:	00590d39 	subseq	r0, r9, r9, lsr sp
    5d68:	59033900 	stmdbpl	r3, {r8, fp, ip, sp}
    5d6c:	00000000 	andeq	r0, r0, r0
    5d70:	005d7d3b 	subseq	r7, sp, fp, lsr sp
    5d74:	3a3c3800 	bcc	f13d7c <tz_ioctl+0xf13b30>
    5d78:	00000059 	andeq	r0, r0, r9, asr r0
    5d7c:	3c383800 	ldccc	8, cr3, [r8]
    5d80:	0000593a 	andeq	r5, r0, sl, lsr r9
    5d84:	3b000000 	blcc	5d8c <.debug_info+0x5d8c>
    5d88:	00005d96 	muleq	r0, r6, sp
    5d8c:	3a3c3838 	bcc	f13e74 <tz_ioctl+0xf13c28>
    5d90:	00000059 	andeq	r0, r0, r9, asr r0
    5d94:	3c380000 	ldccc	0, cr0, [r8]
    5d98:	00005b10 	andeq	r5, r0, r0, lsl fp
    5d9c:	3b000000 	blcc	5da4 <.debug_info+0x5da4>
    5da0:	00005daf 	andeq	r5, r0, pc, lsr #27
    5da4:	005c3a39 	subseq	r3, ip, r9, lsr sl
    5da8:	5c313900 	ldcpl	9, cr3, [r1]
    5dac:	3b000000 	blcc	5db4 <.debug_info+0x5db4>
    5db0:	00005dc8 	andeq	r5, r0, r8, asr #27
    5db4:	005bfc39 	subseq	pc, fp, r9, lsr ip
    5db8:	073c3800 	ldreq	r3, [ip, -r0, lsl #16]!
    5dbc:	3800005c 	stmdacc	r0, {r2, r3, r4, r6}
    5dc0:	00595639 	subseq	r5, r9, r9, lsr r6
    5dc4:	00000000 	andeq	r0, r0, r0
    5dc8:	18854038 	stmne	r5, {r3, r4, r5, lr}
    5dcc:	01020000 	tsteq	r2, r0
    5dd0:	00000001 	andeq	r0, r0, r1
    5dd4:	002a4b41 	eoreq	r4, sl, r1, asr #22
    5dd8:	01940700 	orrseq	r0, r4, r0, lsl #14
    5ddc:	00002901 	andeq	r2, r0, r1, lsl #18
    5de0:	5e490300 	cdppl	3, 4, cr0, cr9, cr0, {0}
    5de4:	74420000 	strbvc	r0, [r2]
    5de8:	9407006f 	strls	r0, [r7], #-111	; 0x6f
    5dec:	00032301 	andeq	r2, r3, r1, lsl #6
    5df0:	10024300 	andne	r4, r2, r0, lsl #6
    5df4:	94070000 	strls	r0, [r7]
    5df8:	004ab201 	subeq	fp, sl, r1, lsl #4
    5dfc:	006e4200 	rsbeq	r4, lr, r0, lsl #4
    5e00:	29019407 	stmdbcs	r1, {r0, r1, r2, sl, ip, pc}
    5e04:	3b000000 	blcc	5e0c <.debug_info+0x5e0c>
    5e08:	00005e2e 	andeq	r5, r0, lr, lsr #28
    5e0c:	00187944 	andseq	r7, r8, r4, asr #18
    5e10:	01960700 	orrseq	r0, r6, r0, lsl #14
    5e14:	00000029 	andeq	r0, r0, r9, lsr #32
    5e18:	0022b244 	eoreq	fp, r2, r4, asr #4
    5e1c:	01960700 	orrseq	r0, r6, r0, lsl #14
    5e20:	00000029 	andeq	r0, r0, r9, lsr #32
    5e24:	3a3c3838 	bcc	f13f0c <tz_ioctl+0xf13cc0>
    5e28:	00000059 	andeq	r0, r0, r9, asr r0
    5e2c:	45380000 	ldrmi	r0, [r8]!
    5e30:	00705f5f 	rsbseq	r5, r0, pc, asr pc
    5e34:	23019907 	movwcs	r9, #6407	; 0x1907
    5e38:	45000003 	strmi	r0, [r0, #-3]
    5e3c:	006e5f5f 	rsbeq	r5, lr, pc, asr pc
    5e40:	e9019907 	stmdb	r1, {r0, r1, r2, r8, fp, ip, pc}
    5e44:	00000001 	andeq	r0, r0, r1
    5e48:	19264100 	stmdbne	r6!, {r8, lr}
    5e4c:	9d070000 	stcls	0, cr0, [r7]
    5e50:	00290101 	eoreq	r0, r9, r1, lsl #2
    5e54:	a0030000 	andge	r0, r3, r0
    5e58:	4200005e 	andmi	r0, r0, #94	; 0x5e
    5e5c:	07006f74 	smlsdxeq	r0, r4, pc, r6
    5e60:	0323019d 	teqeq	r3, #1073741863	; 0x40000027
    5e64:	02430000 	subeq	r0, r3, #0
    5e68:	07000010 	smladeq	r0, r0, r0, r0
    5e6c:	4ab2019d 	bmi	fec864e8 <tz_ioctl+0xfec8629c>
    5e70:	6e420000 	cdpvs	0, 4, cr0, cr2, cr0, {0}
    5e74:	019d0700 	orrseq	r0, sp, r0, lsl #14
    5e78:	00000029 	andeq	r0, r0, r9, lsr #32
    5e7c:	18794438 	ldmdane	r9!, {r3, r4, r5, sl, lr}^
    5e80:	9f070000 	svcls	0x00070000
    5e84:	00002901 	andeq	r2, r0, r1, lsl #18
    5e88:	22b24400 	adcscs	r4, r2, #0
    5e8c:	9f070000 	svcls	0x00070000
    5e90:	00002901 	andeq	r2, r0, r1, lsl #18
    5e94:	3c383800 	ldccc	8, cr3, [r8]
    5e98:	0000593a 	andeq	r5, r0, sl, lsr r9
    5e9c:	00000000 	andeq	r0, r0, r0
    5ea0:	00183446 	andseq	r3, r8, r6, asr #8
    5ea4:	01450100 	cmpeq	r5, r0, lsl #2
    5ea8:	00000001 	andeq	r0, r0, r1
    5eac:	00008000 	andeq	r8, r0, r0
    5eb0:	00000000 	andeq	r0, r0, r0
    5eb4:	1f914700 	svcne	0x00914700
    5eb8:	2b010000 	blcs	45ec0 <tz_ioctl+0x45c74>
    5ebc:	00000001 	andeq	r0, r0, r1
    5ec0:	0000f000 	andeq	pc, r0, r0
    5ec4:	00002a00 	andeq	r2, r0, r0, lsl #20
    5ec8:	005eec00 	subseq	lr, lr, r0, lsl #24
    5ecc:	08e04800 	stmiaeq	r0!, {fp, lr}^
    5ed0:	2b010000 	blcs	45ed8 <tz_ioctl+0x45c8c>
    5ed4:	00005eec 	andeq	r5, r0, ip, ror #29
    5ed8:	00000054 	andeq	r0, r0, r4, asr r0
    5edc:	72747349 	rsbsvc	r7, r4, #603979777	; 0x24000001
    5ee0:	f22d0100 	vrhadd.s32	d0, d13, d0
    5ee4:	0300005e 	movweq	r0, #94	; 0x5e
    5ee8:	007fa091 	ldrbteq	sl, [pc, #-1]	; 5eef <.debug_info+0x5eef>
    5eec:	009f0406 	addseq	r0, pc, r6, lsl #8
    5ef0:	4e030000 	cdpmi	0, 0, cr0, cr3, cr0, {0}
    5ef4:	02000000 	andeq	r0, r0, #0
    5ef8:	0400005f 	streq	r0, [r0], #-95	; 0x5f
    5efc:	00000040 	andeq	r0, r0, r0, asr #32
    5f00:	714a002f 	cmpvc	sl, pc, lsr #32
    5f04:	0100001d 	tsteq	r0, sp, lsl r0
    5f08:	006801c6 	rsbeq	r0, r8, r6, asr #3
    5f0c:	00f00000 	rscseq	r0, r0, r0
    5f10:	01440000 	cmpeq	r4, r0
    5f14:	00720000 	rsbseq	r0, r2, r0
    5f18:	5f3d0000 	svcpl	0x003d0000
    5f1c:	07480000 	strbeq	r0, [r8, -r0]
    5f20:	0100000a 	tsteq	r0, sl
    5f24:	002222c6 	eoreq	r2, r2, r6, asr #5
    5f28:	00009c00 	andeq	r9, r0, r0, lsl #24
    5f2c:	13844800 	orrne	r4, r4, #0
    5f30:	c6010000 	strgt	r0, [r1], -r0
    5f34:	00002a29 	andeq	r2, r0, r9, lsr #20
    5f38:	000000af 	andeq	r0, r0, pc, lsr #1
    5f3c:	164a4b00 	strbne	r4, [sl], -r0, lsl #22
    5f40:	10010000 	andne	r0, r1, r0
    5f44:	00680101 	rsbeq	r0, r8, r1, lsl #2
    5f48:	00000000 	andeq	r0, r0, r0
    5f4c:	015c0000 	cmpeq	ip, r0
    5f50:	00cd0000 	sbceq	r0, sp, r0
    5f54:	5fb30000 	svcpl	0x00b30000
    5f58:	724c0000 	subvc	r0, ip, #0
    5f5c:	01007465 	tsteq	r0, r5, ror #8
    5f60:	00680112 	rsbeq	r0, r8, r2, lsl r1
    5f64:	00f70000 	rscseq	r0, r7, r0
    5f68:	b7400000 	strblt	r0, [r0, -r0]
    5f6c:	0100000b 	tsteq	r0, fp
    5f70:	c64d0141 	strbgt	r0, [sp], -r1, asr #2
    5f74:	0100000b 	tsteq	r0, fp
    5f78:	010c013f 	tsteq	ip, pc, lsr r1
    5f7c:	874d0000 	strbhi	r0, [sp, -r0]
    5f80:	01000003 	tsteq	r0, r3
    5f84:	0100013d 	tsteq	r0, sp, lsr r1
    5f88:	d54d0000 	strble	r0, [sp]
    5f8c:	0100000b 	tsteq	r0, fp
    5f90:	00dc013b 	sbcseq	r0, ip, fp, lsr r1
    5f94:	484e0000 	stmdami	lr, {}^
    5f98:	58000000 	stmdapl	r0, {}
    5f9c:	4f000000 	svcmi	0x00000000
    5fa0:	00001670 	andeq	r1, r0, r0, ror r6
    5fa4:	6b011c01 	blvs	4cfb0 <tz_ioctl+0x4cd64>
    5fa8:	05000008 	streq	r0, [r0, #-8]
    5fac:	00004403 	andeq	r4, r0, r3, lsl #8
    5fb0:	4a000000 	bmi	5fb8 <.debug_info+0x5fb8>
    5fb4:	0000173b 	andeq	r1, r0, fp, lsr r7
    5fb8:	6801d401 	stmdavs	r1, {r0, sl, ip, lr, pc}
    5fbc:	44000000 	strmi	r0, [r0]
    5fc0:	4c000001 	stcmi	0, cr0, [r0], {1}
    5fc4:	20000002 	andcs	r0, r0, r2
    5fc8:	72000001 	andvc	r0, r0, #1
    5fcc:	48000061 	stmdami	r0, {r0, r5, r6}
    5fd0:	00000a07 	andeq	r0, r0, r7, lsl #20
    5fd4:	2222d401 	eorcs	sp, r2, #16777216	; 0x1000000
    5fd8:	014a0000 	cmpeq	sl, r0
    5fdc:	84480000 	strbhi	r0, [r8]
    5fe0:	01000013 	tsteq	r0, r3, lsl r0
    5fe4:	002a29d4 	ldrdeq	r2, [sl], -r4
    5fe8:	00015d00 	andeq	r5, r1, r0, lsl #26
    5fec:	111f3d00 	tstne	pc, r0, lsl #26
    5ff0:	d7010000 	strle	r0, [r1, -r0]
    5ff4:	00006172 	andeq	r6, r0, r2, ror r1
    5ff8:	005c4650 	subseq	r4, ip, r0, asr r6
    5ffc:	00015c00 	andeq	r5, r1, r0, lsl #24
    6000:	00000000 	andeq	r0, r0, r0
    6004:	51db0100 	bicspl	r0, fp, r0, lsl #2
    6008:	39000061 	stmdbcc	r0, {r0, r5, r6}
    600c:	00005c62 	andeq	r5, r0, r2, ror #24
    6010:	005c5739 	subseq	r5, ip, r9, lsr r7
    6014:	00185100 	andseq	r5, r8, r0, lsl #2
    6018:	6d520000 	ldclvs	0, cr0, [r2]
    601c:	0100005c 	qaddeq	r0, ip, r0
    6020:	00305154 	eorseq	r5, r0, r4, asr r1
    6024:	223c0000 	eorscs	r0, ip, #0
    6028:	5000005d 	andpl	r0, r0, sp, asr r0
    602c:	00005c20 	andeq	r5, r0, r0, lsr #24
    6030:	0000015c 	andeq	r0, r0, ip, asr r1
    6034:	00000048 	andeq	r0, r0, r8, asr #32
    6038:	6049ff02 	subvs	pc, r9, r2, lsl #30
    603c:	3a390000 	bcc	e46044 <tz_ioctl+0xe45df8>
    6040:	3900005c 	stmdbcc	r0, {r2, r3, r4, r6}
    6044:	00005c31 	andeq	r5, r0, r1, lsr ip
    6048:	5a785300 	bpl	1e1ac50 <tz_ioctl+0x1e1aa04>
    604c:	016c0000 	cmneq	ip, r0
    6050:	00680000 	rsbeq	r0, r8, r0
    6054:	01020000 	tsteq	r2, r0
    6058:	00613b01 	rsbeq	r3, r1, r1, lsl #22
    605c:	5ab13900 	bpl	fec54464 <tz_ioctl+0xfec54218>
    6060:	a6390000 	ldrtge	r0, [r9], -r0
    6064:	3900005a 	stmdbcc	r0, {r1, r3, r4, r6}
    6068:	00005a9b 	muleq	r0, fp, sl
    606c:	005a9039 	subseq	r9, sl, r9, lsr r0
    6070:	5a853900 	bpl	fe154478 <tz_ioctl+0xfe15422c>
    6074:	8c4e0000 	marhi	acc0, r0, lr
    6078:	04000001 	streq	r0, [r0], #-1
    607c:	54000002 	strpl	r0, [r0], #-2
    6080:	00005abd 	undefined instruction 0x00005abd
    6084:	0000017b 	andeq	r0, r0, fp, ror r1
    6088:	0059b255 	subseq	fp, r9, r5, asr r2
    608c:	00018c00 	andeq	r8, r1, r0, lsl #24
    6090:	0001a400 	andeq	sl, r1, r0, lsl #8
    6094:	bd2f0300 	stclt	3, cr0, [pc]
    6098:	56000060 	strpl	r0, [r0], -r0, rrx
    609c:	00005929 	andeq	r5, r0, r9, lsr #18
    60a0:	0000018c 	andeq	r0, r0, ip, lsl #3
    60a4:	00000198 	muleq	r0, r8, r1
    60a8:	8c4ecb05 	mcrrhi	11, 0, ip, lr, cr5
    60ac:	98000001 	stmdals	r0, {r0}
    60b0:	52000001 	andpl	r0, r0, #1
    60b4:	0000593a 	andeq	r5, r0, sl, lsr r9
    60b8:	00005d01 	andeq	r5, r0, r1, lsl #26
    60bc:	01a45700 	undefined instruction 0x01a45700
    60c0:	01a80000 	undefined instruction 0x01a80000
    60c4:	60d00000 	sbcsvs	r0, r0, r0
    60c8:	103c0000 	eorsne	r0, ip, r0
    60cc:	0000005b 	andeq	r0, r0, fp, asr r0
    60d0:	0059d656 	subseq	sp, r9, r6, asr r6
    60d4:	0001dc00 	andeq	sp, r1, r0, lsl #24
    60d8:	00020400 	andeq	r0, r2, r0, lsl #8
    60dc:	552f0300 	strpl	r0, [pc, #-768]!	; 5de4 <.debug_info+0x5de4>
    60e0:	00005929 	andeq	r5, r0, r9, lsr #18
    60e4:	000001dc 	ldrdeq	r0, [r0], -ip
    60e8:	000001e8 	andeq	r0, r0, r8, ror #3
    60ec:	6104df05 	tstvs	r4, r5, lsl #30
    60f0:	dc4e0000 	marle	acc0, r0, lr
    60f4:	e8000001 	stmda	r0, {r0}
    60f8:	52000001 	andpl	r0, r0, #1
    60fc:	0000593a 	andeq	r5, r0, sl, lsr r9
    6100:	00005d01 	andeq	r5, r0, r1, lsl #26
    6104:	00597f56 	subseq	r7, r9, r6, asr pc
    6108:	0001f400 	andeq	pc, r1, r0, lsl #8
    610c:	0001f800 	andeq	pc, r1, r0, lsl #16
    6110:	39df0500 	ldmibcc	pc, {r8, sl}^
    6114:	0000599a 	muleq	r0, sl, r9
    6118:	00599039 	subseq	r9, r9, r9, lsr r0
    611c:	58f25600 	ldmpl	r2!, {r9, sl, ip, lr}^
    6120:	01f40000 	mvnseq	r0, r0
    6124:	01f80000 	mvnseq	r0, r0
    6128:	570e0000 	strpl	r0, [lr, -r0]
    612c:	00590339 	subseq	r0, r9, r9, lsr r3
    6130:	590d3900 	stmdbpl	sp, {r8, fp, ip, sp}
    6134:	00000000 	andeq	r0, r0, r0
    6138:	4e000000 	cdpmi	0, 0, cr0, cr0, cr0, {0}
    613c:	00000174 	andeq	r0, r0, r4, ror r1
    6140:	00000178 	andeq	r0, r0, r8, ror r1
    6144:	005dc958 	subseq	ip, sp, r8, asr r9
    6148:	00014400 	andeq	r4, r1, r0, lsl #8
    614c:	00000000 	andeq	r0, r0, r0
    6150:	02044e00 	andeq	r4, r4, #0
    6154:	02100000 	andseq	r0, r0, #0
    6158:	5f370000 	svcpl	0x00370000
    615c:	0100705f 	qaddeq	r7, pc, r0
    6160:	000323dc 	ldrdeq	r2, [r3], -ip
    6164:	5f5f3700 	svcpl	0x005f3700
    6168:	dc01006e 	stcle	0, cr0, [r1], {110}	; 0x6e
    616c:	000001e9 	andeq	r0, r0, r9, ror #3
    6170:	04060000 	streq	r0, [r6]
    6174:	000058e7 	andeq	r5, r0, r7, ror #17
    6178:	001e0c34 	andseq	r0, lr, r4, lsr ip
    617c:	014f0100 	cmpeq	pc, r0, lsl #2
    6180:	00000068 	andeq	r0, r0, r8, rrx
    6184:	00657701 	rsbeq	r7, r5, r1, lsl #14
    6188:	111f3600 	tstne	pc, r0, lsl #12
    618c:	4f010000 	svcmi	0x00010000
    6190:	00006172 	andeq	r6, r0, r2, ror r1
    6194:	00174336 	andseq	r4, r7, r6, lsr r3
    6198:	774f0100 	strbvc	r0, [pc, -r0, lsl #2]
    619c:	37000065 	strcc	r0, [r0, -r5, rrx]
    61a0:	00746572 	rsbseq	r6, r4, r2, ror r5
    61a4:	00685101 	rsbeq	r5, r8, r1, lsl #2
    61a8:	df3d0000 	svcle	0x003d0000
    61ac:	0100002a 	tsteq	r0, sl, lsr #32
    61b0:	00657d53 	rsbeq	r7, r5, r3, asr sp
    61b4:	06993d00 	ldreq	r3, [r9], r0, lsl #26
    61b8:	56010000 	strpl	r0, [r1], -r0
    61bc:	000058b7 	undefined instruction 0x000058b7
    61c0:	0018b63d 	andseq	fp, r8, sp, lsr r6
    61c4:	69570100 	ldmdbvs	r7, {r8}^
    61c8:	3d000058 	stccc	0, cr0, [r0, #-352]	; 0xfffffea0
    61cc:	000026a4 	andeq	r2, r0, r4, lsr #13
    61d0:	65835801 	strvs	r5, [r3, #2049]	; 0x801
    61d4:	483e0000 	ldmdami	lr!, {}
    61d8:	01000003 	tsteq	r0, r3
    61dc:	03563ec0 	cmpeq	r6, #3072	; 0xc00
    61e0:	be010000 	cdplt	0, 0, cr0, cr1, cr0, {0}
    61e4:	0003643e 	andeq	r6, r3, lr, lsr r4
    61e8:	3bbc0100 	blcc	fef065f0 <tz_ioctl+0xfef063a4>
    61ec:	00006215 	andeq	r6, r0, r5, lsl r2
    61f0:	005e7239 	subseq	r7, lr, r9, lsr r2
    61f4:	5e663900 	cdppl	9, 6, cr3, cr6, cr0, {0}
    61f8:	5b390000 	blpl	e46200 <tz_ioctl+0xe45fb4>
    61fc:	3800005e 	stmdacc	r0, {r1, r2, r3, r4, r6}
    6200:	005e7d3c 	subseq	r7, lr, ip, lsr sp
    6204:	5e893c00 	cdppl	12, 8, cr3, cr9, cr0, {0}
    6208:	38380000 	ldmdacc	r8!, {}
    620c:	00593a3c 	subseq	r3, r9, ip, lsr sl
    6210:	00000000 	andeq	r0, r0, r0
    6214:	623f3b00 	eorsvs	r3, pc, #0
    6218:	72390000 	eorsvc	r0, r9, #0
    621c:	3900005e 	stmdbcc	r0, {r1, r2, r3, r4, r6}
    6220:	00005e66 	andeq	r5, r0, r6, ror #28
    6224:	005e5b39 	subseq	r5, lr, r9, lsr fp
    6228:	7d3c3800 	ldcvc	8, cr3, [ip]
    622c:	3c00005e 	stccc	0, cr0, [r0], {94}	; 0x5e
    6230:	00005e89 	andeq	r5, r0, r9, lsl #29
    6234:	3a3c3838 	bcc	f1431c <tz_ioctl+0xf140d0>
    6238:	00000059 	andeq	r0, r0, r9, asr r0
    623c:	3b000000 	blcc	6244 <.debug_info+0x6244>
    6240:	00006279 	andeq	r6, r0, r9, ror r2
    6244:	005dfd39 	subseq	pc, sp, r9, lsr sp
    6248:	5df13900 	ldclpl	9, cr3, [r1]
    624c:	e6390000 	ldrt	r0, [r9], -r0
    6250:	3b00005d 	blcc	63cc <.debug_info+0x63cc>
    6254:	0000626c 	andeq	r6, r0, ip, ror #4
    6258:	005e0c3c 	subseq	r0, lr, ip, lsr ip
    625c:	5e183c00 	cdppl	12, 1, cr3, cr8, cr0, {0}
    6260:	38380000 	ldmdacc	r8!, {}
    6264:	00593a3c 	subseq	r3, r9, ip, lsr sl
    6268:	00000000 	andeq	r0, r0, r0
    626c:	5e2f3c38 	mcrpl	12, 1, r3, cr15, cr8, {1}
    6270:	3b3c0000 	blcc	f06278 <tz_ioctl+0xf0602c>
    6274:	0000005e 	andeq	r0, r0, lr, asr r0
    6278:	63e43b00 	mvnvs	r3, #0
    627c:	62390000 	eorsvs	r0, r9, #0
    6280:	3900005c 	stmdbcc	r0, {r2, r3, r4, r6}
    6284:	00005c57 	andeq	r5, r0, r7, asr ip
    6288:	5c6d3c38 	stclpl	12, cr3, [sp], #-224	; 0xffffff20
    628c:	373b0000 	ldrcc	r0, [fp, -r0]!
    6290:	39000063 	stmdbcc	r0, {r0, r1, r5, r6}
    6294:	00005b3a 	andeq	r5, r0, sl, lsr fp
    6298:	005b2f39 	subseq	r2, fp, r9, lsr pc
    629c:	453c3800 	ldrmi	r3, [ip, #-2048]!	; 0x800
    62a0:	3c00005b 	stccc	0, cr0, [r0], {91}	; 0x5b
    62a4:	00005b50 	andeq	r5, r0, r0, asr fp
    62a8:	00631c3b 	rsbeq	r1, r3, fp, lsr ip
    62ac:	5a903900 	bpl	fe4146b4 <tz_ioctl+0xfe414468>
    62b0:	85390000 	ldrhi	r0, [r9]!
    62b4:	3900005a 	stmdbcc	r0, {r1, r3, r4, r6}
    62b8:	00005a9b 	muleq	r0, fp, sl
    62bc:	005ab139 	subseq	fp, sl, r9, lsr r1
    62c0:	5aa63900 	bpl	fe9946c8 <tz_ioctl+0xfe99447c>
    62c4:	3c380000 	ldccc	0, cr0, [r8]
    62c8:	00005abd 	undefined instruction 0x00005abd
    62cc:	0063043b 	rsbeq	r0, r3, fp, lsr r4
    62d0:	62ed3b00 	rscvs	r3, sp, #0
    62d4:	9a390000 	bls	e462dc <tz_ioctl+0xe46090>
    62d8:	39000059 	stmdbcc	r0, {r0, r3, r4, r6}
    62dc:	00005990 	muleq	r0, r0, r9
    62e0:	590d3938 	stmdbpl	sp, {r3, r4, r5, r8, fp, ip, sp}
    62e4:	03390000 	teqeq	r9, #0
    62e8:	00000059 	andeq	r0, r0, r9, asr r0
    62ec:	62fa3b00 	rscsvs	r3, sl, #0
    62f0:	3c380000 	ldccc	0, cr0, [r8]
    62f4:	0000593a 	andeq	r5, r0, sl, lsr r9
    62f8:	38380000 	ldmdacc	r8!, {}
    62fc:	00593a3c 	subseq	r3, r9, ip, lsr sl
    6300:	00000000 	andeq	r0, r0, r0
    6304:	0063133b 	rsbeq	r1, r3, fp, lsr r3
    6308:	3c383800 	ldccc	8, cr3, [r8]
    630c:	0000593a 	andeq	r5, r0, sl, lsr r9
    6310:	38000000 	stmdacc	r0, {}
    6314:	005b103c 	subseq	r1, fp, ip, lsr r0
    6318:	00000000 	andeq	r0, r0, r0
    631c:	00632e3b 	rsbeq	r2, r3, fp, lsr lr
    6320:	5a273900 	bpl	9d4728 <tz_ioctl+0x9d44dc>
    6324:	3c380000 	ldccc	0, cr0, [r8]
    6328:	00005a32 	andeq	r5, r0, r2, lsr sl
    632c:	3f380000 	svccc	0x00380000
    6330:	00005be2 	andeq	r5, r0, r2, ror #23
    6334:	38000000 	stmdacc	r0, {}
    6338:	005d223c 	subseq	r2, sp, ip, lsr r2
    633c:	63b13b00 	undefined instruction 0x63b13b00
    6340:	b1390000 	teqlt	r9, r0
    6344:	3900005a 	stmdbcc	r0, {r1, r3, r4, r6}
    6348:	00005aa6 	andeq	r5, r0, r6, lsr #21
    634c:	005a9b39 	subseq	r9, sl, r9, lsr fp
    6350:	5a903900 	bpl	fe414758 <tz_ioctl+0xfe41450c>
    6354:	85390000 	ldrhi	r0, [r9]!
    6358:	3800005a 	stmdacc	r0, {r1, r3, r4, r6}
    635c:	005abd3c 	subseq	fp, sl, ip, lsr sp
    6360:	63993b00 	orrsvs	r3, r9, #0
    6364:	823b0000 	eorshi	r0, fp, #0
    6368:	39000063 	stmdbcc	r0, {r0, r1, r5, r6}
    636c:	0000599a 	muleq	r0, sl, r9
    6370:	00599039 	subseq	r9, r9, r9, lsr r0
    6374:	03393800 	teqeq	r9, #0
    6378:	39000059 	stmdbcc	r0, {r0, r3, r4, r6}
    637c:	0000590d 	andeq	r5, r0, sp, lsl #18
    6380:	8f3b0000 	svchi	0x003b0000
    6384:	38000063 	stmdacc	r0, {r0, r1, r5, r6}
    6388:	00593a3c 	subseq	r3, r9, ip, lsr sl
    638c:	38000000 	stmdacc	r0, {}
    6390:	593a3c38 	ldmdbpl	sl!, {r3, r4, r5, sl, fp, ip, sp}
    6394:	00000000 	andeq	r0, r0, r0
    6398:	63a83b00 	undefined instruction 0x63a83b00
    639c:	38380000 	ldmdacc	r8!, {}
    63a0:	00593a3c 	subseq	r3, r9, ip, lsr sl
    63a4:	00000000 	andeq	r0, r0, r0
    63a8:	5b103c38 	blpl	415490 <tz_ioctl+0x415244>
    63ac:	00000000 	andeq	r0, r0, r0
    63b0:	63c13b00 	bicvs	r3, r1, #0
    63b4:	3a390000 	bcc	e463bc <tz_ioctl+0xe46170>
    63b8:	3900005c 	stmdbcc	r0, {r2, r3, r4, r6}
    63bc:	00005c31 	andeq	r5, r0, r1, lsr ip
    63c0:	63da3b00 	bicsvs	r3, sl, #0
    63c4:	fc390000 	ldc2	0, cr0, [r9]
    63c8:	3800005b 	stmdacc	r0, {r0, r1, r3, r4, r6}
    63cc:	005c073c 	subseq	r0, ip, ip, lsr r7
    63d0:	56393800 	ldrtpl	r3, [r9], -r0, lsl #16
    63d4:	00000059 	andeq	r0, r0, r9, asr r0
    63d8:	3f380000 	svccc	0x00380000
    63dc:	00005dc9 	andeq	r5, r0, r9, asr #27
    63e0:	00000000 	andeq	r0, r0, r0
    63e4:	00641e3b 	rsbeq	r1, r4, fp, lsr lr
    63e8:	5dfd3900 	ldclpl	9, cr3, [sp]
    63ec:	f1390000 	undefined instruction 0xf1390000
    63f0:	3900005d 	stmdbcc	r0, {r0, r2, r3, r4, r6}
    63f4:	00005de6 	andeq	r5, r0, r6, ror #27
    63f8:	0064113b 	rsbeq	r1, r4, fp, lsr r1
    63fc:	5e0c3c00 	cdppl	12, 0, cr3, cr12, cr0, {0}
    6400:	183c0000 	ldmdane	ip!, {}
    6404:	3800005e 	stmdacc	r0, {r1, r2, r3, r4, r6}
    6408:	593a3c38 	ldmdbpl	sl!, {r3, r4, r5, sl, fp, ip, sp}
    640c:	00000000 	andeq	r0, r0, r0
    6410:	2f3c3800 	svccs	0x003c3800
    6414:	3c00005e 	stccc	0, cr0, [r0], {94}	; 0x5e
    6418:	00005e3b 	andeq	r5, r0, fp, lsr lr
    641c:	ea3b0000 	b	ec6424 <tz_ioctl+0xec61d8>
    6420:	39000064 	stmdbcc	r0, {r2, r5, r6}
    6424:	00005c62 	andeq	r5, r0, r2, ror #24
    6428:	005c5739 	subseq	r5, ip, r9, lsr r7
    642c:	6d3c3800 	ldcvs	8, cr3, [ip]
    6430:	3b00005c 	blcc	65a8 <.debug_info+0x65a8>
    6434:	00006456 	andeq	r6, r0, r6, asr r4
    6438:	005b3a39 	subseq	r3, fp, r9, lsr sl
    643c:	5b2f3900 	blpl	bd4844 <tz_ioctl+0xbd45f8>
    6440:	3c380000 	ldccc	0, cr0, [r8]
    6444:	00005b45 	andeq	r5, r0, r5, asr #22
    6448:	005b503c 	subseq	r5, fp, ip, lsr r0
    644c:	e23f3800 	eors	r3, pc, #0
    6450:	0000005b 	andeq	r0, r0, fp, asr r0
    6454:	3c380000 	ldccc	0, cr0, [r8]
    6458:	00005d22 	andeq	r5, r0, r2, lsr #26
    645c:	0064d03b 	rsbeq	sp, r4, fp, lsr r0
    6460:	5ab13900 	bpl	fec54868 <tz_ioctl+0xfec5461c>
    6464:	a6390000 	ldrtge	r0, [r9], -r0
    6468:	3900005a 	stmdbcc	r0, {r1, r3, r4, r6}
    646c:	00005a9b 	muleq	r0, fp, sl
    6470:	005a9039 	subseq	r9, sl, r9, lsr r0
    6474:	5a853900 	bpl	fe15487c <tz_ioctl+0xfe154630>
    6478:	3c380000 	ldccc	0, cr0, [r8]
    647c:	00005abd 	undefined instruction 0x00005abd
    6480:	0064b83b 	rsbeq	fp, r4, fp, lsr r8
    6484:	64a13b00 	strtvs	r3, [r1], #2816	; 0xb00
    6488:	9a390000 	bls	e46490 <tz_ioctl+0xe46244>
    648c:	39000059 	stmdbcc	r0, {r0, r3, r4, r6}
    6490:	00005990 	muleq	r0, r0, r9
    6494:	59033938 	stmdbpl	r3, {r3, r4, r5, r8, fp, ip, sp}
    6498:	0d390000 	ldceq	0, cr0, [r9]
    649c:	00000059 	andeq	r0, r0, r9, asr r0
    64a0:	64ae3b00 	strtvs	r3, [lr], #2816	; 0xb00
    64a4:	3c380000 	ldccc	0, cr0, [r8]
    64a8:	0000593a 	andeq	r5, r0, sl, lsr r9
    64ac:	38380000 	ldmdacc	r8!, {}
    64b0:	00593a3c 	subseq	r3, r9, ip, lsr sl
    64b4:	00000000 	andeq	r0, r0, r0
    64b8:	0064c73b 	rsbeq	ip, r4, fp, lsr r7
    64bc:	3c383800 	ldccc	8, cr3, [r8]
    64c0:	0000593a 	andeq	r5, r0, sl, lsr r9
    64c4:	38000000 	stmdacc	r0, {}
    64c8:	005b103c 	subseq	r1, fp, ip, lsr r0
    64cc:	00000000 	andeq	r0, r0, r0
    64d0:	0064e03b 	rsbeq	lr, r4, fp, lsr r0
    64d4:	5c3a3900 	ldcpl	9, cr3, [sl]
    64d8:	31390000 	teqcc	r9, r0
    64dc:	0000005c 	andeq	r0, r0, ip, asr r0
    64e0:	5dc93f38 	stclpl	15, cr3, [r9, #224]	; 0xe0
    64e4:	00000000 	andeq	r0, r0, r0
    64e8:	243b0000 	ldrtcs	r0, [fp]
    64ec:	39000065 	stmdbcc	r0, {r0, r2, r5, r6}
    64f0:	00005dfd 	strdeq	r5, [r0], -sp
    64f4:	005df139 	subseq	pc, sp, r9, lsr r1
    64f8:	5de63900 	stclpl	9, cr3, [r6]
    64fc:	173b0000 	ldrne	r0, [fp, -r0]!
    6500:	3c000065 	stccc	0, cr0, [r0], {101}	; 0x65
    6504:	00005e0c 	andeq	r5, r0, ip, lsl #28
    6508:	005e183c 	subseq	r1, lr, ip, lsr r8
    650c:	3c383800 	ldccc	8, cr3, [r8]
    6510:	0000593a 	andeq	r5, r0, sl, lsr r9
    6514:	38000000 	stmdacc	r0, {}
    6518:	005e2f3c 	subseq	r2, lr, ip, lsr pc
    651c:	5e3b3c00 	cdppl	12, 3, cr3, cr11, cr0, {0}
    6520:	00000000 	andeq	r0, r0, r0
    6524:	00655e3b 	rsbeq	r5, r5, fp, lsr lr
    6528:	5dfd3900 	ldclpl	9, cr3, [sp]
    652c:	f1390000 	undefined instruction 0xf1390000
    6530:	3900005d 	stmdbcc	r0, {r0, r2, r3, r4, r6}
    6534:	00005de6 	andeq	r5, r0, r6, ror #27
    6538:	0065513b 	rsbeq	r5, r5, fp, lsr r1
    653c:	5e0c3c00 	cdppl	12, 0, cr3, cr12, cr0, {0}
    6540:	183c0000 	ldmdane	ip!, {}
    6544:	3800005e 	stmdacc	r0, {r1, r2, r3, r4, r6}
    6548:	593a3c38 	ldmdbpl	sl!, {r3, r4, r5, sl, fp, ip, sp}
    654c:	00000000 	andeq	r0, r0, r0
    6550:	2f3c3800 	svccs	0x003c3800
    6554:	3c00005e 	stccc	0, cr0, [r0], {94}	; 0x5e
    6558:	00005e3b 	andeq	r5, r0, fp, lsr lr
    655c:	37380000 	ldrcc	r0, [r8, -r0]!
    6560:	00705f5f 	rsbseq	r5, r0, pc, asr pc
    6564:	03237a01 	teqeq	r3, #4096	; 0x1000
    6568:	5f370000 	svcpl	0x00370000
    656c:	01006e5f 	tsteq	r0, pc, asr lr
    6570:	0001e97a 	andeq	lr, r1, sl, ror r9
    6574:	06000000 	streq	r0, [r0], -r0
    6578:	0058b704 	subseq	fp, r8, r4, lsl #14
    657c:	2b040600 	blcs	107d84 <tz_ioctl+0x107b38>
    6580:	06000058 	undefined instruction 0x06000058
    6584:	00575004 	subseq	r5, r7, r4
    6588:	0a453400 	beq	114d008 <tz_ioctl+0x114cdbc>
    658c:	36010000 	strcc	r0, [r1], -r0
    6590:	00006801 	andeq	r6, r0, r1, lsl #16
    6594:	65cf0100 	strbvs	r0, [pc, #256]	; 669c <.debug_info+0x669c>
    6598:	df360000 	svcle	0x00360000
    659c:	0100002a 	tsteq	r0, sl, lsr #32
    65a0:	00657d36 	rsbeq	r7, r5, r6, lsr sp
    65a4:	65723700 	ldrbvs	r3, [r2, #-1792]!	; 0x700
    65a8:	38010074 	stmdacc	r1, {r2, r4, r5, r6}
    65ac:	0000028f 	andeq	r0, r0, pc, lsl #5
    65b0:	00307237 	eorseq	r7, r0, r7, lsr r2
    65b4:	022b3901 	eoreq	r3, fp, #16384	; 0x4000
    65b8:	72370000 	eorsvc	r0, r7, #0
    65bc:	3a010031 	bcc	46688 <tz_ioctl+0x4643c>
    65c0:	0000022b 	andeq	r0, r0, fp, lsr #4
    65c4:	00327237 	eorseq	r7, r2, r7, lsr r2
    65c8:	022b3b01 	eoreq	r3, fp, #1024	; 0x400
    65cc:	4a000000 	bmi	65d4 <.debug_info+0x65d4>
    65d0:	000005e3 	andeq	r0, r0, r3, ror #11
    65d4:	3001e301 	andcc	lr, r1, r1, lsl #6
    65d8:	4c000001 	stcmi	0, cr0, [r0], {1}
    65dc:	28000002 	stmdacs	r0, {r1}
    65e0:	99000007 	stmdbls	r0, {r0, r1, r2}
    65e4:	1d000001 	stcne	0, cr0, [r0, #-4]
    65e8:	4800006a 	stmdami	r0, {r1, r3, r5, r6}
    65ec:	00001384 	andeq	r1, r0, r4, lsl #7
    65f0:	2a29e301 	bcs	a7f1fc <tz_ioctl+0xa7efb0>
    65f4:	01c30000 	biceq	r0, r3, r0
    65f8:	63590000 	cmpvs	r9, #0
    65fc:	0100646d 	tsteq	r0, sp, ror #8
    6600:	000055e3 	andeq	r5, r0, r3, ror #11
    6604:	0001d600 	andeq	sp, r1, r0, lsl #12
    6608:	72615900 	rsbvc	r5, r1, #0
    660c:	e3010067 	movw	r0, #4199	; 0x1067
    6610:	00000029 	andeq	r0, r0, r9, lsr #32
    6614:	0000020a 	andeq	r0, r0, sl, lsl #4
    6618:	74657237 	strbtvc	r7, [r5], #-567	; 0x237
    661c:	30e50100 	rsccc	r0, r5, r0, lsl #2
    6620:	3d000001 	stccc	0, cr0, [r0, #-4]
    6624:	0000111f 	andeq	r1, r0, pc, lsl r1
    6628:	6172e601 	cmnvs	r2, r1, lsl #12
    662c:	785a0000 	ldmdavc	sl, {}^
    6630:	bc000061 	stclt	0, cr0, [r0], {97}	; 0x61
    6634:	90000002 	andls	r0, r0, r2
    6638:	01000000 	tsteq	r0, r0
    663c:	619439f3 	undefined instruction 0x619439f3
    6640:	89390000 	ldmdbhi	r9!, {}
    6644:	51000061 	tstpl	r0, r1, rrx
    6648:	000000b0 	strheq	r0, [r0], -r0
    664c:	00619f54 	rsbeq	r9, r1, r4, asr pc
    6650:	00023300 	andeq	r3, r2, r0, lsl #6
    6654:	61aa3c00 	undefined instruction 0x61aa3c00
    6658:	b5520000 	ldrblt	r0, [r2]
    665c:	02000061 	andeq	r0, r0, #97	; 0x61
    6660:	c0524891 	ldrbgt	r4, [r2], #-129	; 0xffffff7f
    6664:	03000061 	movweq	r0, #97	; 0x61
    6668:	3c7fa091 	ldclcc	0, cr10, [pc], #-580	; 0xfffffdbc
    666c:	000061cb 	andeq	r6, r0, fp, asr #3
    6670:	0061d658 	rsbeq	sp, r1, r8, asr r6
    6674:	00069000 	andeq	r9, r6, r0
    6678:	61dd5800 	bicsvs	r5, sp, r0, lsl #16
    667c:	06880000 	streq	r0, [r8], r0
    6680:	e4580000 	ldrb	r0, [r8]
    6684:	80000061 	andhi	r0, r0, r1, rrx
    6688:	50000006 	andpl	r0, r0, r6
    668c:	00005dd4 	ldrdeq	r5, [r0], -r4
    6690:	000002bc 	undefined instruction 0x000002bc
    6694:	000000d0 	ldrdeq	r0, [r0], -r0
    6698:	66de5c01 	ldrbvs	r5, [lr], r1, lsl #24
    669c:	fd390000 	ldc2	0, cr0, [r9]
    66a0:	3900005d 	stmdbcc	r0, {r0, r2, r3, r4, r6}
    66a4:	00005df1 	strdeq	r5, [r0], -r1
    66a8:	005de639 	subseq	lr, sp, r9, lsr r6
    66ac:	00f85b00 	rscseq	r5, r8, r0, lsl #22
    66b0:	66c90000 	strbvs	r0, [r9], r0
    66b4:	0c540000 	mraeq	r0, r4, acc0
    66b8:	8800005e 	stmdahi	r0, {r1, r2, r3, r4, r6}
    66bc:	54000002 	strpl	r0, [r0], #-2
    66c0:	00005e18 	andeq	r5, r0, r8, lsl lr
    66c4:	000002a6 	andeq	r0, r0, r6, lsr #5
    66c8:	03144e00 	tsteq	r4, #0
    66cc:	031c0000 	tsteq	ip, #0
    66d0:	2f3c0000 	svccs	0x003c0000
    66d4:	3c00005e 	stccc	0, cr0, [r0], {94}	; 0x5e
    66d8:	00005e3b 	andeq	r5, r0, fp, lsr lr
    66dc:	d4500000 	ldrble	r0, [r0]
    66e0:	3800005d 	stmdacc	r0, {r0, r2, r3, r4, r6}
    66e4:	18000003 	stmdane	r0, {r0, r1}
    66e8:	01000001 	tsteq	r0, r1
    66ec:	00673164 	rsbeq	r3, r7, r4, ror #2
    66f0:	5dfd3900 	ldclpl	9, cr3, [sp]
    66f4:	f1390000 	undefined instruction 0xf1390000
    66f8:	3900005d 	stmdbcc	r0, {r0, r2, r3, r4, r6}
    66fc:	00005de6 	andeq	r5, r0, r6, ror #27
    6700:	0001385b 	andeq	r3, r1, fp, asr r8
    6704:	00671c00 	rsbeq	r1, r7, r0, lsl #24
    6708:	5e0c5400 	cfcpyspl	mvf5, mvf12
    670c:	02c40000 	sbceq	r0, r4, #0
    6710:	18540000 	ldmdane	r4, {}^
    6714:	e200005e 	and	r0, r0, #94	; 0x5e
    6718:	00000002 	andeq	r0, r0, r2
    671c:	00036c4e 	andeq	r6, r3, lr, asr #24
    6720:	00037400 	andeq	r7, r3, r0, lsl #8
    6724:	5e2f3c00 	cdppl	12, 2, cr3, cr15, cr0, {0}
    6728:	3b3c0000 	blcc	f06730 <tz_ioctl+0xf064e4>
    672c:	0000005e 	andeq	r0, r0, lr, asr r0
    6730:	5c465500 	cfstr64pl	mvdx5, [r6], {0}
    6734:	03e00000 	mvneq	r0, #0
    6738:	04780000 	ldrbteq	r0, [r8]
    673c:	79010000 	stmdbvc	r1, {}
    6740:	0000686e 	andeq	r6, r0, lr, ror #16
    6744:	005c6239 	subseq	r6, ip, r9, lsr r2
    6748:	5c573900 	mrrcpl	9, 0, r3, r7, cr0
    674c:	e04e0000 	sub	r0, lr, r0
    6750:	78000003 	stmdavc	r0, {r0, r1}
    6754:	54000004 	strpl	r0, [r0], #-4
    6758:	00005c6d 	andeq	r5, r0, sp, ror #24
    675c:	00000300 	andeq	r0, r0, r0, lsl #6
    6760:	0003e04e 	andeq	lr, r3, lr, asr #32
    6764:	00047800 	andeq	r7, r4, r0, lsl #16
    6768:	5d223c00 	stcpl	12, cr3, [r2]
    676c:	20500000 	subscs	r0, r0, r0
    6770:	e000005c 	and	r0, r0, ip, asr r0
    6774:	50000003 	andpl	r0, r0, r3
    6778:	02000001 	andeq	r0, r0, #1
    677c:	00678cff 	strdeq	r8, [r7], #-207	; 0xffffff31
    6780:	5c3a3900 	ldcpl	9, cr3, [sl]
    6784:	31390000 	teqcc	r9, r0
    6788:	0000005c 	andeq	r0, r0, ip, asr r0
    678c:	005a7853 	subseq	r7, sl, r3, asr r8
    6790:	0003ec00 	andeq	lr, r3, r0, lsl #24
    6794:	00016800 	andeq	r6, r1, r0, lsl #16
    6798:	01010200 	tsteq	r1, r0, lsl #4
    679c:	00006858 	andeq	r6, r0, r8, asr r8
    67a0:	005ab139 	subseq	fp, sl, r9, lsr r1
    67a4:	5aa63900 	bpl	fe994bac <tz_ioctl+0xfe994960>
    67a8:	9b390000 	blls	e467b0 <tz_ioctl+0xe46564>
    67ac:	3900005a 	stmdbcc	r0, {r1, r3, r4, r6}
    67b0:	00005a90 	muleq	r0, r0, sl
    67b4:	005a8539 	subseq	r8, sl, r9, lsr r5
    67b8:	040c4e00 	streq	r4, [ip], #-3584	; 0xe00
    67bc:	04780000 	ldrbteq	r0, [r8]
    67c0:	bd540000 	ldcllt	0, cr0, [r4]
    67c4:	1e00005a 	mcrne	0, 0, r0, cr0, cr10, {2}
    67c8:	5c000003 	stcpl	0, cr0, [r0], {3}
    67cc:	000059b2 	undefined instruction 0x000059b2
    67d0:	0000040c 	andeq	r0, r0, ip, lsl #8
    67d4:	00000418 	andeq	r0, r0, r8, lsl r4
    67d8:	18572f03 	ldmdane	r7, {r0, r1, r8, r9, sl, fp, sp}^
    67dc:	1c000004 	stcne	0, cr0, [r0], {4}
    67e0:	ed000004 	stc	0, cr0, [r0, #-16]
    67e4:	3c000067 	stccc	0, cr0, [r0], {103}	; 0x67
    67e8:	00005b10 	andeq	r5, r0, r0, lsl fp
    67ec:	59d65600 	ldmibpl	r6, {r9, sl, ip, lr}^
    67f0:	04500000 	ldrbeq	r0, [r0]
    67f4:	04780000 	ldrbteq	r0, [r8]
    67f8:	2f030000 	svccs	0x00030000
    67fc:	00592955 	subseq	r2, r9, r5, asr r9
    6800:	00045000 	andeq	r5, r4, r0
    6804:	00045c00 	andeq	r5, r4, r0, lsl #24
    6808:	21df0500 	bicscs	r0, pc, r0, lsl #10
    680c:	4e000068 	cdpmi	0, 0, cr0, cr0, cr8, {3}
    6810:	00000450 	andeq	r0, r0, r0, asr r4
    6814:	0000045c 	andeq	r0, r0, ip, asr r4
    6818:	00593a52 	subseq	r3, r9, r2, asr sl
    681c:	005d0100 	subseq	r0, sp, r0, lsl #2
    6820:	597f5600 	ldmdbpl	pc!, {r9, sl, ip, lr}^
    6824:	04680000 	strbteq	r0, [r8]
    6828:	046c0000 	strbteq	r0, [ip]
    682c:	df050000 	svcle	0x00050000
    6830:	00599a39 	subseq	r9, r9, r9, lsr sl
    6834:	59903900 	ldmibpl	r0, {r8, fp, ip, sp}
    6838:	f2560000 	vhadd.s16	d16, d6, d0
    683c:	68000058 	stmdavs	r0, {r3, r4, r6}
    6840:	6c000004 	stcvs	0, cr0, [r0], {4}
    6844:	0e000004 	cdpeq	0, 0, cr0, cr0, cr4, {0}
    6848:	59033957 	stmdbpl	r3, {r0, r1, r2, r4, r6, r8, fp, ip, sp}
    684c:	0d390000 	ldceq	0, cr0, [r9]
    6850:	00000059 	andeq	r0, r0, r9, asr r0
    6854:	00000000 	andeq	r0, r0, r0
    6858:	0003f44e 	andeq	pc, r3, lr, asr #8
    685c:	0003f800 	andeq	pc, r3, r0, lsl #16
    6860:	5dc95800 	stclpl	8, cr5, [r9]
    6864:	03d00000 	bicseq	r0, r0, #0
    6868:	00000000 	andeq	r0, r0, r0
    686c:	d4500000 	ldrble	r0, [r0]
    6870:	7800005d 	stmdavc	r0, {r0, r2, r3, r4, r6}
    6874:	90000004 	andls	r0, r0, r4
    6878:	01000001 	tsteq	r0, r1
    687c:	0068c17f 	rsbeq	ip, r8, pc, ror r1
    6880:	5dfd3900 	ldclpl	9, cr3, [sp]
    6884:	f1390000 	undefined instruction 0xf1390000
    6888:	3900005d 	stmdbcc	r0, {r0, r2, r3, r4, r6}
    688c:	00005de6 	andeq	r5, r0, r6, ror #27
    6890:	0001b85b 	andeq	fp, r1, fp, asr r8
    6894:	0068ac00 	rsbeq	sl, r8, r0, lsl #24
    6898:	5e0c5400 	cfcpyspl	mvf5, mvf12
    689c:	033c0000 	teqeq	ip, #0
    68a0:	18540000 	ldmdane	r4, {}^
    68a4:	5a00005e 	bpl	180 <.debug_info+0x180>
    68a8:	00000003 	andeq	r0, r0, r3
    68ac:	0004c44e 	andeq	ip, r4, lr, asr #8
    68b0:	0004cc00 	andeq	ip, r4, r0, lsl #24
    68b4:	5e2f3c00 	cdppl	12, 2, cr3, cr15, cr0, {0}
    68b8:	3b3c0000 	blcc	f068c0 <tz_ioctl+0xf06674>
    68bc:	0000005e 	andeq	r0, r0, lr, asr r0
    68c0:	04845700 	streq	r5, [r4], #1792	; 0x700
    68c4:	04900000 	ldreq	r0, [r0]
    68c8:	68d90000 	ldmvs	r9, {}^
    68cc:	5f3c0000 	svcpl	0x003c0000
    68d0:	3c000065 	stccc	0, cr0, [r0], {101}	; 0x65
    68d4:	0000656a 	andeq	r6, r0, sl, ror #10
    68d8:	5c465500 	cfstr64pl	mvdx5, [r6], {0}
    68dc:	04ec0000 	strbteq	r0, [ip]
    68e0:	04f80000 	ldrbteq	r0, [r8]
    68e4:	87010000 	strhi	r0, [r1, -r0]
    68e8:	00006906 	andeq	r6, r0, r6, lsl #18
    68ec:	005c6239 	subseq	r6, ip, r9, lsr r2
    68f0:	5c573900 	mrrcpl	9, 0, r3, r7, cr0
    68f4:	ec4e0000 	mar	acc0, r0, lr
    68f8:	f8000004 	undefined instruction 0xf8000004
    68fc:	3c000004 	stccc	0, cr0, [r0], {4}
    6900:	00005c6d 	andeq	r5, r0, sp, ror #24
    6904:	d4500000 	ldrble	r0, [r0]
    6908:	0400005d 	streq	r0, [r0], #-93	; 0x5d
    690c:	d8000005 	stmdale	r0, {r0, r2}
    6910:	01000001 	tsteq	r0, r1
    6914:	00696188 	rsbeq	r6, r9, r8, lsl #3
    6918:	5dfd5d00 	ldclpl	13, cr5, [sp]
    691c:	03780000 	cmneq	r8, #0
    6920:	f1390000 	undefined instruction 0xf1390000
    6924:	3900005d 	stmdbcc	r0, {r0, r2, r3, r4, r6}
    6928:	00005de6 	andeq	r5, r0, r6, ror #27
    692c:	00050457 	andeq	r0, r5, r7, asr r4
    6930:	00051400 	andeq	r1, r5, r0, lsl #8
    6934:	00694c00 	rsbeq	r4, r9, r0, lsl #24
    6938:	5e0c5400 	cfcpyspl	mvf5, mvf12
    693c:	03a10000 	undefined instruction 0x03a10000
    6940:	18540000 	ldmdane	r4, {}^
    6944:	ca00005e 	bgt	180 <.debug_info+0x180>
    6948:	00000003 	andeq	r0, r0, r3
    694c:	00052c4e 	andeq	r2, r5, lr, asr #24
    6950:	00053c00 	andeq	r3, r5, r0, lsl #24
    6954:	5e3b3c00 	cdppl	12, 3, cr3, cr11, cr0, {0}
    6958:	2f3c0000 	svccs	0x003c0000
    695c:	0000005e 	andeq	r0, r0, lr, asr r0
    6960:	65895500 	strvs	r5, [r9, #1280]	; 0x500
    6964:	058c0000 	streq	r0, [ip]
    6968:	05bc0000 	ldreq	r0, [ip]!
    696c:	a0010000 	andge	r0, r1, r0
    6970:	000069a8 	andeq	r6, r0, r8, lsr #19
    6974:	00659a39 	rsbeq	r9, r5, r9, lsr sl
    6978:	058c4e00 	streq	r4, [ip, #3584]	; 0xe00
    697c:	05bc0000 	ldreq	r0, [ip]!
    6980:	a5540000 	ldrbge	r0, [r4]
    6984:	f3000065 	vhadd.u8	q0, q0, <illegal reg q10.5>
    6988:	54000003 	strpl	r0, [r0], #-3
    698c:	000065b0 	undefined instruction 0x000065b0
    6990:	00000413 	andeq	r0, r0, r3, lsl r4
    6994:	0065ba54 	rsbeq	fp, r5, r4, asr sl
    6998:	00042600 	andeq	r2, r4, r0, lsl #12
    699c:	65c45400 	strbvs	r5, [r4, #1024]	; 0x400
    69a0:	04390000 	ldrteq	r0, [r9]
    69a4:	00000000 	andeq	r0, r0, r0
    69a8:	005e4950 	subseq	r4, lr, r0, asr r9
    69ac:	0005d400 	andeq	sp, r5, r0, lsl #8
    69b0:	0001f000 	andeq	pc, r1, r0
    69b4:	e3ab0100 	undefined instruction 0xe3ab0100
    69b8:	39000069 	stmdbcc	r0, {r0, r3, r5, r6}
    69bc:	00005e72 	andeq	r5, r0, r2, ror lr
    69c0:	005e6639 	subseq	r6, lr, r9, lsr r6
    69c4:	5e5b3900 	cdppl	9, 5, cr3, cr11, cr0, {0}
    69c8:	10510000 	subsne	r0, r1, r0
    69cc:	54000002 	strpl	r0, [r0], #-2
    69d0:	00005e7d 	andeq	r5, r0, sp, ror lr
    69d4:	0000044c 	andeq	r0, r0, ip, asr #8
    69d8:	005e8954 	subseq	r8, lr, r4, asr r9
    69dc:	00047500 	andeq	r7, r4, r0, lsl #10
    69e0:	5a000000 	bpl	69e8 <.debug_info+0x69e8>
    69e4:	00005e49 	andeq	r5, r0, r9, asr #28
    69e8:	0000063c 	andeq	r0, r0, ip, lsr r6
    69ec:	00000230 	andeq	r0, r0, r0, lsr r2
    69f0:	7239b401 	eorsvc	fp, r9, #16777216	; 0x1000000
    69f4:	3900005e 	stmdbcc	r0, {r1, r2, r3, r4, r6}
    69f8:	00005e66 	andeq	r5, r0, r6, ror #28
    69fc:	005e5b39 	subseq	r5, lr, r9, lsr fp
    6a00:	02485100 	subeq	r5, r8, #0
    6a04:	7d540000 	ldclvc	0, cr0, [r4]
    6a08:	9300005e 	movwls	r0, #94	; 0x5e
    6a0c:	54000004 	strpl	r0, [r0], #-4
    6a10:	00005e89 	andeq	r5, r0, r9, lsl #29
    6a14:	000004b1 	undefined instruction 0x000004b1
    6a18:	00000000 	andeq	r0, r0, r0
    6a1c:	2a9a5e00 	bcs	fe697808 <tz_ioctl+0xfe6975bc>
    6a20:	25010000 	strcs	r0, [r1]
    6a24:	00000195 	muleq	r0, r5, r1
    6a28:	00400305 	subeq	r0, r0, r5, lsl #6
    6a2c:	e45e0000 	ldrb	r0, [lr]
    6a30:	01000017 	tsteq	r0, r7, lsl r0
    6a34:	00550426 	subseq	r0, r5, r6, lsr #8
    6a38:	3c030500 	cfstr32cc	mvfx0, [r3], {0}
    6a3c:	5e000000 	cdppl	0, 0, cr0, cr0, cr0, {0}
    6a40:	000000dc 	ldrdeq	r0, [r0], -ip
    6a44:	4e642701 	cdpmi	7, 6, cr2, cr4, cr1, {0}
    6a48:	03050000 	movweq	r0, #20480	; 0x5000
    6a4c:	00000044 	andeq	r0, r0, r4, asr #32
    6a50:	001e8e5e 	andseq	r8, lr, lr, asr lr
    6a54:	f9280100 	undefined instruction 0xf9280100
    6a58:	0500003a 	streq	r0, [r0, #-58]	; 0x3a
    6a5c:	00000003 	andeq	r0, r0, r3
    6a60:	178b4f00 	strne	r4, [fp, r0, lsl #30]
    6a64:	08010000 	stmdaeq	r1, {}
    6a68:	003ce601 	eorseq	lr, ip, r1, lsl #12
    6a6c:	00030500 	andeq	r0, r3, r0, lsl #10
    6a70:	03000000 	movweq	r0, #0
    6a74:	0000004e 	andeq	r0, r0, lr, asr #32
    6a78:	00006a83 	andeq	r6, r0, r3, lsl #21
    6a7c:	00004004 	andeq	r4, r0, r4
    6a80:	4f001400 	svcmi	0x00001400
    6a84:	00001801 	andeq	r1, r0, r1, lsl #16
    6a88:	95015501 	strls	r5, [r1, #-1281]	; 0x501
    6a8c:	0500006a 	streq	r0, [r0, #-106]	; 0x6a
    6a90:	00002403 	andeq	r2, r0, r3, lsl #8
    6a94:	6a730700 	bvs	1cc869c <tz_ioctl+0x1cc8450>
    6a98:	4e030000 	cdpmi	0, 0, cr0, cr3, cr0, {0}
    6a9c:	aa000000 	bge	6aa4 <.debug_info+0x6aa4>
    6aa0:	0400006a 	streq	r0, [r0], #-106	; 0x6a
    6aa4:	00000040 	andeq	r0, r0, r0, asr #32
    6aa8:	a24f0021 	subge	r0, pc, #33	; 0x21
    6aac:	0100000f 	tsteq	r0, pc
    6ab0:	6abc0156 	bvs	fef07010 <tz_ioctl+0xfef06dc4>
    6ab4:	03050000 	movweq	r0, #20480	; 0x5000
    6ab8:	00000000 	andeq	r0, r0, r0
    6abc:	006a9a07 	rsbeq	r9, sl, r7, lsl #20
    6ac0:	14ed5f00 	strbtne	r5, [sp], #3840	; 0xf00
    6ac4:	1d3e0000 	ldcne	0, cr0, [lr]
    6ac8:	00000055 	andeq	r0, r0, r5, asr r0
    6acc:	68030101 	stmdavs	r3, {r0, r8}
    6ad0:	d9000000 	stmdble	r0, {}
    6ad4:	6000006a 	andvs	r0, r0, sl, rrx
    6ad8:	1b1e5f00 	blne	797c08 <tz_ioctl+0x7979bc>
    6adc:	713f0000 	teqvc	pc, r0
    6ae0:	00006ace 	andeq	r6, r0, lr, asr #21
    6ae4:	4e030101 	adfmis	f0, f3, f1
    6ae8:	f1000000 	cps	#0
    6aec:	6000006a 	andvs	r0, r0, sl, rrx
    6af0:	0f396100 	svceq	0x00396100
    6af4:	663f0000 	ldrtvs	r0, [pc], -r0
    6af8:	006aff01 	rsbeq	pc, sl, r1, lsl #30
    6afc:	07010100 	streq	r0, [r1, -r0, lsl #2]
    6b00:	00006ae6 	andeq	r6, r0, r6, ror #21
    6b04:	001cd45f 	andseq	sp, ip, pc, asr r4
    6b08:	68321700 	ldmdavs	r2!, {r8, r9, sl, ip}
    6b0c:	01000000 	tsteq	r0, r0
    6b10:	14f76101 	ldrbtne	r6, [r7], #257	; 0x101
    6b14:	09170000 	ldmdbeq	r7, {}
    6b18:	000ce203 	andeq	lr, ip, r3, lsl #4
    6b1c:	03010100 	movweq	r0, #4352	; 0x1100
    6b20:	00006b2e 	andeq	r6, r0, lr, lsr #22
    6b24:	00006b2e 	andeq	r6, r0, lr, lsr #22
    6b28:	00004062 	andeq	r4, r0, r2, rrx
    6b2c:	04060000 	streq	r0, [r6]
    6b30:	00000ee9 	andeq	r0, r0, r9, ror #29
    6b34:	00156d61 	andseq	r6, r5, r1, ror #26
    6b38:	03de1700 	bicseq	r1, lr, #0
    6b3c:	00006b1f 	andeq	r6, r0, pc, lsl fp
    6b40:	29030101 	stmdbcs	r3, {r0, r8}
    6b44:	58000000 	stmdapl	r0, {}
    6b48:	0400006b 	streq	r0, [r0], #-107	; 0x6b
    6b4c:	00000040 	andeq	r0, r0, r0, asr #32
    6b50:	00400420 	subeq	r0, r0, r0, lsr #8
    6b54:	00000000 	andeq	r0, r0, r0
    6b58:	000dcb61 	andeq	ip, sp, r1, ror #22
    6b5c:	02b34000 	adcseq	r4, r3, #0
    6b60:	00006b66 	andeq	r6, r0, r6, ror #22
    6b64:	42070101 	andmi	r0, r7, #1073741824	; 0x40000000
    6b68:	6100006b 	tstvs	r0, fp, rrx
    6b6c:	0000058b 	andeq	r0, r0, fp, lsl #11
    6b70:	4c015241 	sfmmi	f5, 4, [r1], {65}	; (stcmi 2, cr5, [r1], {65})	; 0x41
    6b74:	01000002 	tsteq	r0, r2
    6b78:	2ac85f01 	bcs	ff217c0c <tz_ioctl+0xff2179c0>
    6b7c:	ed420000 	stcl	0, cr0, [r2]
    6b80:	00000068 	andeq	r0, r0, r8, rrx
    6b84:	6b5f0101 	blvs	17c040c <tz_ioctl+0x17c01c0>
    6b88:	03000008 	movweq	r0, #8
    6b8c:	00192f4f 	andseq	r2, r9, pc, asr #30
    6b90:	5f010100 	svcpl	0x00010100
    6b94:	0000185b 	andeq	r1, r0, fp, asr r8
    6b98:	192f7103 	stmdbne	pc!, {r0, r1, r8, ip, sp, lr}
    6b9c:	01010000 	tsteq	r1, r0
    6ba0:	0001395f 	andeq	r3, r1, pc, asr r9
    6ba4:	2f970300 	svccs	0x00970300
    6ba8:	01000019 	tsteq	r0, r9, lsl r0
    6bac:	02075f01 	andeq	r5, r7, #4
    6bb0:	bd030000 	stclt	0, cr0, [r3]
    6bb4:	0000192f 	andeq	r1, r0, pc, lsr #18
    6bb8:	945f0101 	ldrbls	r0, [pc], #257	; 8 <.debug_info+0x8>
    6bbc:	03000002 	movweq	r0, #2
    6bc0:	00192fd0 	undefined instruction 0x00192fd0
    6bc4:	5f010100 	svcpl	0x00010100
    6bc8:	0000121b 	andeq	r1, r0, fp, lsl r2
    6bcc:	192fe303 	stmdbne	pc!, {r0, r1, r8, r9, sp, lr, pc}
    6bd0:	01010000 	tsteq	r1, r0
    6bd4:	000d005f 	andeq	r0, sp, pc, asr r0
    6bd8:	2ff90300 	svccs	0x00f90300
    6bdc:	01000019 	tsteq	r0, r9, lsl r0
    6be0:	02c86101 	sbceq	r6, r8, #1073741824	; 0x40000000
    6be4:	0f030000 	svceq	0x00030000
    6be8:	00192f01 	andseq	r2, r9, r1, lsl #30
    6bec:	61010100 	tstvs	r1, r0, lsl #2
    6bf0:	00000956 	andeq	r0, r0, r6, asr r9
    6bf4:	2f012c03 	svccs	0x00012c03
    6bf8:	01000019 	tsteq	r0, r9, lsl r0
    6bfc:	1c016101 	stfnes	f6, [r1], {1}
    6c00:	46030000 	strmi	r0, [r3], -r0
    6c04:	00192f01 	andseq	r2, r9, r1, lsl #30
    6c08:	61010100 	tstvs	r1, r0, lsl #2
    6c0c:	00000cc9 	andeq	r0, r0, r9, asr #25
    6c10:	2f015f03 	svccs	0x00015f03
    6c14:	01000019 	tsteq	r0, r9, lsl r0
    6c18:	0be46101 	bleq	ff91840c <tz_ioctl+0xff9181c0>
    6c1c:	85030000 	strhi	r0, [r3]
    6c20:	00192f01 	andseq	r2, r9, r1, lsl #30
    6c24:	03010100 	movweq	r0, #4352	; 0x1100
    6c28:	00001a5b 	andeq	r1, r0, fp, asr sl
    6c2c:	00006c37 	andeq	r6, r0, r7, lsr ip
    6c30:	00004004 	andeq	r4, r0, r4
    6c34:	5f000d00 	svcpl	0x00000d00
    6c38:	0000079f 	muleq	r0, pc, r7
    6c3c:	6c278e02 	stcvs	14, cr8, [r7], #-8
    6c40:	01010000 	tsteq	r1, r0
    6c44:	000d965f 	andeq	r9, sp, pc, asr r6
    6c48:	2f234300 	svccs	0x00234300
    6c4c:	01000019 	tsteq	r0, r9, lsl r0
    6c50:	231c5f01 	tstcs	ip, #4
    6c54:	34430000 	strbcc	r0, [r3]
    6c58:	0000192f 	andeq	r1, r0, pc, lsr #18
    6c5c:	6c5f0101 	ldfvse	f0, [pc], {1}
    6c60:	4300001a 	movwmi	r0, #26
    6c64:	00192f4a 	andseq	r2, r9, sl, asr #30
    6c68:	5f010100 	svcpl	0x00010100
    6c6c:	000020d8 	ldrdeq	r2, [r0], -r8
    6c70:	192f6043 	stmdbne	pc!, {r0, r1, r6, sp, lr}
    6c74:	01010000 	tsteq	r1, r0
    6c78:	002baa5f 	eoreq	sl, fp, pc, asr sl
    6c7c:	2f764300 	svccs	0x00764300
    6c80:	01000019 	tsteq	r0, r9, lsl r0
    6c84:	07405f01 	strbeq	r5, [r0, -r1, lsl #30]
    6c88:	581e0000 	ldmdapl	lr, {}
    6c8c:	000010b7 	strheq	r1, [r0], -r7
    6c90:	b75f0101 	ldrblt	r0, [pc, -r1, lsl #2]
    6c94:	4400000f 	strmi	r0, [r0], #-15
    6c98:	00005549 	andeq	r5, r0, r9, asr #10
    6c9c:	5f010100 	svcpl	0x00010100
    6ca0:	00000b81 	andeq	r0, r0, r1, lsl #23
    6ca4:	08b5bd26 	ldmeq	r5!, {r1, r2, r5, r8, sl, fp, ip, sp, pc}
    6ca8:	01010000 	tsteq	r1, r0
    6cac:	001d3d5f 	andseq	r3, sp, pc, asr sp
    6cb0:	876e3400 	strbhi	r3, [lr, -r0, lsl #8]!
    6cb4:	0100004c 	tsteq	r0, ip, asr #32
    6cb8:	17080001 	strne	r0, [r8, -r1]
    6cbc:	00020000 	andeq	r0, r2, r0
    6cc0:	000004d3 	ldrdeq	r0, [r0], -r3
    6cc4:	379d0104 	ldrcc	r0, [sp, r4, lsl #2]
    6cc8:	a6010000 	strge	r0, [r1], -r0
    6ccc:	7600003c 	undefined instruction 0x7600003c
    6cd0:	28000039 	stmdacs	r0, {r0, r3, r4, r5}
    6cd4:	28000007 	stmdacs	r0, {r0, r1, r2}
    6cd8:	22000007 	andcs	r0, r0, #7
    6cdc:	02000007 	andeq	r0, r0, #7
    6ce0:	37180704 	ldrcc	r0, [r8, -r4, lsl #14]
    6ce4:	25030000 	strcs	r0, [r3]
    6ce8:	3c000000 	stccc	0, cr0, [r0], {0}
    6cec:	04000000 	streq	r0, [r0]
    6cf0:	0000003c 	andeq	r0, r0, ip, lsr r0
    6cf4:	04050001 	streq	r0, [r5], #-1
    6cf8:	45040607 	strmi	r0, [r4, #-1543]	; 0x607
    6cfc:	07000000 	streq	r0, [r0, -r0]
    6d00:	0000004a 	andeq	r0, r0, sl, asr #32
    6d04:	c8080102 	stmdagt	r8, {r1, r8}
    6d08:	02000034 	andeq	r0, r0, #52	; 0x34
    6d0c:	38a40704 	stmiacc	r4!, {r2, r8, r9, sl}
    6d10:	01020000 	tsteq	r2, r0
    6d14:	0033d306 	eorseq	sp, r3, r6, lsl #6
    6d18:	08010200 	stmdaeq	r1, {r9}
    6d1c:	0000345a 	andeq	r3, r0, sl, asr r4
    6d20:	1e050202 	cdpne	2, 0, cr0, cr5, cr2, {0}
    6d24:	0800003c 	stmdaeq	r0, {r2, r3, r4, r5}
    6d28:	0000314b 	andeq	r3, r0, fp, asr #2
    6d2c:	00781701 	rsbseq	r1, r8, r1, lsl #14
    6d30:	02020000 	andeq	r0, r2, #0
    6d34:	003dbf07 	eorseq	fp, sp, r7, lsl #30
    6d38:	05040900 	streq	r0, [r4, #-2304]	; 0x900
    6d3c:	00746e69 	rsbseq	r6, r4, r9, ror #28
    6d40:	00327508 	eorseq	r7, r2, r8, lsl #10
    6d44:	511a0100 	tstpl	sl, r0, lsl #2
    6d48:	02000000 	andeq	r0, r0, #0
    6d4c:	37c80508 	strbcc	r0, [r8, r8, lsl #10]
    6d50:	08020000 	stmdaeq	r2, {}
    6d54:	003a4f07 	eorseq	r4, sl, r7, lsl #30
    6d58:	31750a00 	cmncc	r5, r0, lsl #20
    6d5c:	2e010036 	mcrcs	0, 0, r0, cr1, cr6, {1}
    6d60:	00000078 	andeq	r0, r0, r8, ror r0
    6d64:	00328b08 	eorseq	r8, r2, r8, lsl #22
    6d68:	78170200 	ldmdavc	r7, {r9}
    6d6c:	02000000 	andeq	r0, r0, #0
    6d70:	32f40504 	rscscc	r0, r4, #16777216	; 0x1000000
    6d74:	ed080000 	stc	0, cr0, [r8]
    6d78:	02000037 	andeq	r0, r0, #55	; 0x37
    6d7c:	0000511e 	andeq	r5, r0, lr, lsl r1
    6d80:	3b940800 	blcc	fe502008 <tz_ioctl+0xfe501dbc>
    6d84:	1f020000 	svcne	0x00020000
    6d88:	0000007f 	andeq	r0, r0, pc, ror r0
    6d8c:	004a0406 	subeq	r0, sl, r6, lsl #8
    6d90:	54080000 	strpl	r0, [r8]
    6d94:	03000039 	movweq	r0, #57	; 0x39
    6d98:	0000aa17 	andeq	sl, r0, r7, lsl sl
    6d9c:	02010200 	andeq	r0, r1, #0
    6da0:	00003491 	muleq	r0, r1, r4
    6da4:	0030a208 	eorseq	sl, r0, r8, lsl #4
    6da8:	bc3b0300 	ldclt	3, cr0, [fp]
    6dac:	08000000 	stmdaeq	r0, {}
    6db0:	00003261 	andeq	r3, r0, r1, ror #4
    6db4:	00c74003 	sbceq	r4, r7, r3
    6db8:	2c080000 	stccs	0, cr0, [r8], {0}
    6dbc:	0300003d 	movweq	r0, #61	; 0x3d
    6dc0:	000051b3 	undefined instruction 0x000051b3
    6dc4:	03040b00 	movweq	r0, #19200	; 0x4b00
    6dc8:	000122be 	undefined instruction 0x000122be
    6dcc:	37d60c00 	ldrbcc	r0, [r6, r0, lsl #24]
    6dd0:	bf030000 	svclt	0x00030000
    6dd4:	00000122 	andeq	r0, r0, r2, lsr #2
    6dd8:	00002302 	andeq	r2, r0, r2, lsl #6
    6ddc:	00007f0d 	andeq	r7, r0, sp, lsl #30
    6de0:	3e060800 	cdpcc	8, 0, cr0, cr6, cr0, {0}
    6de4:	c0030000 	andgt	r0, r3, r0
    6de8:	0000010b 	andeq	r0, r0, fp, lsl #2
    6dec:	00312f0e 	eorseq	r2, r1, lr, lsl #30
    6df0:	13040800 	movwne	r0, #18432	; 0x4800
    6df4:	0000015b 	andeq	r0, r0, fp, asr r1
    6df8:	003e840c 	eorseq	r8, lr, ip, lsl #8
    6dfc:	5b140400 	blpl	507e04 <tz_ioctl+0x507bb8>
    6e00:	02000001 	andeq	r0, r0, #1
    6e04:	b40c0023 	strlt	r0, [ip], #-35	; 0x23
    6e08:	0400003e 	streq	r0, [r0], #-62	; 0x3e
    6e0c:	00015b14 	andeq	r5, r1, r4, lsl fp
    6e10:	04230200 	strteq	r0, [r3], #-512	; 0x200
    6e14:	32040600 	andcc	r0, r4, #0
    6e18:	0f000001 	svceq	0x00000001
    6e1c:	00250304 	eoreq	r0, r5, r4, lsl #6
    6e20:	01730000 	cmneq	r3, r0
    6e24:	3c040000 	stccc	0, cr0, [r4], {0}
    6e28:	02000000 	andeq	r0, r0, #0
    6e2c:	37bc1000 	ldrcc	r1, [ip, r0]!
    6e30:	06010000 	streq	r0, [r1], -r0
    6e34:	00017304 	andeq	r7, r1, r4, lsl #6
    6e38:	05040b00 	streq	r0, [r4, #-2816]	; 0xb00
    6e3c:	00019611 	andeq	r9, r1, r1, lsl r6
    6e40:	35440c00 	strbcc	r0, [r4, #-3072]	; 0xc00
    6e44:	12050000 	andne	r0, r5, #0
    6e48:	00000196 	muleq	r0, r6, r1
    6e4c:	00002302 	andeq	r2, r0, r2, lsl #6
    6e50:	0000510d 	andeq	r5, r0, sp, lsl #2
    6e54:	36f00800 	ldrbtcc	r0, [r0], r0, lsl #16
    6e58:	13050000 	movwne	r0, #20480	; 0x5000
    6e5c:	0000017f 	andeq	r0, r0, pc, ror r1
    6e60:	1406100b 	strne	r1, [r6], #-11
    6e64:	000001e7 	andeq	r0, r0, r7, ror #3
    6e68:	003df10c 	eorseq	pc, sp, ip, lsl #2
    6e6c:	9b150600 	blls	548674 <tz_ioctl+0x548428>
    6e70:	02000001 	andeq	r0, r0, #1
    6e74:	d20c0023 	andle	r0, ip, #35	; 0x23
    6e78:	0600003d 	undefined instruction 0x0600003d
    6e7c:	0000511a 	andeq	r5, r0, sl, lsl r1
    6e80:	04230200 	strteq	r0, [r3], #-512	; 0x200
    6e84:	00375e0c 	eorseq	r5, r7, ip, lsl #28
    6e88:	511a0600 	tstpl	sl, r0, lsl #12
    6e8c:	02000000 	andeq	r0, r0, #0
    6e90:	c70c0823 	strgt	r0, [ip, -r3, lsr #16]
    6e94:	06000030 	undefined instruction 0x06000030
    6e98:	0001611b 	andeq	r6, r1, fp, lsl r1
    6e9c:	0c230200 	sfmeq	f0, 4, [r3]	; (stceq 2, cr0, [r3])
    6ea0:	38d20800 	ldmcc	r2, {fp}^
    6ea4:	20060000 	andcs	r0, r6, r0
    6ea8:	000001a6 	andeq	r0, r0, r6, lsr #3
    6eac:	00362108 	eorseq	r2, r6, r8, lsl #2
    6eb0:	278d0700 	strcs	r0, [sp, r0, lsl #14]
    6eb4:	0e000001 	cdpeq	0, 0, cr0, cr0, cr1, {0}
    6eb8:	0000385d 	andeq	r3, r0, sp, asr r8
    6ebc:	26320818 	undefined instruction 0x26320818
    6ec0:	0c000002 	stceq	0, cr0, [r0], {2}
    6ec4:	00003517 	andeq	r3, r0, r7, lsl r5
    6ec8:	01e73308 	mvneq	r3, r8, lsl #6
    6ecc:	23020000 	movwcs	r0, #8192	; 0x2000
    6ed0:	35a50c00 	strcc	r0, [r5, #3072]!	; 0xc00
    6ed4:	34080000 	strcc	r0, [r8]
    6ed8:	00000132 	andeq	r0, r0, r2, lsr r1
    6edc:	00102302 	andseq	r2, r0, r2, lsl #6
    6ee0:	003dad08 	eorseq	sl, sp, r8, lsl #26
    6ee4:	fd360800 	ldc2	8, cr0, [r6]
    6ee8:	06000001 	streq	r0, [r0], -r1
    6eec:	00023704 	andeq	r3, r2, r4, lsl #14
    6ef0:	7f011100 	svcvc	0x00011100
    6ef4:	06000000 	streq	r0, [r0], -r0
    6ef8:	00024304 	andeq	r4, r2, r4, lsl #6
    6efc:	08011200 	stmdaeq	r1, {r9, ip}
    6f00:	00003675 	andeq	r3, r0, r5, ror r6
    6f04:	023d8a09 	eorseq	r8, sp, #36864	; 0x9000
    6f08:	04060000 	streq	r0, [r6]
    6f0c:	00000256 	andeq	r0, r0, r6, asr r2
    6f10:	00393e10 	eorseq	r3, r9, r0, lsl lr
    6f14:	300e0100 	andcc	r0, lr, r0, lsl #2
    6f18:	2c000032 	stccs	0, cr0, [r0], {50}	; 0x32
    6f1c:	0285390a 	addeq	r3, r5, #163840	; 0x28000
    6f20:	af0c0000 	svcge	0x000c0000
    6f24:	0a000035 	beq	7000 <.debug_info+0x7000>
    6f28:	0002853a 	andeq	r8, r2, sl, lsr r5
    6f2c:	00230200 	eoreq	r0, r3, r0, lsl #4
    6f30:	0037de0c 	eorseq	sp, r7, ip, lsl #28
    6f34:	253b0a00 	ldrcs	r0, [fp, #-2560]!	; 0xa00
    6f38:	02000000 	andeq	r0, r0, #0
    6f3c:	03002823 	movweq	r2, #2083	; 0x823
    6f40:	00000132 	andeq	r0, r0, r2, lsr r1
    6f44:	00000295 	muleq	r0, r5, r2
    6f48:	00003c04 	andeq	r3, r0, r4, lsl #24
    6f4c:	0e000400 	cfcpyseq	mvf0, mvf0
    6f50:	000030d5 	ldrdeq	r3, [r0], -r5
    6f54:	daa90a24 	ble	fea497ec <tz_ioctl+0xfea495a0>
    6f58:	0c000002 	stceq	0, cr0, [r0], {2}
    6f5c:	00003897 	muleq	r0, r7, r8
    6f60:	007faa0a 	rsbseq	sl, pc, sl, lsl #20
    6f64:	23020000 	movwcs	r0, #8192	; 0x2000
    6f68:	33760c00 	cmncc	r6, #0
    6f6c:	ab0a0000 	blge	286f74 <tz_ioctl+0x286d28>
    6f70:	0000007f 	andeq	r0, r0, pc, ror r0
    6f74:	0c042302 	stceq	3, cr2, [r4], {2}
    6f78:	0000316c 	andeq	r3, r0, ip, ror #2
    6f7c:	007fac0a 	rsbseq	sl, pc, sl, lsl #24
    6f80:	23020000 	movwcs	r0, #8192	; 0x2000
    6f84:	3d870c08 	stccc	12, cr0, [r7, #32]
    6f88:	af0a0000 	svcge	0x000a0000
    6f8c:	000002da 	ldrdeq	r0, [r0], -sl
    6f90:	000c2302 	andeq	r2, ip, r2, lsl #6
    6f94:	00013203 	andeq	r3, r1, r3, lsl #4
    6f98:	0002ea00 	andeq	lr, r2, r0, lsl #20
    6f9c:	003c0400 	eorseq	r0, ip, r0, lsl #8
    6fa0:	00020000 	andeq	r0, r2, r0
    6fa4:	003b720e 	eorseq	r7, fp, lr, lsl #4
    6fa8:	b20a2400 	andlt	r2, sl, #0
    6fac:	00000305 	andeq	r0, r0, r5, lsl #6
    6fb0:	70637013 	rsbvc	r7, r3, r3, lsl r0
    6fb4:	95b30a00 	ldrls	r0, [r3, #2560]!	; 0xa00
    6fb8:	02000002 	andeq	r0, r0, #2
    6fbc:	14000023 	strne	r0, [r0], #-35	; 0x23
    6fc0:	00003bd7 	ldrdeq	r3, [r0], -r7
    6fc4:	010c0a24 	tsteq	ip, r4, lsr #20
    6fc8:	00000340 	andeq	r0, r0, r0, asr #6
    6fcc:	00390d15 	eorseq	r0, r9, r5, lsl sp
    6fd0:	01150a00 	tsteq	r5, r0, lsl #20
    6fd4:	0000002c 	andeq	r0, r0, ip, lsr #32
    6fd8:	15002302 	strne	r2, [r0, #-770]	; 0x302
    6fdc:	000034b3 	undefined instruction 0x000034b3
    6fe0:	2c01160a 	stccs	6, cr1, [r1], {10}
    6fe4:	02000000 	andeq	r0, r0, #0
    6fe8:	e9150823 	ldmdb	r5, {r0, r1, r5, fp}
    6fec:	0a00003b 	beq	70e0 <.debug_info+0x70e0>
    6ff0:	0340011b 	movteq	r0, #283	; 0x11b
    6ff4:	23020000 	movwcs	r0, #8192	; 0x2000
    6ff8:	25030010 	strcs	r0, [r3, #-16]
    6ffc:	50000000 	andpl	r0, r0, r0
    7000:	04000003 	streq	r0, [r0], #-3
    7004:	0000003c 	andeq	r0, r0, ip, lsr r0
    7008:	88140004 	ldmdahi	r4, {r2}
    700c:	08000034 	stmdaeq	r0, {r2, r4, r5}
    7010:	6d01500a 	stcvs	0, cr5, [r1, #-40]	; 0xffffffd8
    7014:	15000003 	strne	r0, [r0, #-3]
    7018:	00003939 	andeq	r3, r0, r9, lsr r9
    701c:	3201510a 	andcc	r5, r1, #-2147483646	; 0x80000002
    7020:	02000001 	andeq	r0, r0, #1
    7024:	16000023 	strne	r0, [r0], -r3, lsr #32
    7028:	00003117 	andeq	r3, r0, r7, lsl r1
    702c:	1e0a0314 	mcrne	3, 0, r0, cr10, cr4, {0}
    7030:	0004c701 	andeq	ip, r4, r1, lsl #14
    7034:	39281500 	stmdbcc	r8!, {r8, sl, ip}
    7038:	220a0000 	andcs	r0, sl, #0
    703c:	00016301 	andeq	r6, r1, r1, lsl #6
    7040:	00230200 	eoreq	r0, r3, r0, lsl #4
    7044:	00337b15 	eorseq	r7, r3, r5, lsl fp
    7048:	012c0a00 	teqeq	ip, r0, lsl #20
    704c:	0000002c 	andeq	r0, r0, ip, lsr #32
    7050:	150c2302 	strne	r2, [ip, #-770]	; 0x302
    7054:	000039d4 	ldrdeq	r3, [r0], -r4
    7058:	c701370a 	strgt	r3, [r1, -sl, lsl #14]
    705c:	02000004 	andeq	r0, r0, #4
    7060:	17151423 	ldrne	r1, [r5, -r3, lsr #8]
    7064:	0a000035 	beq	7140 <.debug_info+0x7140>
    7068:	01e7013c 	mvneq	r0, ip, lsr r1
    706c:	23020000 	movwcs	r0, #8192	; 0x2000
    7070:	32301538 	eorscc	r1, r0, #234881024	; 0xe000000
    7074:	410a0000 	tstmi	sl, r0
    7078:	0004d701 	andeq	sp, r4, r1, lsl #14
    707c:	48230200 	stmdami	r3!, {r9}
    7080:	003b4615 	eorseq	r4, fp, r5, lsl r6
    7084:	014f0a00 	cmpeq	pc, r0, lsl #20
    7088:	000001e7 	andeq	r0, r0, r7, ror #3
    708c:	04ac2303 	strteq	r2, [ip], #771	; 0x303
    7090:	75726c17 	ldrbvc	r6, [r2, #-3095]!	; 0xc17
    7094:	01520a00 	cmpeq	r2, r0, lsl #20
    7098:	000004e7 	andeq	r0, r0, r7, ror #9
    709c:	04bc2303 	ldrteq	r2, [ip], #771	; 0x303
    70a0:	003a1515 	eorseq	r1, sl, r5, lsl r5
    70a4:	01540a00 	cmpeq	r4, r0, lsl #20
    70a8:	00000305 	andeq	r0, r0, r5, lsl #6
    70ac:	04e42303 	strbteq	r2, [r4], #771	; 0x303
    70b0:	00386f15 	eorseq	r6, r8, r5, lsl pc
    70b4:	01560a00 	cmpeq	r6, r0, lsl #20
    70b8:	00000025 	andeq	r0, r0, r5, lsr #32
    70bc:	05882303 	streq	r2, [r8, #771]	; 0x303
    70c0:	00358f15 	eorseq	r8, r5, r5, lsl pc
    70c4:	01570a00 	cmpeq	r7, r0, lsl #20
    70c8:	00000025 	andeq	r0, r0, r5, lsr #32
    70cc:	058c2303 	streq	r2, [ip, #771]	; 0x303
    70d0:	0030cd15 	eorseq	ip, r0, r5, lsl sp
    70d4:	015a0a00 	cmpeq	sl, r0, lsl #20
    70d8:	000004f7 	strdeq	r0, [r0], -r7
    70dc:	05902303 	ldreq	r2, [r0, #771]	; 0x303
    70e0:	0038f415 	eorseq	pc, r8, r5, lsl r4
    70e4:	01690a00 	cmneq	r9, r0, lsl #20
    70e8:	0000007f 	andeq	r0, r0, pc, ror r0
    70ec:	05ec2303 	strbeq	r2, [ip, #771]!	; 0x303
    70f0:	003e6b15 	eorseq	r6, lr, r5, lsl fp
    70f4:	016f0a00 	cmneq	pc, r0, lsl #20
    70f8:	00000051 	andeq	r0, r0, r1, asr r0
    70fc:	05f02303 	ldrbeq	r2, [r0, #771]!	; 0x303
    7100:	00362f15 	eorseq	r2, r6, r5, lsl pc
    7104:	018d0a00 	orreq	r0, sp, r0, lsl #20
    7108:	00000507 	andeq	r0, r0, r7, lsl #10
    710c:	05f42303 	ldrbeq	r2, [r4, #771]!	; 0x303
    7110:	00395b15 	eorseq	r5, r9, r5, lsl fp
    7114:	018e0a00 	orreq	r0, lr, r0, lsl #20
    7118:	00000025 	andeq	r0, r0, r5, lsr #32
    711c:	05f82303 	ldrbeq	r2, [r8, #771]!	; 0x303
    7120:	00359515 	eorseq	r9, r5, r5, lsl r5
    7124:	018f0a00 	orreq	r0, pc, r0, lsl #20
    7128:	00000025 	andeq	r0, r0, r5, lsr #32
    712c:	05fc2303 	ldrbeq	r2, [ip, #771]!	; 0x303
    7130:	003ae615 	eorseq	lr, sl, r5, lsl r6
    7134:	01940a00 	orrseq	r0, r4, r0, lsl #20
    7138:	000005ca 	andeq	r0, r0, sl, asr #11
    713c:	06802303 	streq	r2, [r0], r3, lsl #6
    7140:	003b4f15 	eorseq	r4, fp, r5, lsl pc
    7144:	01960a00 	orrseq	r0, r6, r0, lsl #20
    7148:	00000025 	andeq	r0, r0, r5, lsr #32
    714c:	06842303 	streq	r2, [r4], r3, lsl #6
    7150:	0030b915 	eorseq	fp, r0, r5, lsl r9
    7154:	01a20a00 	undefined instruction 0x01a20a00
    7158:	00000025 	andeq	r0, r0, r5, lsr #32
    715c:	06882303 	streq	r2, [r8], r3, lsl #6
    7160:	0037fd15 	eorseq	pc, r7, r5, lsl sp
    7164:	01a30a00 	undefined instruction 0x01a30a00
    7168:	00000025 	andeq	r0, r0, r5, lsr #32
    716c:	068c2303 	streq	r2, [ip], r3, lsl #6
    7170:	003c0415 	eorseq	r0, ip, r5, lsl r4
    7174:	01a80a00 	undefined instruction 0x01a80a00
    7178:	0000003f 	andeq	r0, r0, pc, lsr r0
    717c:	06902303 	ldreq	r2, [r0], r3, lsl #6
    7180:	02ea0300 	rsceq	r0, sl, #0
    7184:	04d70000 	ldrbeq	r0, [r7]
    7188:	3c040000 	stccc	0, cr0, [r4], {0}
    718c:	00000000 	andeq	r0, r0, r0
    7190:	025c0300 	subseq	r0, ip, #0
    7194:	04e70000 	strbteq	r0, [r7]
    7198:	3c040000 	stccc	0, cr0, [r4], {0}
    719c:	0a000000 	beq	71a4 <.debug_info+0x71a4>
    71a0:	03500300 	cmpeq	r0, #0
    71a4:	04f70000 	ldrbteq	r0, [r7]
    71a8:	3c040000 	stccc	0, cr0, [r4], {0}
    71ac:	04000000 	streq	r0, [r0]
    71b0:	01f20300 	mvnseq	r0, r0, lsl #6
    71b4:	05070000 	streq	r0, [r7]
    71b8:	3c040000 	stccc	0, cr0, [r4], {0}
    71bc:	16000000 	strne	r0, [r0], -r0
    71c0:	26040600 	strcs	r0, [r4], -r0, lsl #12
    71c4:	18000002 	stmdane	r0, {r1}
    71c8:	00003a03 	andeq	r3, r0, r3, lsl #20
    71cc:	3e0a067c 	mcrcc	6, 0, r0, cr10, cr12, {3}
    71d0:	000005ca 	andeq	r0, r0, sl, asr #11
    71d4:	00331b15 	eorseq	r1, r3, r5, lsl fp
    71d8:	02660a00 	rsbeq	r0, r6, #0
    71dc:	0000064a 	andeq	r0, r0, sl, asr #12
    71e0:	15002302 	strne	r2, [r0, #-770]	; 0x302
    71e4:	00003c97 	muleq	r0, r7, ip
    71e8:	5a02670a 	bpl	a0e18 <tz_ioctl+0xa0bcc>
    71ec:	03000006 	movweq	r0, #6
    71f0:	150ca823 	strne	sl, [ip, #-2083]	; 0x823
    71f4:	00003ad3 	ldrdeq	r3, [r0], -r3
    71f8:	7f02680a 	svcvc	0x0002680a
    71fc:	03000000 	movweq	r0, #0
    7200:	150cc423 	strne	ip, [ip, #-1059]	; 0x423
    7204:	00003589 	andeq	r3, r0, r9, lsl #11
    7208:	70026f0a 	andvc	r6, r2, sl, lsl #30
    720c:	03000006 	movweq	r0, #6
    7210:	150cc823 	strne	ip, [ip, #-2083]	; 0x823
    7214:	00003ba5 	andeq	r3, r0, r5, lsr #23
    7218:	25027a0a 	strcs	r7, [r2, #-2570]	; 0xa0a
    721c:	03000000 	movweq	r0, #0
    7220:	150ccc23 	strne	ip, [ip, #-3107]	; 0xc23
    7224:	00003d32 	andeq	r3, r0, r2, lsr sp
    7228:	25027b0a 	strcs	r7, [r2, #-2826]	; 0xb0a
    722c:	03000000 	movweq	r0, #0
    7230:	150cd023 	strne	sp, [ip, #-35]	; 0x23
    7234:	000036d7 	ldrdeq	r3, [r0], -r7
    7238:	25027c0a 	strcs	r7, [r2, #-3082]	; 0xc0a
    723c:	03000000 	movweq	r0, #0
    7240:	150cd423 	strne	sp, [ip, #-1059]	; 0x423
    7244:	00003647 	andeq	r3, r0, r7, asr #12
    7248:	7f027e0a 	svcvc	0x00027e0a
    724c:	03000000 	movweq	r0, #0
    7250:	150cd823 	strne	sp, [ip, #-2083]	; 0x823
    7254:	000034ef 	andeq	r3, r0, pc, ror #9
    7258:	26027f0a 	strcs	r7, [r2], -sl, lsl #30
    725c:	03000002 	movweq	r0, #2
    7260:	150cdc23 	strne	sp, [ip, #-3107]	; 0xc23
    7264:	0000327b 	andeq	r3, r0, fp, ror r2
    7268:	7902800a 	stmdbvc	r2, {r1, r3, pc}
    726c:	03000001 	movweq	r0, #1
    7270:	150cf423 	strne	pc, [ip, #-1059]	; 0x423
    7274:	00003b1c 	andeq	r3, r0, ip, lsl fp
    7278:	7f02810a 	svcvc	0x0002810a
    727c:	03000000 	movweq	r0, #0
    7280:	000cf823 	andeq	pc, ip, r3, lsr #16
    7284:	050d0406 	streq	r0, [sp, #-1030]	; 0x406
    7288:	14140000 	ldrne	r0, [r4]
    728c:	08000032 	stmdaeq	r0, {r1, r4, r5}
    7290:	fc022e0a 	stc2	14, cr2, [r2], {10}
    7294:	15000005 	strne	r0, [r0, #-5]
    7298:	00003117 	andeq	r3, r0, r7, lsl r1
    729c:	fc022f0a 	stc2	15, cr2, [r2], {10}
    72a0:	02000005 	andeq	r0, r0, #5
    72a4:	8a150023 	bhi	540094 <tz_ioctl+0x53fe48>
    72a8:	0a000033 	beq	737c <.debug_info+0x737c>
    72ac:	007f0230 	rsbseq	r0, pc, r0, lsr r2
    72b0:	23020000 	movwcs	r0, #8192	; 0x2000
    72b4:	04060004 	streq	r0, [r6], #-4
    72b8:	0000036d 	andeq	r0, r0, sp, ror #6
    72bc:	00347714 	eorseq	r7, r4, r4, lsl r7
    72c0:	440a1c00 	strmi	r1, [sl], #-3072	; 0xc00
    72c4:	00062e02 	andeq	r2, r6, r2, lsl #28
    72c8:	3d6b1500 	cfstr64cc	mvdx1, [fp]
    72cc:	450a0000 	strmi	r0, [sl]
    72d0:	00063402 	andeq	r3, r6, r2, lsl #8
    72d4:	00230200 	eoreq	r0, r3, r0, lsl #4
    72d8:	00317e15 	eorseq	r7, r1, r5, lsl lr
    72dc:	02460a00 	subeq	r0, r6, #0
    72e0:	0000063a 	andeq	r0, r0, sl, lsr r6
    72e4:	00042302 	andeq	r2, r4, r2, lsl #6
    72e8:	003e0f10 	eorseq	r0, lr, r0, lsl pc
    72ec:	04060100 	streq	r0, [r6], #-256	; 0x100
    72f0:	0000062e 	andeq	r0, r0, lr, lsr #12
    72f4:	0005d003 	andeq	sp, r5, r3
    72f8:	00064a00 	andeq	r4, r6, r0, lsl #20
    72fc:	003c0400 	eorseq	r0, ip, r0, lsl #8
    7300:	00020000 	andeq	r0, r2, r0
    7304:	00036d03 	andeq	r6, r3, r3, lsl #26
    7308:	00065a00 	andeq	r5, r6, r0, lsl #20
    730c:	003c0400 	eorseq	r0, ip, r0, lsl #8
    7310:	00010000 	andeq	r0, r1, r0
    7314:	00060203 	andeq	r0, r6, r3, lsl #4
    7318:	00066a00 	andeq	r6, r6, r0, lsl #20
    731c:	003c0400 	eorseq	r0, ip, r0, lsl #8
    7320:	00000000 	andeq	r0, r0, r0
    7324:	00319010 	eorseq	r9, r1, r0, lsl r0
    7328:	04060100 	streq	r0, [r6], #-256	; 0x100
    732c:	0000066a 	andeq	r0, r0, sl, ror #12
    7330:	00364f0e 	eorseq	r4, r6, lr, lsl #30
    7334:	0b0b0800 	bleq	2c933c <tz_ioctl+0x2c90f0>
    7338:	000006a1 	andeq	r0, r0, r1, lsr #13
    733c:	0030a915 	eorseq	sl, r0, r5, lsl r9
    7340:	03c50a00 	biceq	r0, r5, #0
    7344:	00000025 	andeq	r0, r0, r5, lsr #32
    7348:	15002302 	strne	r2, [r0, #-770]	; 0x302
    734c:	000039af 	andeq	r3, r0, pc, lsr #19
    7350:	a103c80a 	tstge	r3, sl, lsl #16
    7354:	02000006 	andeq	r0, r0, #6
    7358:	06000423 	streq	r0, [r0], -r3, lsr #8
    735c:	00002504 	andeq	r2, r0, r4, lsl #10
    7360:	b3011900 	movwlt	r1, #6400	; 0x1900
    7364:	1a000006 	bne	7384 <.debug_info+0x7384>
    7368:	00000161 	andeq	r0, r0, r1, ror #2
    736c:	a7040600 	strge	r0, [r4, -r0, lsl #12]
    7370:	08000006 	stmdaeq	r0, {r1, r2}
    7374:	000035d6 	ldrdeq	r3, [r0], -r6
    7378:	0086140c 	addeq	r1, r6, ip, lsl #8
    737c:	23080000 	movwcs	r0, #32768	; 0x8000
    7380:	0c000038 	stceq	0, cr0, [r0], {56}	; 0x38
    7384:	00006d15 	andeq	r6, r0, r5, lsl sp
    7388:	3a780800 	bcc	1e02008 <tz_ioctl+0x1e01dbc>
    738c:	160c0000 	strne	r0, [ip], -r0
    7390:	00000086 	andeq	r0, r0, r6, lsl #1
    7394:	00322508 	eorseq	r2, r2, r8, lsl #10
    7398:	86180c00 	ldrhi	r0, [r8], -r0, lsl #24
    739c:	0e000000 	cdpeq	0, 0, cr0, cr0, cr0, {0}
    73a0:	000039f0 	strdeq	r3, [r0], -r0
    73a4:	46ac0c10 	ssatmi	r0, #13, r0, lsl #24
    73a8:	0c000007 	stceq	0, cr0, [r0], {7}
    73ac:	00003d06 	andeq	r3, r0, r6, lsl #26
    73b0:	06daad0c 	ldrbeq	sl, [sl], ip, lsl #26
    73b4:	23020000 	movwcs	r0, #8192	; 0x2000
    73b8:	39fa0c00 	ldmibcc	sl!, {sl, fp}^
    73bc:	ae0c0000 	cdpge	0, 0, cr0, cr12, cr0, {0}
    73c0:	000006b9 	undefined instruction 0x000006b9
    73c4:	0c042302 	stceq	3, cr2, [r4], {2}
    73c8:	0000374d 	andeq	r3, r0, sp, asr #14
    73cc:	06daaf0c 	ldrbeq	sl, [sl], ip, lsl #30
    73d0:	23020000 	movwcs	r0, #8192	; 0x2000
    73d4:	35b90c08 	ldrcc	r0, [r9, #3080]!	; 0xc08
    73d8:	b00c0000 	andlt	r0, ip, r0
    73dc:	0000005f 	andeq	r0, r0, pc, asr r0
    73e0:	0c0c2302 	stceq	3, cr2, [ip], {2}
    73e4:	00003eb9 	undefined instruction 0x00003eb9
    73e8:	005fb10c 	subseq	fp, pc, ip, lsl #2
    73ec:	23020000 	movwcs	r0, #8192	; 0x2000
    73f0:	38430c0d 	stmdacc	r3, {r0, r2, r3, sl, fp}^
    73f4:	b20c0000 	andlt	r0, ip, #0
    73f8:	000006c4 	andeq	r0, r0, r4, asr #13
    73fc:	000e2302 	andeq	r2, lr, r2, lsl #6
    7400:	0032a708 	eorseq	sl, r2, r8, lsl #14
    7404:	e5b30c00 	ldr	r0, [r3, #3072]!	; 0xc00
    7408:	1b000006 	blne	7428 <.debug_info+0x7428>
    740c:	01210c28 	teqeq	r1, r8, lsr #24
    7410:	000007f1 	strdeq	r0, [r0], -r1
    7414:	00385515 	eorseq	r5, r8, r5, lsl r5
    7418:	01220c00 	teqeq	r2, r0, lsl #24
    741c:	000006da 	ldrdeq	r0, [r0], -sl
    7420:	15002302 	strne	r2, [r0, #-770]	; 0x302
    7424:	00003776 	andeq	r3, r0, r6, ror r7
    7428:	da01230c 	ble	50060 <tz_ioctl+0x4fe14>
    742c:	02000006 	andeq	r0, r0, #6
    7430:	1c150423 	cfldrsne	mvf0, [r5], {35}	; 0x23
    7434:	0c000032 	stceq	0, cr0, [r0], {50}	; 0x32
    7438:	06da0124 	ldrbeq	r0, [sl], r4, lsr #2
    743c:	23020000 	movwcs	r0, #8192	; 0x2000
    7440:	34801508 	strcc	r1, [r0], #1288	; 0x508
    7444:	250c0000 	strcs	r0, [ip]
    7448:	0006b901 	andeq	fp, r6, r1, lsl #18
    744c:	0c230200 	sfmeq	f0, 4, [r3]	; (stceq 2, cr0, [r3])
    7450:	003bc115 	eorseq	ip, fp, r5, lsl r1
    7454:	01260c00 	teqeq	r6, r0, lsl #24
    7458:	000006cf 	andeq	r0, r0, pc, asr #13
    745c:	15102302 	ldrne	r2, [r0, #-770]	; 0x302
    7460:	00003188 	andeq	r3, r0, r8, lsl #3
    7464:	da01270c 	ble	5109c <tz_ioctl+0x50e50>
    7468:	02000006 	andeq	r0, r0, #6
    746c:	d1151423 	tstle	r5, r3, lsr #8
    7470:	0c000032 	stceq	0, cr0, [r0], {50}	; 0x32
    7474:	06da0128 	ldrbeq	r0, [sl], r8, lsr #2
    7478:	23020000 	movwcs	r0, #8192	; 0x2000
    747c:	36851518 	pkhbtcc	r1, r5, r8, lsl #10
    7480:	290c0000 	stmdbcs	ip, {}
    7484:	0006da01 	andeq	sp, r6, r1, lsl #20
    7488:	1c230200 	sfmne	f0, 4, [r3]	; (stcne 2, cr0, [r3])
    748c:	00335515 	eorseq	r5, r3, r5, lsl r5
    7490:	012a0c00 	teqeq	sl, r0, lsl #24
    7494:	000006da 	ldrdeq	r0, [r0], -sl
    7498:	15202302 	strne	r2, [r0, #-770]!	; 0x302
    749c:	00003a29 	andeq	r3, r0, r9, lsr #20
    74a0:	da012b0c 	ble	520d8 <tz_ioctl+0x51e8c>
    74a4:	02000006 	andeq	r0, r0, #6
    74a8:	1c002423 	cfstrsne	mvf2, [r0], {35}	; 0x23
    74ac:	0000343b 	andeq	r3, r0, fp, lsr r4
    74b0:	51012c0c 	tstpl	r1, ip, lsl #24
    74b4:	0e000007 	cdpeq	0, 0, cr0, cr0, cr7, {0}
    74b8:	00003a88 	andeq	r3, r0, r8, lsl #21
    74bc:	341c0d0c 	ldrcc	r0, [ip], #-3340	; 0xd0c
    74c0:	0c000008 	stceq	0, cr0, [r0], {8}
    74c4:	00003c04 	andeq	r3, r0, r4, lsl #24
    74c8:	003f1d0d 	eorseq	r1, pc, sp, lsl #26
    74cc:	23020000 	movwcs	r0, #8192	; 0x2000
    74d0:	30c70c00 	sbccc	r0, r7, r0, lsl #24
    74d4:	1e0d0000 	cdpne	0, 0, cr0, cr13, cr0, {0}
    74d8:	00000b70 	andeq	r0, r0, r0, ror fp
    74dc:	0c042302 	stceq	3, cr2, [r4], {2}
    74e0:	00003c59 	andeq	r3, r0, r9, asr ip
    74e4:	00d81f0d 	sbcseq	r1, r8, sp, lsl #30
    74e8:	23020000 	movwcs	r0, #8192	; 0x2000
    74ec:	e8180008 	ldmda	r8, {r3}
    74f0:	5c000034 	stcpl	0, cr0, [r0], {52}	; 0x34
    74f4:	70150d01 	andsvc	r0, r5, r1, lsl #26
    74f8:	0c00000b 	stceq	0, cr0, [r0], {11}
    74fc:	000031bb 	undefined instruction 0x000031bb
    7500:	146eec0e 	strbtne	lr, [lr], #-3086	; 0xc0e
    7504:	23020000 	movwcs	r0, #8192	; 0x2000
    7508:	39390c00 	ldmdbcc	r9!, {sl, fp}
    750c:	ef0e0000 	svc	0x000e0000
    7510:	00000132 	andeq	r0, r0, r2, lsr r1
    7514:	0c042302 	stceq	3, cr2, [r4], {2}
    7518:	00003c04 	andeq	r3, r0, r4, lsl #24
    751c:	1323f20e 	msrne	CPSR_xc, #-536870912	; 0xe0000000
    7520:	23020000 	movwcs	r0, #8192	; 0x2000
    7524:	367f0c0c 	ldrbtcc	r0, [pc], -ip, lsl #24
    7528:	f50e0000 	undefined instruction 0xf50e0000
    752c:	0000141e 	andeq	r1, r0, lr, lsl r4
    7530:	0c482302 	mcrreq	3, 0, r2, r8, cr2
    7534:	000031ce 	andeq	r3, r0, lr, asr #3
    7538:	13aef60e 	undefined instruction 0x13aef60e
    753c:	23020000 	movwcs	r0, #8192	; 0x2000
    7540:	3b820c78 	blcc	fe0831e8 <tz_ioctl+0xfe082f9c>
    7544:	f70e0000 	undefined instruction 0xf70e0000
    7548:	0000003f 	andeq	r0, r0, pc, lsr r0
    754c:	0c7c2302 	ldcleq	3, cr2, [ip], #-8
    7550:	00003140 	andeq	r3, r0, r0, asr #2
    7554:	003ff80e 	eorseq	pc, pc, lr, lsl #16
    7558:	23030000 	movwcs	r0, #12288	; 0x3000
    755c:	fb0c0180 	blx	30060a <tz_ioctl+0x3003be>
    7560:	0e000034 	mcreq	0, 0, r0, cr0, cr4, {1}
    7564:	000b76f9 	strdeq	r7, [fp], -r9
    7568:	84230300 	strthi	r0, [r3], #-768	; 0x300
    756c:	37b70c01 	ldrcc	r0, [r7, r1, lsl #24]!
    7570:	fc0e0000 	stc2	0, cr0, [lr], {0}
    7574:	0000148d 	andeq	r1, r0, sp, lsl #9
    7578:	01882303 	orreq	r2, r8, r3, lsl #6
    757c:	003c540c 	eorseq	r5, ip, ip, lsl #8
    7580:	9cfd0e00 	ldclls	14, cr0, [sp]
    7584:	03000014 	movweq	r0, #20
    7588:	0c018c23 	stceq	12, cr8, [r1], {35}	; 0x23
    758c:	0000376d 	andeq	r3, r0, sp, ror #14
    7590:	0051fe0e 	subseq	pc, r1, lr, lsl #28
    7594:	23030000 	movwcs	r0, #12288	; 0x3000
    7598:	6b170190 	blvs	5c7be0 <tz_ioctl+0x5c7994>
    759c:	010e0070 	tsteq	lr, r0, ror r0
    75a0:	000ea901 	andeq	sl, lr, r1, lsl #18
    75a4:	94230300 	strtls	r0, [r3], #-768	; 0x300
    75a8:	36661501 	strbtcc	r1, [r6], -r1, lsl #10
    75ac:	020e0000 	andeq	r0, lr, #0
    75b0:	00005101 	andeq	r5, r0, r1, lsl #2
    75b4:	98230300 	stmdals	r3!, {r8, r9}
    75b8:	3c691501 	cfstr64cc	mvdx1, [r9], #-4
    75bc:	050e0000 	streq	r0, [lr]
    75c0:	00005101 	andeq	r5, r0, r1, lsl #2
    75c4:	9c230300 	stcls	3, cr0, [r3]
    75c8:	3c4b1501 	cfstr64cc	mvdx1, [fp], {1}
    75cc:	060e0000 	streq	r0, [lr], -r0
    75d0:	00148d01 	andseq	r8, r4, r1, lsl #26
    75d4:	a0230300 	eorge	r0, r3, r0, lsl #6
    75d8:	3ed81501 	cdpcc	5, 13, cr1, cr8, cr1, {0}
    75dc:	070e0000 	streq	r0, [lr, -r0]
    75e0:	00149c01 	andseq	r9, r4, r1, lsl #24
    75e4:	a4230300 	strtge	r0, [r3], #-768	; 0x300
    75e8:	3d451501 	cfstr64cc	mvdx1, [r5, #-4]
    75ec:	160e0000 	strne	r0, [lr], -r0
    75f0:	00148d01 	andseq	r8, r4, r1, lsl #26
    75f4:	a8230300 	stmdage	r3!, {r8, r9}
    75f8:	319d1501 	orrscc	r1, sp, r1, lsl #10
    75fc:	170e0000 	strne	r0, [lr, -r0]
    7600:	00149c01 	andseq	r9, r4, r1, lsl #24
    7604:	ac230300 	stcge	3, cr0, [r3]
    7608:	37391501 	ldrcc	r1, [r9, -r1, lsl #10]!
    760c:	180e0000 	stmdane	lr, {}
    7610:	00005101 	andeq	r5, r0, r1, lsl #2
    7614:	b0230300 	eorlt	r0, r3, r0, lsl #6
    7618:	342d1501 	strtcc	r1, [sp], #-1281	; 0x501
    761c:	1b0e0000 	blne	387624 <tz_ioctl+0x3873d8>
    7620:	00005101 	andeq	r5, r0, r1, lsl #2
    7624:	b4230300 	strtlt	r0, [r3], #-768	; 0x300
    7628:	352e1501 	strcc	r1, [lr, #-1281]!	; 0x501
    762c:	1c0e0000 	stcne	0, cr0, [lr], {0}
    7630:	0014ad01 	andseq	sl, r4, r1, lsl #26
    7634:	b8230300 	stmdalt	r3!, {r8, r9}
    7638:	3bb41501 	blcc	fed0540c <tz_ioctl+0xfed051c0>
    763c:	1f0e0000 	svcne	0x000e0000
    7640:	00023101 	andeq	r3, r2, r1, lsl #2
    7644:	bc230300 	stclt	3, cr0, [r3]
    7648:	3b661501 	blcc	198540c <tz_ioctl+0x19851c0>
    764c:	220e0000 	andcs	r0, lr, #0
    7650:	00016101 	andeq	r6, r1, r1, lsl #2
    7654:	c0230300 	eorgt	r0, r3, r0, lsl #6
    7658:	33ac1501 	undefined instruction 0x33ac1501
    765c:	250e0000 	strcs	r0, [lr]
    7660:	00016101 	andeq	r6, r1, r1, lsl #2
    7664:	c4230300 	strtgt	r0, [r3], #-768	; 0x300
    7668:	37931501 	ldrcc	r1, [r3, r1, lsl #10]
    766c:	280e0000 	stmdacs	lr, {}
    7670:	00005101 	andeq	r5, r0, r1, lsl #2
    7674:	c8230300 	stmdagt	r3!, {r8, r9}
    7678:	34501501 	ldrbcc	r1, [r0], #-1281	; 0x501
    767c:	280e0000 	stmdacs	lr, {}
    7680:	00005101 	andeq	r5, r0, r1, lsl #2
    7684:	cc230300 	stcgt	3, cr0, [r3]
    7688:	34681501 	strbtcc	r1, [r8], #-1281	; 0x501
    768c:	2b0e0000 	blcs	387694 <tz_ioctl+0x387448>
    7690:	00005101 	andeq	r5, r0, r1, lsl #2
    7694:	d0230300 	eorle	r0, r3, r0, lsl #6
    7698:	39dc1501 	ldmibcc	ip, {r0, r8, sl, ip}^
    769c:	2b0e0000 	blcs	3876a4 <tz_ioctl+0x387458>
    76a0:	00005101 	andeq	r5, r0, r1, lsl #2
    76a4:	d4230300 	strtle	r0, [r3], #-768	; 0x300
    76a8:	36011501 	strcc	r1, [r1], -r1, lsl #10
    76ac:	2e0e0000 	cdpcs	0, 0, cr0, cr14, cr0, {0}
    76b0:	00125d01 	andseq	r5, r2, r1, lsl #26
    76b4:	d8230300 	stmdale	r3!, {r8, r9}
    76b8:	3bcb1501 	blcc	ff2c540c <tz_ioctl+0xff2c51c0>
    76bc:	300e0000 	andcc	r0, lr, r0
    76c0:	00005101 	andeq	r5, r0, r1, lsl #2
    76c4:	fc230300 	stc2	3, cr0, [r3]
    76c8:	31391501 	teqcc	r9, r1, lsl #10
    76cc:	3f0e0000 	svccc	0x000e0000
    76d0:	0014b301 	andseq	fp, r4, r1, lsl #6
    76d4:	80230300 	eorhi	r0, r3, r0, lsl #6
    76d8:	32691502 	rsbcc	r1, r9, #8388608	; 0x800000
    76dc:	3f0e0000 	svccc	0x000e0000
    76e0:	0014b301 	andseq	fp, r4, r1, lsl #6
    76e4:	84230300 	strthi	r0, [r3], #-768	; 0x300
    76e8:	3aa51502 	bcc	fe945410 <tz_ioctl+0xfe9451c4>
    76ec:	400e0000 	andmi	r0, lr, r0
    76f0:	00005101 	andeq	r5, r0, r1, lsl #2
    76f4:	88230300 	stmdahi	r3!, {r8, r9}
    76f8:	3e371502 	cdpcc	5, 3, cr1, cr7, cr2, {0}
    76fc:	400e0000 	andmi	r0, lr, r0
    7700:	00005101 	andeq	r5, r0, r1, lsl #2
    7704:	8c230300 	stchi	3, cr0, [r3]
    7708:	361a1502 	ldrcc	r1, [sl], -r2, lsl #10
    770c:	410e0000 	tstmi	lr, r0
    7710:	0000d201 	andeq	sp, r0, r1, lsl #4
    7714:	90230300 	eorls	r0, r3, r0, lsl #6
    7718:	370c1502 	strcc	r1, [ip, -r2, lsl #10]
    771c:	410e0000 	tstmi	lr, r0
    7720:	0000d201 	andeq	sp, r0, r1, lsl #4
    7724:	94230300 	strtls	r0, [r3], #-768	; 0x300
    7728:	33931502 	orrscc	r1, r3, #8388608	; 0x800000
    772c:	440e0000 	strmi	r0, [lr]
    7730:	0014bf01 	andseq	fp, r4, r1, lsl #30
    7734:	98230300 	stmdals	r3!, {r8, r9}
    7738:	38371502 	ldmdacc	r7!, {r1, r8, sl, ip}
    773c:	470e0000 	strmi	r0, [lr, -r0]
    7740:	0014cb01 	andseq	ip, r4, r1, lsl #22
    7744:	9c230300 	stcls	3, cr0, [r3]
    7748:	38ed1502 	stmiacc	sp!, {r1, r8, sl, ip}^
    774c:	4b0e0000 	blmi	387754 <tz_ioctl+0x387508>
    7750:	00016101 	andeq	r6, r1, r1, lsl #2
    7754:	a0230300 	eorge	r0, r3, r0, lsl #6
    7758:	377e1502 	ldrbcc	r1, [lr, -r2, lsl #10]!
    775c:	4f0e0000 	svcmi	0x000e0000
    7760:	0000d201 	andeq	sp, r0, r1, lsl #4
    7764:	a4230300 	strtge	r0, [r3], #-768	; 0x300
    7768:	33fc1502 	mvnscc	r1, #8388608	; 0x800000
    776c:	510e0000 	tstpl	lr, r0
    7770:	00106101 	andseq	r6, r0, r1, lsl #2
    7774:	a8230300 	stmdage	r3!, {r8, r9}
    7778:	35071502 	strcc	r1, [r7, #-1282]	; 0x502
    777c:	520e0000 	andpl	r0, lr, #0
    7780:	00005101 	andeq	r5, r0, r1, lsl #2
    7784:	ac230300 	stcge	3, cr0, [r3]
    7788:	380b1502 	stmdacc	fp, {r1, r8, sl, ip}
    778c:	560e0000 	strpl	r0, [lr], -r0
    7790:	0014d101 	andseq	sp, r4, r1, lsl #2
    7794:	b0230300 	eorlt	r0, r3, r0, lsl #6
    7798:	3a341502 	bcc	d05410 <tz_ioctl+0xd051c4>
    779c:	570e0000 	strpl	r0, [lr, -r0]
    77a0:	00005101 	andeq	r5, r0, r1, lsl #2
    77a4:	b4230300 	strtlt	r0, [r3], #-768	; 0x300
    77a8:	3cf91502 	cfldr64cc	mvdx1, [r9], #8
    77ac:	5a0e0000 	bpl	3877b4 <tz_ioctl+0x387568>
    77b0:	0014dd01 	andseq	sp, r4, r1, lsl #26
    77b4:	b8230300 	stmdalt	r3!, {r8, r9}
    77b8:	31061502 	tstcc	r6, r2, lsl #10
    77bc:	5b0e0000 	blpl	3877c4 <tz_ioctl+0x387578>
    77c0:	00005101 	andeq	r5, r0, r1, lsl #2
    77c4:	bc230300 	stclt	3, cr0, [r3]
    77c8:	35c11502 	strbcc	r1, [r1, #1282]	; 0x502
    77cc:	640e0000 	strvs	r0, [lr]
    77d0:	00013201 	andeq	r3, r1, r1, lsl #4
    77d4:	c0230300 	eorgt	r0, r3, r0, lsl #6
    77d8:	3a221502 	bcc	885410 <tz_ioctl+0x8851c4>
    77dc:	670e0000 	strvs	r0, [lr, -r0]
    77e0:	00017901 	andeq	r7, r1, r1, lsl #18
    77e4:	c8230300 	stmdagt	r3!, {r8, r9}
    77e8:	3e541502 	cdpcc	5, 5, cr1, cr4, cr2, {0}
    77ec:	6a0e0000 	bvs	3877f4 <tz_ioctl+0x3875a8>
    77f0:	00023d01 	andeq	r3, r2, r1, lsl #26
    77f4:	cc230300 	stcgt	3, cr0, [r3]
    77f8:	65721702 	ldrbvs	r1, [r2, #-1794]!	; 0x702
    77fc:	6f0e0066 	svcvs	0x000e0066
    7800:	00125201 	andseq	r5, r2, r1, lsl #4
    7804:	d0230300 	eorle	r0, r3, r0, lsl #6
    7808:	3ec21502 	cdpcc	5, 12, cr1, cr2, cr2, {0}
    780c:	750e0000 	strvc	r0, [lr]
    7810:	0014e301 	andseq	lr, r4, r1, lsl #6
    7814:	d4230300 	strtle	r0, [r3], #-768	; 0x300
    7818:	3e7a1502 	cdpcc	5, 7, cr1, cr10, cr2, {0}
    781c:	760e0000 	strvc	r0, [lr], -r0
    7820:	00005101 	andeq	r5, r0, r1, lsl #2
    7824:	d8230300 	stmdale	r3!, {r8, r9}
    7828:	04060002 	streq	r0, [r6], #-2
    782c:	00000834 	andeq	r0, r0, r4, lsr r8
    7830:	0b7c0406 	bleq	1f08850 <tz_ioctl+0x1f08604>
    7834:	5e0e0000 	cdppl	0, 0, cr0, cr14, cr0, {0}
    7838:	2400003b 	strcs	r0, [r0], #-59	; 0x3b
    783c:	0c3f140d 	cfldrseq	mvf1, [pc], #-52	; 0xffffffcc
    7840:	040c0000 	streq	r0, [ip]
    7844:	0f00003c 	svceq	0x0000003c
    7848:	00003f3c 	andeq	r3, r0, ip, lsr pc
    784c:	00230200 	eoreq	r0, r3, r0, lsl #4
    7850:	003a0f0c 	eorseq	r0, sl, ip, lsl #30
    7854:	323d0f00 	eorscc	r0, sp, #0
    7858:	02000001 	andeq	r0, r0, #1
    785c:	7d0c0423 	cfstrsvc	mvf0, [ip, #-140]	; 0xffffff74
    7860:	0f000038 	svceq	0x00000038
    7864:	000b763e 	andeq	r7, fp, lr, lsr r6
    7868:	0c230200 	sfmeq	f0, 4, [r3]	; (stceq 2, cr0, [r3])
    786c:	0039eb0c 	eorseq	lr, r9, ip, lsl #22
    7870:	193f0f00 	ldmdbne	pc!, {r8, r9, sl, fp}
    7874:	0200000d 	andeq	r0, r0, #13
    7878:	820c1023 	andhi	r1, ip, #35	; 0x23
    787c:	0f00003a 	svceq	0x0000003a
    7880:	000d5640 	andeq	r5, sp, r0, asr #12
    7884:	14230200 	strtne	r0, [r3], #-512	; 0x200
    7888:	00647313 	rsbeq	r7, r4, r3, lsl r3
    788c:	0d62410f 	stfeqe	f4, [r2, #-60]!	; 0xffffffc4
    7890:	23020000 	movwcs	r0, #8192	; 0x2000
    7894:	37680c18 	undefined instruction 0x37680c18
    7898:	420f0000 	andmi	r0, pc, #0
    789c:	00000cb9 	undefined instruction 0x00000cb9
    78a0:	1d1c2302 	ldcne	3, cr2, [ip, #-8]
    78a4:	000033ea 	andeq	r3, r0, sl, ror #7
    78a8:	0051430f 	subseq	r4, r1, pc, lsl #6
    78ac:	01040000 	tsteq	r4, r0
    78b0:	2023021f 	eorcs	r0, r3, pc, lsl r2
    78b4:	0032b11d 	eorseq	fp, r2, sp, lsl r1
    78b8:	51440f00 	cmppl	r4, r0, lsl #30
    78bc:	04000000 	streq	r0, [r0]
    78c0:	23021e01 	movwcs	r1, #11777	; 0x2e01
    78c4:	3d551d20 	ldclcc	13, cr1, [r5, #-128]	; 0xffffff80
    78c8:	450f0000 	strmi	r0, [pc, #0]	; 78d0 <.debug_info+0x78d0>
    78cc:	00000051 	andeq	r0, r0, r1, asr r0
    78d0:	021d0104 	andseq	r0, sp, #1
    78d4:	2d1d2023 	ldccs	0, cr2, [sp, #-140]	; 0xffffff74
    78d8:	0f00003b 	svceq	0x0000003b
    78dc:	00005146 	andeq	r5, r0, r6, asr #2
    78e0:	1c010400 	cfstrsne	mvf0, [r1], {0}
    78e4:	1d202302 	stcne	3, cr2, [r0, #-8]!
    78e8:	00003340 	andeq	r3, r0, r0, asr #6
    78ec:	0051470f 	subseq	r4, r1, pc, lsl #14
    78f0:	01040000 	tsteq	r4, r0
    78f4:	2023021b 	eorcs	r0, r3, fp, lsl r2
    78f8:	fd040600 	stc2	6, cr0, [r4]
    78fc:	06000007 	streq	r0, [r0], -r7
    7900:	000c3f04 	andeq	r3, ip, r4, lsl #30
    7904:	31620e00 	cmncc	r2, r0, lsl #28
    7908:	0d080000 	stceq	0, cr0, [r8]
    790c:	000c744d 	andeq	r7, ip, sp, asr #8
    7910:	32c00c00 	sbccc	r0, r0, #0
    7914:	4e0d0000 	cdpmi	0, 0, cr0, cr13, cr0, {0}
    7918:	00000c8e 	andeq	r0, r0, lr, lsl #25
    791c:	0c002302 	stceq	3, cr2, [r0], {2}
    7920:	00003c63 	andeq	r3, r0, r3, ror #24
    7924:	0cb34f0d 	ldceq	15, cr4, [r3], #52	; 0x34
    7928:	23020000 	movwcs	r0, #8192	; 0x2000
    792c:	011e0004 	tsteq	lr, r4
    7930:	000000f5 	strdeq	r0, [r0], -r5
    7934:	00000c8e 	andeq	r0, r0, lr, lsl #25
    7938:	000b761a 	andeq	r7, fp, sl, lsl r6
    793c:	0c3f1a00 	ldceq	10, cr1, [pc]
    7940:	d21a0000 	andsle	r0, sl, #0
    7944:	00000000 	andeq	r0, r0, r0
    7948:	0c740406 	cfldrdeq	mvd0, [r4], #-24	; 0xffffffe8
    794c:	011e0000 	tsteq	lr, r0
    7950:	000000f5 	strdeq	r0, [r0], -r5
    7954:	00000cb3 	undefined instruction 0x00000cb3
    7958:	000b761a 	andeq	r7, fp, sl, lsl r6
    795c:	0c3f1a00 	ldceq	10, cr1, [pc]
    7960:	3f1a0000 	svccc	0x001a0000
    7964:	1a000000 	bne	796c <.debug_info+0x796c>
    7968:	000000ea 	andeq	r0, r0, sl, ror #1
    796c:	94040600 	strls	r0, [r4], #-1536	; 0x600
    7970:	0e00000c 	cdpeq	0, 0, cr0, cr0, cr12, {0}
    7974:	00003768 	andeq	r3, r0, r8, ror #14
    7978:	d4141004 	ldrle	r1, [r4], #-4
    797c:	0c00000c 	stceq	0, cr0, [r0], {12}
    7980:	0000384c 	andeq	r3, r0, ip, asr #16
    7984:	01271510 	teqeq	r7, r0, lsl r5
    7988:	23020000 	movwcs	r0, #8192	; 0x2000
    798c:	eb0e0000 	bl	380008 <tz_ioctl+0x37fdbc>
    7990:	40000039 	andmi	r0, r0, r9, lsr r0
    7994:	0d193f0f 	ldceq	15, cr3, [r9, #-60]	; 0xffffffc4
    7998:	390c0000 	stmdbcc	ip, {}
    799c:	0f000039 	svceq	0x00000039
    79a0:	0001329b 	muleq	r1, fp, r2
    79a4:	00230200 	eoreq	r0, r3, r0, lsl #4
    79a8:	0032fd0c 	eorseq	pc, r2, ip, lsl #26
    79ac:	e79c0f00 	ldr	r0, [ip, r0, lsl #30]
    79b0:	02000001 	andeq	r0, r0, #1
    79b4:	8a0c0823 	bhi	302094 <tz_ioctl+0x301e48>
    79b8:	0f00003b 	svceq	0x0000003b
    79bc:	000b7c9d 	muleq	fp, sp, ip
    79c0:	18230200 	stmdane	r3!, {r9}
    79c4:	003b040c 	eorseq	r0, fp, ip, lsl #8
    79c8:	7d9e0f00 	ldcvc	15, cr0, [lr]
    79cc:	0200000e 	andeq	r0, r0, #14
    79d0:	06003c23 	streq	r3, [r0], -r3, lsr #24
    79d4:	000cd404 	andeq	sp, ip, r4, lsl #8
    79d8:	3da30e00 	stccc	14, cr0, [r3]
    79dc:	0f0c0000 	svceq	0x000c0000
    79e0:	000d5640 	andeq	r5, sp, r0, asr #12
    79e4:	3c090c00 	stccc	12, cr0, [r9], {0}
    79e8:	6c0f0000 	stcvs	0, cr0, [pc], {0}
    79ec:	00000d74 	andeq	r0, r0, r4, ror sp
    79f0:	0c002302 	stceq	3, cr2, [r0], {2}
    79f4:	00003162 	andeq	r3, r0, r2, ror #2
    79f8:	0d7a6d0f 	ldcleq	13, cr6, [sl, #-60]!	; 0xffffffc4
    79fc:	23020000 	movwcs	r0, #8192	; 0x2000
    7a00:	36060c04 	strcc	r0, [r6], -r4, lsl #24
    7a04:	6e0f0000 	cdpvs	0, 0, cr0, cr15, cr0, {0}
    7a08:	00000c45 	andeq	r0, r0, r5, asr #24
    7a0c:	00082302 	andeq	r2, r8, r2, lsl #6
    7a10:	0d1f0406 	cfldrseq	mvf0, [pc, #-24]	; 0xffffffe8
    7a14:	08100000 	ldmdaeq	r0, {}
    7a18:	01000034 	tsteq	r0, r4, lsr r0
    7a1c:	0d5c0406 	cfldrdeq	mvd0, [ip, #-24]	; 0xffffffe8
    7a20:	01190000 	tsteq	r9, r0
    7a24:	00000d74 	andeq	r0, r0, r4, ror sp
    7a28:	000b761a 	andeq	r7, fp, sl, lsl r6
    7a2c:	04060000 	streq	r0, [r6]
    7a30:	00000d68 	andeq	r0, r0, r8, ror #26
    7a34:	0c4b0406 	cfstrdeq	mvd0, [fp], {6}
    7a38:	83180000 	tsthi	r8, #0
    7a3c:	88000037 	stmdahi	r0, {r0, r1, r2, r4, r5}
    7a40:	c9710f08 	ldmdbgt	r1!, {r3, r8, r9, sl, fp}^
    7a44:	0c00000d 	stceq	0, cr0, [r0], {13}
    7a48:	00003362 	andeq	r3, r0, r2, ror #6
    7a4c:	0dc9720f 	sfmeq	f7, 2, [r9, #60]	; (stcleq 2, cr7, [r9, #60])	; 0x3c
    7a50:	23020000 	movwcs	r0, #8192	; 0x2000
    7a54:	32820c00 	addcc	r0, r2, #0
    7a58:	730f0000 	movwvc	r0, #61440	; 0xf000
    7a5c:	0000007f 	andeq	r0, r0, pc, ror r0
    7a60:	01802303 	orreq	r2, r0, r3, lsl #6
    7a64:	66756213 	undefined instruction 0x66756213
    7a68:	d9740f00 	ldmdble	r4!, {r8, r9, sl, fp}^
    7a6c:	0300000d 	movweq	r0, #13
    7a70:	0c018423 	cfstrseq	mvf8, [r1], {35}	; 0x23
    7a74:	000038cb 	andeq	r3, r0, fp, asr #17
    7a78:	007f750f 	rsbseq	r7, pc, pc, lsl #10
    7a7c:	23030000 	movwcs	r0, #12288	; 0x3000
    7a80:	03001184 	movweq	r1, #388	; 0x184
    7a84:	000000d2 	ldrdeq	r0, [r0], -r2
    7a88:	00000dd9 	ldrdeq	r0, [r0], -r9
    7a8c:	00003c04 	andeq	r3, r0, r4, lsl #24
    7a90:	03001f00 	movweq	r1, #3840	; 0xf00
    7a94:	0000004a 	andeq	r0, r0, sl, asr #32
    7a98:	00000dea 	andeq	r0, r0, sl, ror #27
    7a9c:	00003c1f 	andeq	r3, r0, pc, lsl ip
    7aa0:	0007ff00 	andeq	pc, r7, r0, lsl #30
    7aa4:	0038dd0e 	eorseq	sp, r8, lr, lsl #26
    7aa8:	780f0c00 	stmdavc	pc, {sl, fp}
    7aac:	00000e21 	andeq	r0, r0, r1, lsr #28
    7ab0:	003cf20c 	eorseq	pc, ip, ip, lsl #4
    7ab4:	36790f00 	ldrbtcc	r0, [r9], -r0, lsl #30
    7ab8:	0200000e 	andeq	r0, r0, #14
    7abc:	040c0023 	streq	r0, [ip], #-35	; 0x23
    7ac0:	0f00003c 	svceq	0x0000003c
    7ac4:	000e517a 	andeq	r5, lr, sl, ror r1
    7ac8:	04230200 	strteq	r0, [r3], #-512	; 0x200
    7acc:	0039cd0c 	eorseq	ip, r9, ip, lsl #26
    7ad0:	777b0f00 	ldrbvc	r0, [fp, -r0, lsl #30]!
    7ad4:	0200000e 	andeq	r0, r0, #14
    7ad8:	1e000823 	cdpne	8, 0, cr0, cr0, cr3, {1}
    7adc:	00007f01 	andeq	r7, r0, r1, lsl #30
    7ae0:	000e3600 	andeq	r3, lr, r0, lsl #12
    7ae4:	0d191a00 	vldreq	s2, [r9]
    7ae8:	761a0000 	ldrvc	r0, [sl], -r0
    7aec:	0000000b 	andeq	r0, r0, fp
    7af0:	0e210406 	cdpeq	4, 2, cr0, cr1, cr6, {0}
    7af4:	011e0000 	tsteq	lr, r0
    7af8:	0000003f 	andeq	r0, r0, pc, lsr r0
    7afc:	00000e51 	andeq	r0, r0, r1, asr lr
    7b00:	000d191a 	andeq	r1, sp, sl, lsl r9
    7b04:	0b761a00 	bleq	1d8e30c <tz_ioctl+0x1d8e0c0>
    7b08:	06000000 	streq	r0, [r0], -r0
    7b0c:	000e3c04 	andeq	r3, lr, r4, lsl #24
    7b10:	7f011e00 	svcvc	0x00011e00
    7b14:	71000000 	tstvc	r0, r0
    7b18:	1a00000e 	bne	7b58 <.debug_info+0x7b58>
    7b1c:	00000d19 	andeq	r0, r0, r9, lsl sp
    7b20:	000b761a 	andeq	r7, fp, sl, lsl r6
    7b24:	0e711a00 	vaddeq.f32	s3, s2, s0
    7b28:	06000000 	streq	r0, [r0], -r0
    7b2c:	000d8004 	andeq	r8, sp, r4
    7b30:	57040600 	strpl	r0, [r4, -r0, lsl #12]
    7b34:	0600000e 	streq	r0, [r0], -lr
    7b38:	000dea04 	andeq	lr, sp, r4, lsl #20
    7b3c:	36ff0800 	ldrbtcc	r0, [pc], r0, lsl #16
    7b40:	23110000 	tstcs	r1, #0
    7b44:	00000e8e 	andeq	r0, r0, lr, lsl #29
    7b48:	0e940406 	cdpeq	4, 9, cr0, cr4, cr6, {0}
    7b4c:	011e0000 	tsteq	lr, r0
    7b50:	0000007f 	andeq	r0, r0, pc, ror r0
    7b54:	00000ea9 	andeq	r0, r0, r9, lsr #29
    7b58:	00003f1a 	andeq	r3, r0, sl, lsl pc
    7b5c:	0ea91a00 	cdpeq	10, 10, cr1, cr9, cr0, {0}
    7b60:	06000000 	streq	r0, [r0], -r0
    7b64:	000eaf04 	andeq	sl, lr, r4, lsl #30
    7b68:	363a0e00 	ldrtcc	r0, [sl], -r0, lsl #28
    7b6c:	11140000 	tstne	r4, r0
    7b70:	000f0a20 	andeq	r0, pc, r0, lsr #20
    7b74:	3c040c00 	stccc	12, cr0, [r4], {0}
    7b78:	2b110000 	blcs	447b80 <tz_ioctl+0x447934>
    7b7c:	0000003f 	andeq	r0, r0, pc, lsr r0
    7b80:	0c002302 	stceq	3, cr2, [r0], {2}
    7b84:	00003bd2 	ldrdeq	r3, [r0], -r2
    7b88:	009f2c11 	addseq	r2, pc, r1, lsl ip
    7b8c:	23020000 	movwcs	r0, #8192	; 0x2000
    7b90:	358f0c04 	strcc	r0, [pc, #3076]	; c0c <.debug_info+0xc0c>
    7b94:	2d110000 	ldccs	0, cr0, [r1]
    7b98:	0000009f 	muleq	r0, pc, r0
    7b9c:	13062302 	movwne	r2, #25346	; 0x6302
    7ba0:	00746573 	rsbseq	r6, r4, r3, ror r5
    7ba4:	0e832e11 	mcreq	14, 4, r2, cr3, cr1, {0}
    7ba8:	23020000 	movwcs	r0, #8192	; 0x2000
    7bac:	65671308 	strbvs	r1, [r7, #-776]!	; 0x308
    7bb0:	2f110074 	svccs	0x00110074
    7bb4:	00000f0a 	andeq	r0, r0, sl, lsl #30
    7bb8:	200c2302 	andcs	r2, ip, r2, lsl #6
    7bbc:	00000f30 	andeq	r0, r0, r0, lsr pc
    7bc0:	00102302 	andseq	r2, r0, r2, lsl #6
    7bc4:	003b0f08 	eorseq	r0, fp, r8, lsl #30
    7bc8:	15251100 	strne	r1, [r5, #-256]!	; 0x100
    7bcc:	0600000f 	streq	r0, [r0], -pc
    7bd0:	000f1b04 	andeq	r1, pc, r4, lsl #22
    7bd4:	7f011e00 	svcvc	0x00011e00
    7bd8:	30000000 	andcc	r0, r0, r0
    7bdc:	1a00000f 	bne	7c20 <.debug_info+0x7c20>
    7be0:	000000d2 	ldrdeq	r0, [r0], -r2
    7be4:	000ea91a 	andeq	sl, lr, sl, lsl r9
    7be8:	04210000 	strteq	r0, [r1]
    7bec:	0f5a3011 	svceq	0x005a3011
    7bf0:	61220000 	teqvs	r2, r0
    7bf4:	11006772 	tstne	r0, r2, ror r7
    7bf8:	00016131 	andeq	r6, r1, r1, lsr r1
    7bfc:	74732200 	ldrbtvc	r2, [r3], #-512	; 0x200
    7c00:	32110072 	andscc	r0, r1, #114	; 0x72
    7c04:	00000f83 	andeq	r0, r0, r3, lsl #31
    7c08:	72726122 	rsbsvc	r6, r2, #-2147483640	; 0x80000008
    7c0c:	f3331100 	vrhadd.u<illegal width 64>	d1, d3, d0
    7c10:	0000000f 	andeq	r0, r0, pc
    7c14:	00339e0e 	eorseq	r9, r3, lr, lsl #28
    7c18:	32110800 	andscc	r0, r1, #0
    7c1c:	00000f83 	andeq	r0, r0, r3, lsl #31
    7c20:	0037e60c 	eorseq	lr, r7, ip, lsl #12
    7c24:	51391100 	teqpl	r9, r0, lsl #2
    7c28:	02000000 	andeq	r0, r0, #0
    7c2c:	9d0c0023 	stcls	0, cr0, [ip, #-140]	; 0xffffff74
    7c30:	11000038 	tstne	r0, r8, lsr r0
    7c34:	0000d23a 	andeq	sp, r0, sl, lsr r2
    7c38:	04230200 	strteq	r0, [r3], #-512	; 0x200
    7c3c:	89040600 	stmdbhi	r4, {r9, sl}
    7c40:	2300000f 	movwcs	r0, #15
    7c44:	0000339e 	muleq	r0, lr, r3
    7c48:	00000f5a 	andeq	r0, r0, sl, asr pc
    7c4c:	003bf70e 	eorseq	pc, fp, lr, lsl #14
    7c50:	33111800 	tstcc	r1, #0
    7c54:	00000ff3 	strdeq	r0, [r0], -r3
    7c58:	78616d13 	stmdavc	r1!, {r0, r1, r4, r8, sl, fp, sp, lr}^
    7c5c:	51401100 	cmppl	r0, r0, lsl #2
    7c60:	02000000 	andeq	r0, r0, #0
    7c64:	6e130023 	cdpvs	0, 1, cr0, cr3, cr3, {1}
    7c68:	11006d75 	tstne	r0, r5, ror sp
    7c6c:	00100241 	andseq	r0, r0, r1, asr #4
    7c70:	04230200 	strteq	r0, [r3], #-512	; 0x200
    7c74:	74657313 	strbtvc	r7, [r5], #-787	; 0x313
    7c78:	83421100 	movthi	r1, #8448	; 0x2100
    7c7c:	0200000e 	andeq	r0, r0, #14
    7c80:	67130823 	ldrvs	r0, [r3, -r3, lsr #16]
    7c84:	11007465 	tstne	r0, r5, ror #8
    7c88:	000f0a43 	andeq	r0, pc, r3, asr #20
    7c8c:	0c230200 	sfmeq	f0, 4, [r3]	; (stceq 2, cr0, [r3])
    7c90:	0031eb0c 	eorseq	lr, r1, ip, lsl #22
    7c94:	51441100 	cmppl	r4, r0, lsl #2
    7c98:	02000000 	andeq	r0, r0, #0
    7c9c:	5e0c1023 	cdppl	0, 0, cr1, cr12, cr3, {1}
    7ca0:	1100003c 	tstne	r0, ip, lsr r0
    7ca4:	00016145 	andeq	r6, r1, r5, asr #2
    7ca8:	14230200 	strtne	r0, [r3], #-512	; 0x200
    7cac:	f9040600 	undefined instruction 0xf9040600
    7cb0:	2300000f 	movwcs	r0, #15
    7cb4:	00003bf7 	strdeq	r3, [r0], -r7
    7cb8:	00000f92 	muleq	r0, r2, pc
    7cbc:	00510406 	subseq	r0, r1, r6, lsl #8
    7cc0:	020e0000 	andeq	r0, lr, #0
    7cc4:	20000039 	andcs	r0, r0, r9, lsr r0
    7cc8:	105b1512 	subsne	r1, fp, r2, lsl r5
    7ccc:	040c0000 	streq	r0, [ip]
    7cd0:	1200003c 	andne	r0, r0, #60	; 0x3c
    7cd4:	00003f18 	andeq	r3, r0, r8, lsl pc
    7cd8:	00230200 	eoreq	r0, r3, r0, lsl #4
    7cdc:	0031bb0c 	eorseq	fp, r1, ip, lsl #22
    7ce0:	7f191200 	svcvc	0x00191200
    7ce4:	02000000 	andeq	r0, r0, #0
    7ce8:	b90c0423 	stmdblt	ip, {r0, r1, r5, sl}
    7cec:	1200003b 	andne	r0, r0, #59	; 0x3b
    7cf0:	00023d1a 	andeq	r3, r2, sl, lsl sp
    7cf4:	08230200 	stmdaeq	r3!, {r9}
    7cf8:	003adc0c 	eorseq	sp, sl, ip, lsl #24
    7cfc:	3d1b1200 	lfmcc	f1, 4, [fp]	; (ldccc 2, cr1, [fp])
    7d00:	02000002 	andeq	r0, r0, #2
    7d04:	140c0c23 	strne	r0, [ip], #-3107	; 0xc23
    7d08:	12000036 	andne	r0, r0, #54	; 0x36
    7d0c:	00105b1c 	andseq	r5, r0, ip, lsl fp
    7d10:	10230200 	eorne	r0, r3, r0, lsl #4
    7d14:	61040600 	tstvs	r4, r0, lsl #12
    7d18:	06000001 	streq	r0, [r0], -r1
    7d1c:	00100804 	andseq	r0, r0, r4, lsl #16
    7d20:	3e450e00 	cdpcc	14, 4, cr0, cr5, cr0, {0}
    7d24:	13140000 	tstne	r4, #0
    7d28:	0010ba25 	andseq	fp, r0, r5, lsr #20
    7d2c:	382e0c00 	stmdacc	lr!, {sl, fp}
    7d30:	26130000 	ldrcs	r0, [r3], -r0
    7d34:	0000105b 	andeq	r1, r0, fp, asr r0
    7d38:	0c002302 	stceq	3, cr2, [r0], {2}
    7d3c:	0000393e 	andeq	r3, r0, lr, lsr r9
    7d40:	02502713 	subseq	r2, r0, #4980736	; 0x4c0000
    7d44:	23020000 	movwcs	r0, #8192	; 0x2000
    7d48:	35fc0c04 	ldrbcc	r0, [ip, #3076]!	; 0xc04
    7d4c:	28130000 	ldmdacs	r3, {}
    7d50:	0000007f 	andeq	r0, r0, pc, ror r0
    7d54:	0c082302 	stceq	3, cr2, [r8], {2}
    7d58:	00003932 	andeq	r3, r0, r2, lsr r9
    7d5c:	00512913 	subseq	r2, r1, r3, lsl r9
    7d60:	23020000 	movwcs	r0, #8192	; 0x2000
    7d64:	3c430c0c 	mcrrcc	12, 0, r0, r3, cr12
    7d68:	2a130000 	bcs	4c7d70 <tz_ioctl+0x4c7b24>
    7d6c:	00000051 	andeq	r0, r0, r1, asr r0
    7d70:	00102302 	andseq	r2, r0, r2, lsl #6
    7d74:	003d770e 	eorseq	r7, sp, lr, lsl #14
    7d78:	30132c00 	andscc	r2, r3, r0, lsl #24
    7d7c:	0000111b 	andeq	r1, r0, fp, lsl r1
    7d80:	0032fd0c 	eorseq	pc, r2, ip, lsl #26
    7d84:	e7311300 	ldr	r1, [r1, -r0, lsl #6]!
    7d88:	02000001 	andeq	r0, r0, #1
    7d8c:	5b0c0023 	blpl	300094 <tz_ioctl+0x2ffe48>
    7d90:	13000036 	movwne	r0, #54	; 0x36
    7d94:	00002532 	andeq	r2, r0, r2, lsr r5
    7d98:	10230200 	eorne	r0, r3, r0, lsl #4
    7d9c:	00369e0c 	eorseq	r9, r6, ip, lsl #28
    7da0:	32331300 	eorscc	r1, r3, #0
    7da4:	02000001 	andeq	r0, r0, #1
    7da8:	b10c1423 	tstlt	ip, r3, lsr #8
    7dac:	13000038 	movwne	r0, #56	; 0x38
    7db0:	0001f235 	andeq	pc, r1, r5, lsr r2
    7db4:	1c230200 	sfmne	f0, 4, [r3]	; (stcne 2, cr0, [r3])
    7db8:	0035ee0c 	eorseq	lr, r5, ip, lsl #28
    7dbc:	f2361300 	vcgt.s<illegal width 64>	d1, d6, d0
    7dc0:	02000001 	andeq	r0, r0, #1
    7dc4:	8f0c2023 	svchi	0x000c2023
    7dc8:	1300003b 	movwne	r0, #59	; 0x3b
    7dcc:	00013237 	andeq	r3, r1, r7, lsr r2
    7dd0:	24230200 	strtcs	r0, [r3], #-512	; 0x200
    7dd4:	3dd80e00 	ldclcc	14, cr0, [r8]
    7dd8:	13040000 	movwne	r0, #16384	; 0x4000
    7ddc:	00113440 	andseq	r3, r1, r0, asr #8
    7de0:	00781300 	rsbseq	r1, r8, r0, lsl #6
    7de4:	00254113 	eoreq	r4, r5, r3, lsl r1
    7de8:	23020000 	movwcs	r0, #8192	; 0x2000
    7dec:	a90e0000 	stmdbge	lr, {}
    7df0:	a400003e 	strge	r0, [r0], #-62	; 0x3e
    7df4:	123d6014 	eorsne	r6, sp, #20
    7df8:	8f0c0000 	svchi	0x000c0000
    7dfc:	13000035 	movwne	r0, #53	; 0x35
    7e00:	00002549 	andeq	r2, r0, r9, asr #10
    7e04:	00230200 	eoreq	r0, r3, r0, lsl #4
    7e08:	003a4a0c 	eorseq	r4, sl, ip, lsl #20
    7e0c:	7f4a1300 	svcvc	0x004a1300
    7e10:	02000000 	andeq	r0, r0, #0
    7e14:	430c0423 	movwmi	r0, #50211	; 0xc423
    7e18:	1300003c 	movwne	r0, #60	; 0x3c
    7e1c:	00007f4b 	andeq	r7, r0, fp, asr #30
    7e20:	08230200 	stmdaeq	r3!, {r9}
    7e24:	0039320c 	eorseq	r3, r9, ip, lsl #4
    7e28:	7f4c1300 	svcvc	0x004c1300
    7e2c:	02000000 	andeq	r0, r0, #0
    7e30:	6f130c23 	svcvs	0x00130c23
    7e34:	4d13006f 	ldcmi	0, cr0, [r3, #-444]	; 0xfffffe44
    7e38:	0000111b 	andeq	r1, r0, fp, lsl r1
    7e3c:	0c102302 	ldceq	3, cr2, [r0], {2}
    7e40:	00003c28 	andeq	r3, r0, r8, lsr #24
    7e44:	10ba5313 	adcsne	r5, sl, r3, lsl r3
    7e48:	23020000 	movwcs	r0, #8192	; 0x2000
    7e4c:	616d1314 	cmnvs	sp, r4, lsl r3
    7e50:	56130078 	undefined instruction 0x56130078
    7e54:	0000111b 	andeq	r1, r0, fp, lsl r1
    7e58:	13402302 	movtne	r2, #770	; 0x302
    7e5c:	006e696d 	rsbeq	r6, lr, sp, ror #18
    7e60:	111b5713 	tstne	fp, r3, lsl r7
    7e64:	23020000 	movwcs	r0, #8192	; 0x2000
    7e68:	33df0c44 	bicscc	r0, pc, #17408	; 0x4400
    7e6c:	58130000 	ldmdapl	r3, {}
    7e70:	00000100 	andeq	r0, r0, r0, lsl #2
    7e74:	0c482302 	mcrreq	3, 0, r2, r8, cr2
    7e78:	0000384c 	andeq	r3, r0, ip, asr #16
    7e7c:	007f5913 	rsbseq	r5, pc, r3, lsl r9
    7e80:	23020000 	movwcs	r0, #8192	; 0x2000
    7e84:	32ef0c4c 	rsccc	r0, pc, #19456	; 0x4c00
    7e88:	5a130000 	bpl	4c7e90 <tz_ioctl+0x4c7c44>
    7e8c:	000006b3 	undefined instruction 0x000006b3
    7e90:	0c502302 	mrrceq	3, 0, r2, r0, cr2
    7e94:	000034e2 	andeq	r3, r0, r2, ror #9
    7e98:	007f5b13 	rsbseq	r5, pc, r3, lsl fp
    7e9c:	23020000 	movwcs	r0, #8192	; 0x2000
    7ea0:	38840c54 	stmcc	r4, {r2, r4, r6, sl, fp}
    7ea4:	5c130000 	ldcpl	0, cr0, [r3], {0}
    7ea8:	0000007f 	andeq	r0, r0, pc, ror r0
    7eac:	0c582302 	mrrceq	3, 0, r2, r8, cr2
    7eb0:	000032c5 	andeq	r3, r0, r5, asr #5
    7eb4:	00255d13 	eoreq	r5, r5, r3, lsl sp
    7eb8:	23020000 	movwcs	r0, #8192	; 0x2000
    7ebc:	3c040c5c 	stccc	12, cr0, [r4], {92}	; 0x5c
    7ec0:	5e130000 	cdppl	0, 1, cr0, cr3, cr0, {0}
    7ec4:	0000003f 	andeq	r0, r0, pc, lsr r0
    7ec8:	0c602302 	stcleq	3, cr2, [r0], #-8
    7ecc:	00003939 	andeq	r3, r0, r9, lsr r9
    7ed0:	01325f13 	teqeq	r2, r3, lsl pc
    7ed4:	23020000 	movwcs	r0, #8192	; 0x2000
    7ed8:	3b8a0c64 	blcc	fe283198 <tz_ioctl+0xfe282f4c>
    7edc:	61130000 	tstvs	r3, r0
    7ee0:	00000b7c 	andeq	r0, r0, ip, ror fp
    7ee4:	0c6c2302 	stcleq	3, cr2, [ip], #-8
    7ee8:	00003755 	andeq	r3, r0, r5, asr r7
    7eec:	10676e13 	rsbne	r6, r7, r3, lsl lr
    7ef0:	23030000 	movwcs	r0, #12288	; 0x3000
    7ef4:	0b000190 	bleq	853c <tz_ioctl+0x82f0>
    7ef8:	52161504 	andspl	r1, r6, #16777216	; 0x1000000
    7efc:	13000012 	movwne	r0, #18
    7f00:	17150061 	ldrne	r0, [r5, -r1, rrx]
    7f04:	000001f2 	strdeq	r0, [r0], -r2
    7f08:	00002302 	andeq	r2, r0, r2, lsl #6
    7f0c:	00366d08 	eorseq	r6, r6, r8, lsl #26
    7f10:	3d181500 	cfldr32cc	mvfx1, [r8]
    7f14:	0e000012 	mcreq	0, 0, r0, cr0, cr2, {0}
    7f18:	00003e59 	andeq	r3, r0, r9, asr lr
    7f1c:	e80b1624 	stmda	fp, {r2, r5, r9, sl, ip}
    7f20:	0c000012 	stceq	0, cr0, [r0], {18}
    7f24:	000031c1 	andeq	r3, r0, r1, asr #3
    7f28:	12e80d16 	rscne	r0, r8, #1408	; 0x580
    7f2c:	23020000 	movwcs	r0, #8192	; 0x2000
    7f30:	3ec80c00 	cdpcc	12, 12, cr0, cr8, cr0, {0}
    7f34:	0e160000 	cdpeq	0, 1, cr0, cr6, cr0, {0}
    7f38:	000012e8 	andeq	r1, r0, r8, ror #5
    7f3c:	0c042302 	stceq	3, cr2, [r4], {2}
    7f40:	0000388a 	andeq	r3, r0, sl, lsl #17
    7f44:	12e80f16 	rscne	r0, r8, #88	; 0x58
    7f48:	23020000 	movwcs	r0, #8192	; 0x2000
    7f4c:	31ad0c08 	undefined instruction 0x31ad0c08
    7f50:	10160000 	andsne	r0, r6, r0
    7f54:	000012e8 	andeq	r1, r0, r8, ror #5
    7f58:	0c0c2302 	stceq	3, cr2, [ip], {2}
    7f5c:	00003943 	andeq	r3, r0, r3, asr #18
    7f60:	12e81116 	rscne	r1, r8, #-2147483643	; 0x80000005
    7f64:	23020000 	movwcs	r0, #8192	; 0x2000
    7f68:	35360c10 	ldrcc	r0, [r6, #-3088]!	; 0xc10
    7f6c:	12160000 	andsne	r0, r6, #0
    7f70:	000012e8 	andeq	r1, r0, r8, ror #5
    7f74:	0c142302 	ldceq	3, cr2, [r4], {2}
    7f78:	0000329b 	muleq	r0, fp, r2
    7f7c:	12f41316 	rscsne	r1, r4, #1476395008	; 0x58000000
    7f80:	23020000 	movwcs	r0, #8192	; 0x2000
    7f84:	3d1d0c18 	ldccc	12, cr0, [sp, #-96]	; 0xffffffa0
    7f88:	14160000 	ldrne	r0, [r6]
    7f8c:	000012f4 	strdeq	r1, [r0], -r4
    7f90:	0c1c2302 	ldceq	3, cr2, [ip], {2}
    7f94:	0000391c 	andeq	r3, r0, ip, lsl r9
    7f98:	12f41516 	rscsne	r1, r4, #92274688	; 0x5800000
    7f9c:	23020000 	movwcs	r0, #8192	; 0x2000
    7fa0:	04060020 	streq	r0, [r6], #-32
    7fa4:	000007f1 	strdeq	r0, [r0], -r1
    7fa8:	0035e110 	eorseq	lr, r5, r0, lsl r1
    7fac:	04060100 	streq	r0, [r6], #-256	; 0x100
    7fb0:	000012ee 	andeq	r1, r0, lr, ror #5
    7fb4:	0039bf0e 	eorseq	fp, r9, lr, lsl #30
    7fb8:	240e0800 	strcs	r0, [lr], #-2048	; 0x800
    7fbc:	00001323 	andeq	r1, r0, r3, lsr #6
    7fc0:	0034c20c 	eorseq	ip, r4, ip, lsl #4
    7fc4:	25250e00 	strcs	r0, [r5, #-3584]!	; 0xe00
    7fc8:	02000000 	andeq	r0, r0, #0
    7fcc:	040c0023 	streq	r0, [ip], #-35	; 0x23
    7fd0:	0e00003c 	mcreq	0, 0, r0, cr0, cr12, {1}
    7fd4:	00003f26 	andeq	r3, r0, r6, lsr #30
    7fd8:	04230200 	strteq	r0, [r3], #-512	; 0x200
    7fdc:	004a0300 	subeq	r0, sl, r0, lsl #6
    7fe0:	13330000 	teqne	r3, #0
    7fe4:	3c040000 	stccc	0, cr0, [r4], {0}
    7fe8:	3b000000 	blcc	7ff0 <.debug_info+0x7ff0>
    7fec:	3d8d0e00 	stccc	14, cr0, [sp]
    7ff0:	0e200000 	cdpeq	0, 2, cr0, cr0, cr0, {0}
    7ff4:	00139431 	andseq	r9, r3, r1, lsr r4
    7ff8:	35670c00 	strbcc	r0, [r7, #-3072]!	; 0xc00
    7ffc:	320e0000 	andcc	r0, lr, #0
    8000:	000007fd 	strdeq	r0, [r0], -sp
    8004:	0c002302 	stceq	3, cr2, [r0], {2}
    8008:	000032c0 	andeq	r3, r0, r0, asr #5
    800c:	13b4330e 	undefined instruction 0x13b4330e
    8010:	23020000 	movwcs	r0, #8192	; 0x2000
    8014:	3c630c0c 	stclcc	12, cr0, [r3], #-48	; 0xffffffd0
    8018:	340e0000 	strcc	r0, [lr]
    801c:	000013d9 	ldrdeq	r1, [r0], -r9
    8020:	0c102302 	ldceq	3, cr2, [r0], {2}
    8024:	000036ea 	andeq	r3, r0, sl, ror #13
    8028:	13f0360e 	mvnsne	r3, #14680064	; 0xe00000
    802c:	23020000 	movwcs	r0, #8192	; 0x2000
    8030:	33500c14 	cmpcc	r0, #5120	; 0x1400
    8034:	370e0000 	strcc	r0, [lr, -r0]
    8038:	00001406 	andeq	r1, r0, r6, lsl #8
    803c:	0c182302 	ldceq	3, cr2, [r8], {2}
    8040:	00003d9e 	muleq	r0, lr, sp
    8044:	1418380e 	ldrne	r3, [r8], #-2062	; 0x80e
    8048:	23020000 	movwcs	r0, #8192	; 0x2000
    804c:	011e001c 	tsteq	lr, ip, lsl r0
    8050:	000000f5 	strdeq	r0, [r0], -r5
    8054:	000013ae 	andeq	r1, r0, lr, lsr #7
    8058:	0013ae1a 	andseq	sl, r3, sl, lsl lr
    805c:	0b701a00 	bleq	1c0e864 <tz_ioctl+0x1c0e618>
    8060:	d21a0000 	andsle	r0, sl, #0
    8064:	00000000 	andeq	r0, r0, r0
    8068:	13330406 	teqne	r3, #100663296	; 0x6000000
    806c:	04060000 	streq	r0, [r6]
    8070:	00001394 	muleq	r0, r4, r3
    8074:	00f5011e 	rscseq	r0, r5, lr, lsl r1
    8078:	13d90000 	bicsne	r0, r9, #0
    807c:	ae1a0000 	cdpge	0, 1, cr0, cr10, cr0, {0}
    8080:	1a000013 	bne	80d4 <.debug_info+0x80d4>
    8084:	00000b70 	andeq	r0, r0, r0, ror fp
    8088:	00003f1a 	andeq	r3, r0, sl, lsl pc
    808c:	00ea1a00 	rsceq	r1, sl, r0, lsl #20
    8090:	06000000 	streq	r0, [r0], -r0
    8094:	0013ba04 	andseq	fp, r3, r4, lsl #20
    8098:	f0011900 	undefined instruction 0xf0011900
    809c:	1a000013 	bne	80f0 <.debug_info+0x80f0>
    80a0:	00000b70 	andeq	r0, r0, r0, ror fp
    80a4:	00003f1a 	andeq	r3, r0, sl, lsl pc
    80a8:	04060000 	streq	r0, [r6]
    80ac:	000013df 	ldrdeq	r1, [r0], -pc
    80b0:	007f011e 	rsbseq	r0, pc, lr, lsl r1
    80b4:	14060000 	strne	r0, [r6]
    80b8:	701a0000 	andsvc	r0, sl, r0
    80bc:	0000000b 	andeq	r0, r0, fp
    80c0:	13f60406 	mvnsne	r0, #100663296	; 0x6000000
    80c4:	01190000 	tsteq	r9, r0
    80c8:	00001418 	andeq	r1, r0, r8, lsl r4
    80cc:	000b701a 	andeq	r7, fp, sl, lsl r0
    80d0:	04060000 	streq	r0, [r6]
    80d4:	0000140c 	andeq	r1, r0, ip, lsl #8
    80d8:	003d0e0e 	eorseq	r0, sp, lr, lsl #28
    80dc:	3c0e3000 	stccc	0, cr3, [lr], {0}
    80e0:	00001462 	andeq	r1, r0, r2, ror #8
    80e4:	003b8a0c 	eorseq	r8, fp, ip, lsl #20
    80e8:	7c3d0e00 	ldcvc	14, cr0, [sp]
    80ec:	0200000b 	andeq	r0, r0, #11
    80f0:	6d130023 	ldcvs	0, cr0, [r3, #-140]	; 0xffffff74
    80f4:	0e00646f 	cdpeq	4, 0, cr6, cr0, cr15, {3}
    80f8:	000b703e 	andeq	r7, fp, lr, lsr r0
    80fc:	24230200 	strtcs	r0, [r3], #-512	; 0x200
    8100:	003dfa0c 	eorseq	pc, sp, ip, lsl #20
    8104:	763f0e00 	ldrtvc	r0, [pc], -r0, lsl #28
    8108:	0200000b 	andeq	r0, r0, #11
    810c:	6d132823 	ldcvs	8, cr2, [r3, #-140]	; 0xffffff74
    8110:	400e0070 	andmi	r0, lr, r0, ror r0
    8114:	00001468 	andeq	r1, r0, r8, ror #8
    8118:	002c2302 	eoreq	r2, ip, r2, lsl #6
    811c:	003af110 	eorseq	pc, sl, r0, lsl r1
    8120:	04060100 	streq	r0, [r6], #-256	; 0x100
    8124:	00001462 	andeq	r1, r0, r2, ror #8
    8128:	003c1124 	eorseq	r1, ip, r4, lsr #2
    812c:	e40e0400 	str	r0, [lr], #-1024	; 0x400
    8130:	0000148d 	andeq	r1, r0, sp, lsl #9
    8134:	00307525 	eorseq	r7, r0, r5, lsr #10
    8138:	07250000 	streq	r0, [r5, -r0]!
    813c:	01000033 	tsteq	r0, r3, lsr r0
    8140:	00311c25 	eorseq	r1, r1, r5, lsr #24
    8144:	06000200 	streq	r0, [r0], -r0, lsl #4
    8148:	00149304 	andseq	r9, r4, r4, lsl #6
    814c:	39bf2300 	ldmibcc	pc!, {r8, r9, sp}
    8150:	12fa0000 	rscsne	r0, sl, #0
    8154:	04060000 	streq	r0, [r6]
    8158:	000014a2 	andeq	r1, r0, r2, lsr #9
    815c:	00002507 	andeq	r2, r0, r7, lsl #10
    8160:	32d91000 	sbcscc	r1, r9, #0
    8164:	06010000 	streq	r0, [r1], -r0
    8168:	0014a704 	andseq	sl, r4, r4, lsl #14
    816c:	46040600 	strmi	r0, [r4], -r0, lsl #12
    8170:	10000007 	andne	r0, r0, r7
    8174:	00003a66 	andeq	r3, r0, r6, ror #20
    8178:	b9040601 	stmdblt	r4, {r0, r9, sl}
    817c:	10000014 	andne	r0, r0, r4, lsl r0
    8180:	000033b8 	undefined instruction 0x000033b8
    8184:	c5040601 	strgt	r0, [r4, #-1537]	; 0x601
    8188:	06000014 	undefined instruction 0x06000014
    818c:	00003f04 	andeq	r3, r0, r4, lsl #30
    8190:	351c1000 	ldrcc	r1, [ip]
    8194:	06010000 	streq	r0, [r1], -r0
    8198:	0014d704 	andseq	sp, r4, r4, lsl #14
    819c:	45040600 	strmi	r0, [r4, #-1536]	; 0x600
    81a0:	03000002 	movweq	r0, #2
    81a4:	0000004a 	andeq	r0, r0, sl, asr #32
    81a8:	000014f9 	strdeq	r1, [r0], -r9
    81ac:	00003c04 	andeq	r3, r0, r4, lsl #24
    81b0:	26002b00 	strcs	r2, [r0], -r0, lsl #22
    81b4:	00003c33 	andeq	r3, r0, r3, lsr ip
    81b8:	150a0517 	strne	r0, [sl, #-1303]	; 0x517
    81bc:	03050000 	movweq	r0, #20480	; 0x5000
    81c0:	00000048 	andeq	r0, r0, r8, asr #32
    81c4:	0014e907 	andseq	lr, r4, r7, lsl #18
    81c8:	004a0300 	subeq	r0, sl, r0, lsl #6
    81cc:	151f0000 	ldrne	r0, [pc, #0]	; 81d4 <.debug_info+0x81d4>
    81d0:	3c040000 	stccc	0, cr0, [r4], {0}
    81d4:	08000000 	stmdaeq	r0, {}
    81d8:	368d2600 	strcc	r2, [sp], r0, lsl #12
    81dc:	11170000 	tstne	r7, r0
    81e0:	00001530 	andeq	r1, r0, r0, lsr r5
    81e4:	003c0305 	eorseq	r0, ip, r5, lsl #6
    81e8:	0f070000 	svceq	0x00070000
    81ec:	27000015 	smladcs	r0, r5, r0, r0
    81f0:	00003446 	andeq	r3, r0, r6, asr #8
    81f4:	00511d18 	subseq	r1, r1, r8, lsl sp
    81f8:	01010000 	tsteq	r1, r0
    81fc:	00007f03 	andeq	r7, r0, r3, lsl #30
    8200:	00154d00 	andseq	r4, r5, r0, lsl #26
    8204:	27002800 	strcs	r2, [r0, -r0, lsl #16]
    8208:	0000372a 	andeq	r3, r0, sl, lsr #14
    820c:	15427119 	strbne	r7, [r2, #-281]	; 0x119
    8210:	01010000 	tsteq	r1, r0
    8214:	00004a03 	andeq	r4, r0, r3, lsl #20
    8218:	00156500 	andseq	r6, r5, r0, lsl #10
    821c:	29002800 	stmdbcs	r0, {fp, sp}
    8220:	000033cb 	andeq	r3, r0, fp, asr #7
    8224:	73016619 	movwvc	r6, #5657	; 0x1619
    8228:	01000015 	tsteq	r0, r5, lsl r0
    822c:	155a0701 	ldrbne	r0, [sl, #-1793]	; 0x701
    8230:	f4270000 	vld4.8	{d0-d3}, [r7], r0
    8234:	0a000031 	beq	8300 <.debug_info+0x8300>
    8238:	00007f32 	andeq	r7, r0, r2, lsr pc
    823c:	29010100 	stmdbcs	r1, {r8}
    8240:	000038ba 	undefined instruction 0x000038ba
    8244:	0d03090a 	stceq	9, cr0, [r3, #-40]	; 0xffffffd8
    8248:	01000005 	tsteq	r0, r5
    824c:	15a20301 	strne	r0, [r2, #769]!	; 0x301
    8250:	15a20000 	strne	r0, [r2]!
    8254:	3c2a0000 	stccc	0, cr0, [sl]
    8258:	00000000 	andeq	r0, r0, r0
    825c:	06760406 	ldrbteq	r0, [r6], -r6, lsl #8
    8260:	4f290000 	svcmi	0x00290000
    8264:	0a000036 	beq	8344 <.debug_info+0x8344>
    8268:	159303de 	ldrne	r0, [r3, #990]	; 0x3de
    826c:	01010000 	tsteq	r1, r0
    8270:	00002503 	andeq	r2, r0, r3, lsl #10
    8274:	0015cc00 	andseq	ip, r5, r0, lsl #24
    8278:	003c0400 	eorseq	r0, ip, r0, lsl #8
    827c:	04200000 	strteq	r0, [r0]
    8280:	0000003c 	andeq	r0, r0, ip, lsr r0
    8284:	dc290000 	stcle	0, cr0, [r9]
    8288:	1a000031 	bne	8354 <.debug_info+0x8354>
    828c:	15da02b3 	ldrbne	r0, [sl, #691]	; 0x2b3
    8290:	01010000 	tsteq	r1, r0
    8294:	0015b607 	andseq	fp, r5, r7, lsl #12
    8298:	31512900 	cmpcc	r1, r0, lsl #18
    829c:	521b0000 	andspl	r0, fp, #0
    82a0:	00010001 	andeq	r0, r1, r1
    82a4:	27010100 	strcs	r0, [r1, -r0, lsl #2]
    82a8:	00003172 	andeq	r3, r0, r2, ror r1
    82ac:	007fed1c 	rsbseq	lr, pc, ip, lsl sp
    82b0:	01010000 	tsteq	r1, r0
    82b4:	0034cd27 	eorseq	ip, r4, r7, lsr #26
    82b8:	084f1d00 	stmdaeq	pc, {r8, sl, fp, ip}^
    82bc:	01000010 	tsteq	r0, r0, lsl r0
    82c0:	30572701 	subscc	r2, r7, r1, lsl #14
    82c4:	711d0000 	tstvc	sp, r0
    82c8:	00001008 	andeq	r1, r0, r8
    82cc:	26270101 	strtcs	r0, [r7], -r1, lsl #2
    82d0:	1d000033 	stcne	0, cr0, [r0, #-204]	; 0xffffff34
    82d4:	00100897 	mulseq	r0, r7, r8
    82d8:	27010100 	strcs	r0, [r1, -r0, lsl #2]
    82dc:	00003ab0 	undefined instruction 0x00003ab0
    82e0:	1008bd1d 	andne	fp, r8, sp, lsl sp
    82e4:	01010000 	tsteq	r1, r0
    82e8:	003a9227 	eorseq	r9, sl, r7, lsr #4
    82ec:	08d01d00 	ldmeq	r0, {r8, sl, fp, ip}^
    82f0:	01000010 	tsteq	r0, r0, lsl r0
    82f4:	356c2701 	strbcc	r2, [ip, #-1793]!	; 0x701
    82f8:	e31d0000 	tst	sp, #0
    82fc:	00001008 	andeq	r1, r0, r8
    8300:	76270101 	strtvc	r0, [r7], -r1, lsl #2
    8304:	1d00003c 	stcne	0, cr0, [r0, #-240]	; 0xffffff10
    8308:	001008f9 	undefined instruction 0x001008f9
    830c:	29010100 	stmdbcs	r1, {r8}
    8310:	0000354a 	andeq	r3, r0, sl, asr #10
    8314:	08010f1d 	stmdaeq	r1, {r0, r2, r3, r4, r8, r9, sl, fp}
    8318:	01000010 	tsteq	r0, r0, lsl r0
    831c:	30872901 	addcc	r2, r7, r1, lsl #18
    8320:	2c1d0000 	ldccs	0, cr0, [sp], {0}
    8324:	00100801 	andseq	r0, r0, r1, lsl #16
    8328:	29010100 	stmdbcs	r1, {r8}
    832c:	0000323a 	andeq	r3, r0, sl, lsr r2
    8330:	0801461d 	stmdaeq	r1, {r0, r2, r3, r4, r9, sl, lr}
    8334:	01000010 	tsteq	r0, r0, lsl r0
    8338:	3e892901 	cdpcc	9, 8, cr2, cr9, cr1, {0}
    833c:	5f1d0000 	svcpl	0x001d0000
    8340:	00100801 	andseq	r0, r0, r1, lsl #16
    8344:	29010100 	stmdbcs	r1, {r8}
    8348:	000030e3 	andeq	r3, r0, r3, ror #1
    834c:	0801851d 	stmdaeq	r1, {r0, r2, r3, r4, r8, sl, pc}
    8350:	01000010 	tsteq	r0, r0, lsl r0
    8354:	11340301 	teqne	r4, r1, lsl #6
    8358:	16ab0000 	strtne	r0, [fp], r0
    835c:	3c040000 	stccc	0, cr0, [r4], {0}
    8360:	0d000000 	stceq	0, cr0, [r0]
    8364:	33672700 	cmncc	r7, #0
    8368:	8e130000 	cdphi	0, 1, cr0, cr3, cr0, {0}
    836c:	0000169b 	muleq	r0, fp, r6
    8370:	a6270101 	strtge	r0, [r7], -r1, lsl #2
    8374:	1e000036 	mcrne	0, 0, r0, cr0, cr6, {1}
    8378:	00100823 	andseq	r0, r0, r3, lsr #16
    837c:	27010100 	strcs	r0, [r1, -r0, lsl #2]
    8380:	00003e1e 	andeq	r3, r0, lr, lsl lr
    8384:	1008341e 	andne	r3, r8, lr, lsl r4
    8388:	01010000 	tsteq	r1, r0
    838c:	00341527 	eorseq	r1, r4, r7, lsr #10
    8390:	084a1e00 	stmdaeq	sl, {r9, sl, fp, ip}^
    8394:	01000010 	tsteq	r0, r0, lsl r0
    8398:	36bf2701 	ldrtcc	r2, [pc], r1, lsl #14
    839c:	601e0000 	andsvs	r0, lr, r0
    83a0:	00001008 	andeq	r1, r0, r8
    83a4:	97270101 	strls	r0, [r7, -r1, lsl #2]!
    83a8:	1e000034 	mcrne	0, 0, r0, cr0, cr4, {1}
    83ac:	00100876 	andseq	r0, r0, r6, ror r8
    83b0:	2b010100 	blcs	487b8 <tz_ioctl+0x4856c>
    83b4:	000037a9 	andeq	r3, r0, r9, lsr #15
    83b8:	08340717 	ldmdaeq	r4!, {r0, r1, r2, r4, r8, r9, sl}
    83bc:	05010000 	streq	r0, [r1]
    83c0:	00000003 	andeq	r0, r0, r3
	...

Disassembly of section .debug_line:

00000000 <.debug_line>:
display_uuid():
/home/luojing/share/projects/2014-01-16/trustzone/tz_driver/tz_driver.c:44
   0:	0000071e 	andeq	r0, r0, lr, lsl r7
   4:	049a0002 	ldreq	r0, [sl], #2
   8:	01020000 	tsteq	r2, r0
   c:	000d0efb 	strdeq	r0, [sp], -fp
  10:	01010101 	tsteq	r1, r1, lsl #2
  14:	01000000 	tsteq	r0, r0
  18:	2f010000 	svccs	0x00010000
/home/luojing/share/projects/2014-01-16/trustzone/tz_driver/tz_driver.c:46
  1c:	656d6f68 	strbvs	r6, [sp, #-3944]!	; 0xf68
  20:	6f756c2f 	svcvs	0x00756c2f
  24:	676e696a 	strbvs	r6, [lr, -sl, ror #18]!
  28:	6168732f 	cmnvs	r8, pc, lsr #6
  2c:	702f6572 	eorvc	r6, pc, r2, ror r5
  30:	656a6f72 	strbvs	r6, [sl, #-3954]!	; 0xf72
  34:	2f737463 	svccs	0x00737463
  38:	34313032 	ldrtcc	r3, [r1], #-50	; 0x32
  3c:	2d31302d 	ldccs	0, cr3, [r1, #-180]!	; 0xffffff4c
  40:	742f3631 	strtvc	r3, [pc], #1585	; 48 <.debug_line+0x48>
  44:	74737572 	ldrbtvc	r7, [r3], #-1394	; 0x572
  48:	656e6f7a 	strbvs	r6, [lr, #-3962]!	; 0xf7a
  4c:	5f7a742f 	svcpl	0x007a742f
  50:	76697264 	strbtvc	r7, [r9], -r4, ror #4
  54:	69007265 	stmdbvs	r0, {r0, r2, r5, r6, r9, ip, sp, lr}
  58:	756c636e 	strbvc	r6, [ip, #-878]!	; 0x36e
  5c:	6c2f6564 	cfstr32vs	mvfx6, [pc], #-400	; 0xfffffe70
  60:	78756e69 	ldmdavc	r5!, {r0, r3, r5, r6, r9, sl, fp, sp, lr}^
  64:	636e6900 	cmnvs	lr, #0
  68:	6564756c 	strbvs	r7, [r4, #-1388]!	; 0x56c
  6c:	6172742f 	cmnvs	r2, pc, lsr #8
  70:	652f6563 	strvs	r6, [pc, #-1379]!	; fffffb15 <tz_ioctl+0xfffff8c9>
  74:	746e6576 	strbtvc	r6, [lr], #-1398	; 0x576
  78:	682f0073 	stmdavs	pc!, {r0, r1, r4, r5, r6}
  7c:	2f656d6f 	svccs	0x00656d6f
  80:	6a6f756c 	bvs	1bdd638 <tz_ioctl+0x1bdd3ec>
  84:	2f676e69 	svccs	0x00676e69
  88:	72616873 	rsbvc	r6, r1, #7536640	; 0x730000
  8c:	72702f65 	rsbsvc	r2, r0, #404	; 0x194
  90:	63656a6f 	cmnvs	r5, #454656	; 0x6f000
  94:	6c2f7374 	stcvs	3, cr7, [pc], #-464	; 0xfffffe30
  98:	78756e69 	ldmdavc	r5!, {r0, r3, r5, r6, r9, sl, fp, sp, lr}^
  9c:	72656b5f 	rsbvc	r6, r5, #97280	; 0x17c00
  a0:	5f6c656e 	svcpl	0x006c656e
  a4:	76703573 	undefined instruction 0x76703573
  a8:	2f303132 	svccs	0x00303132
  ac:	6e72656b 	cdpvs	5, 7, cr6, cr2, cr11, {3}
  b0:	612f6c65 	teqvs	pc, r5, ror #24
  b4:	2f686372 	svccs	0x00686372
  b8:	2f6d7261 	svccs	0x006d7261
  bc:	6c636e69 	stclvs	14, cr6, [r3], #-420	; 0xfffffe5c
  c0:	2f656475 	svccs	0x00656475
  c4:	006d7361 	rsbeq	r7, sp, r1, ror #6
  c8:	6c636e69 	stclvs	14, cr6, [r3], #-420	; 0xfffffe5c
  cc:	2f656475 	svccs	0x00656475
  d0:	2d6d7361 	stclcs	3, cr7, [sp, #-388]!	; 0xfffffe7c
/home/luojing/share/projects/2014-01-16/trustzone/tz_driver/tz_driver.c:50
  d4:	656e6567 	strbvs	r6, [lr, #-1383]!	; 0x567
  d8:	2f636972 	svccs	0x00636972
  dc:	6f746962 	svcvs	0x00746962
/home/luojing/share/projects/2014-01-16/trustzone/tz_driver/tz_driver.c:51
  e0:	69007370 	stmdbvs	r0, {r4, r5, r6, r8, r9, ip, sp, lr}
  e4:	756c636e 	strbvc	r6, [ip, #-878]!	; 0x36e
  e8:	612f6564 	teqvs	pc, r4, ror #10
  ec:	672d6d73 	undefined instruction 0x672d6d73
tz_release():
/home/luojing/share/projects/2014-01-16/trustzone/tz_driver/tz_driver.c:199
  f0:	72656e65 	rsbvc	r6, r5, #1616	; 0x650
  f4:	2f006369 	svccs	0x00006369
  f8:	656d6f68 	strbvs	r6, [sp, #-3944]!	; 0xf68
  fc:	6f756c2f 	svcvs	0x00756c2f
 100:	676e696a 	strbvs	r6, [lr, -sl, ror #18]!
 104:	6168732f 	cmnvs	r8, pc, lsr #6
 108:	702f6572 	eorvc	r6, pc, r2, ror r5
/home/luojing/share/projects/2014-01-16/trustzone/tz_driver/tz_driver.c:201
 10c:	656a6f72 	strbvs	r6, [sl, #-3954]!	; 0xf72
/home/luojing/share/projects/2014-01-16/trustzone/tz_driver/tz_driver.c:202
 110:	2f737463 	svccs	0x00737463
 114:	34313032 	ldrtcc	r3, [r1], #-50	; 0x32
 118:	2d31302d 	ldccs	0, cr3, [r1, #-180]!	; 0xffffff4c
/home/luojing/share/projects/2014-01-16/trustzone/tz_driver/tz_driver.c:203
 11c:	742f3631 	strtvc	r3, [pc], #1585	; 124 <.debug_line+0x124>
/home/luojing/share/projects/2014-01-16/trustzone/tz_driver/tz_driver.c:204
 120:	74737572 	ldrbtvc	r7, [r3], #-1394	; 0x572
 124:	656e6f7a 	strbvs	r6, [lr, #-3962]!	; 0xf7a
 128:	5f7a742f 	svcpl	0x007a742f
/home/luojing/share/projects/2014-01-16/trustzone/tz_driver/tz_driver.c:207
 12c:	76697264 	strbtvc	r7, [r9], -r4, ror #4
 130:	692f7265 	stmdbvs	pc!, {r0, r2, r5, r6, r9, ip, sp, lr}
/home/luojing/share/projects/2014-01-16/trustzone/tz_driver/tz_driver.c:210
 134:	756c636e 	strbvc	r6, [ip, #-878]!	; 0x36e
 138:	00006564 	andeq	r6, r0, r4, ror #10
 13c:	645f7a74 	ldrbvs	r7, [pc], #2676	; 144 <.debug_line+0x144>
 140:	65766972 	ldrbvs	r6, [r6, #-2418]!	; 0x972
tz_open():
/home/luojing/share/projects/2014-01-16/trustzone/tz_driver/tz_driver.c:213
 144:	00632e72 	rsbeq	r2, r3, r2, ror lr
 148:	73000001 	movwvc	r0, #1
 14c:	5f62756c 	svcpl	0x0062756c
 150:	2e666564 	cdpcs	5, 6, cr6, cr6, cr4, {3}
 154:	00020068 	andeq	r0, r2, r8, rrx
 158:	656d6b00 	strbvs	r6, [sp, #-2816]!	; 0xb00
kmem_cache_alloc_notrace():
 15c:	00682e6d 	rsbeq	r2, r8, sp, ror #28
tz_open():
 160:	74000003 	strvc	r0, [r0], #-3
kmem_cache_alloc_notrace():
/home/luojing/share/projects/linux_kernel_s5pv210/kernel/include/linux/slub_def.h:226
 164:	61657268 	cmnvs	r5, r8, ror #4
 168:	6e695f64 	cdpvs	15, 6, cr5, cr9, cr4, {3}
trace_kmalloc():
/home/luojing/share/projects/linux_kernel_s5pv210/kernel/include/trace/events/kmem.h:47
 16c:	682e6f66 	stmdavs	lr!, {r1, r2, r5, r6, r8, r9, sl, fp, sp, lr}
kmalloc():
/home/luojing/share/projects/linux_kernel_s5pv210/kernel/include/linux/slub_def.h:257
 170:	00000400 	andeq	r0, r0, r0, lsl #8
 174:	70756372 	rsbsvc	r6, r5, r2, ror r3
trace_kmalloc():
/home/luojing/share/projects/linux_kernel_s5pv210/kernel/include/trace/events/kmem.h:47
 178:	65746164 	ldrbvs	r6, [r4, #-356]!	; 0x164
kmalloc():
/home/luojing/share/projects/linux_kernel_s5pv210/kernel/include/linux/slub_def.h:257
 17c:	0200682e 	andeq	r6, r0, #3014656	; 0x2e0000
trace_kmalloc():
/home/luojing/share/projects/linux_kernel_s5pv210/kernel/include/trace/events/kmem.h:47
 180:	6f6e0000 	svcvs	0x006e0000
kmem_cache_alloc_notrace():
/home/luojing/share/projects/linux_kernel_s5pv210/kernel/include/linux/slub_def.h:226
 184:	74612d6e 	strbtvc	r2, [r1], #-3438	; 0xd6e
trace_kmalloc():
/home/luojing/share/projects/linux_kernel_s5pv210/kernel/include/trace/events/kmem.h:47
 188:	63696d6f 	cmnvs	r9, #7104	; 0x1bc0
current_thread_info():
/home/luojing/share/projects/linux_kernel_s5pv210/kernel/arch/arm/include/asm/thread_info.h:97
 18c:	0500682e 	streq	r6, [r0, #-2094]	; 0x82e
 190:	61750000 	cmnvs	r5, r0
 194:	73656363 	cmnvc	r5, #-1946157055	; 0x8c000001
rcu_read_lock_sched_notrace():
/home/luojing/share/projects/linux_kernel_s5pv210/kernel/include/linux/rcupdate.h:203
 198:	00682e73 	rsbeq	r2, r8, r3, ror lr
 19c:	69000004 	stmdbvs	r0, {r2}
 1a0:	2e74696e 	cdpcs	9, 7, cr6, cr4, cr14, {3}
trace_kmalloc():
/home/luojing/share/projects/linux_kernel_s5pv210/kernel/include/trace/events/kmem.h:47
 1a4:	00020068 	andeq	r0, r2, r8, rrx
 1a8:	746e6900 	strbtvc	r6, [lr], #-2304	; 0x900
 1ac:	366c6c2d 	strbtcc	r6, [ip], -sp, lsr #24
 1b0:	00682e34 	rsbeq	r2, r8, r4, lsr lr
 1b4:	74000006 	strvc	r0, [r0], #-6
 1b8:	73657079 	cmnvc	r5, #121	; 0x79
 1bc:	0400682e 	streq	r6, [r0], #-2094	; 0x82e
 1c0:	6f700000 	svcvs	0x00700000
 1c4:	5f786973 	svcpl	0x00786973
 1c8:	65707974 	ldrbvs	r7, [r0, #-2420]!	; 0x974
 1cc:	00682e73 	rsbeq	r2, r8, r3, ror lr
 1d0:	74000004 	strvc	r0, [r0], #-4
 1d4:	73657079 	cmnvc	r5, #121	; 0x79
 1d8:	0200682e 	andeq	r6, r0, #3014656	; 0x2e0000
current_thread_info():
/home/luojing/share/projects/linux_kernel_s5pv210/kernel/include/linux/rcupdate.h:223
 1dc:	696c0000 	stmdbvs	ip!, {}^
 1e0:	682e7473 	stmdavs	lr!, {r0, r1, r4, r5, r6, sl, ip, sp, lr}
 1e4:	00000200 	andeq	r0, r0, r0, lsl #4
rcu_read_unlock_sched_notrace():
 1e8:	65726874 	ldrbvs	r6, [r2, #-2164]!	; 0x874
 1ec:	695f6461 	ldmdbvs	pc, {r0, r5, r6, sl, sp, lr}^
 1f0:	2e6f666e 	cdpcs	6, 6, cr6, cr15, cr14, {3}
test_bit():
/home/luojing/share/projects/linux_kernel_s5pv210/kernel/include/asm-generic/bitops/non-atomic.h:105
 1f4:	00020068 	andeq	r0, r2, r8, rrx
rcu_read_unlock_sched_notrace():
/home/luojing/share/projects/linux_kernel_s5pv210/kernel/include/linux/rcupdate.h:223
 1f8:	6d697400 	cfstrdvs	mvd7, [r9]
 1fc:	00682e65 	rsbeq	r2, r8, r5, ror #28
 200:	66000002 	strvs	r0, [r0], -r2
tz_open():
/home/luojing/share/projects/2014-01-16/trustzone/tz_driver/tz_driver.c:220
 204:	61747370 	cmnvs	r4, r0, ror r3
 208:	682e6574 	stmdavs	lr!, {r2, r4, r5, r6, r8, sl, sp, lr}
 20c:	00000400 	andeq	r0, r0, r0, lsl #8
/home/luojing/share/projects/2014-01-16/trustzone/tz_driver/tz_driver.c:221
 210:	74737973 	ldrbtvc	r7, [r3], #-2419	; 0x973
 214:	682e6d65 	stmdavs	lr!, {r0, r2, r5, r6, r8, sl, fp, sp, lr}
/home/luojing/share/projects/2014-01-16/trustzone/tz_driver/tz_driver.c:222
 218:	00000400 	andeq	r0, r0, r0, lsl #8
/home/luojing/share/projects/2014-01-16/trustzone/tz_driver/tz_driver.c:223
 21c:	6e697073 	mcrvs	0, 3, r7, cr9, cr3, {3}
 220:	6b636f6c 	blvs	18dbfd8 <tz_ioctl+0x18dbd8c>
/home/luojing/share/projects/2014-01-16/trustzone/tz_driver/tz_driver.c:224
 224:	7079745f 	rsbsvc	r7, r9, pc, asr r4
 228:	755f7365 	ldrbvc	r7, [pc, #-869]	; fffffecb <tz_ioctl+0xfffffc7f>
/home/luojing/share/projects/2014-01-16/trustzone/tz_driver/tz_driver.c:226
 22c:	00682e70 	rsbeq	r2, r8, r0, ror lr
 230:	73000002 	movwvc	r0, #2
 234:	6c6e6970 	stclvs	9, cr6, [lr], #-448	; 0xfffffe40
 238:	5f6b636f 	svcpl	0x006b636f
 23c:	65707974 	ldrbvs	r7, [r0, #-2420]!	; 0x974
 240:	00682e73 	rsbeq	r2, r8, r3, ror lr
 244:	61000002 	tstvs	r0, r2
 248:	696d6f74 	stmdbvs	sp!, {r2, r4, r5, r6, r8, r9, sl, fp, sp, lr}^
tz_ioctl():
/home/luojing/share/projects/2014-01-16/trustzone/tz_driver/tz_driver.c:228
 24c:	6f6c2d63 	svcvs	0x006c2d63
 250:	682e676e 	stmdavs	lr!, {r1, r2, r3, r5, r6, r8, r9, sl, sp, lr}
 254:	00000600 	andeq	r0, r0, r0, lsl #12
 258:	74617473 	strbtvc	r7, [r1], #-1139	; 0x473
 25c:	0200682e 	andeq	r6, r0, #3014656	; 0x2e0000
 260:	61770000 	cmnvs	r7, r0
 264:	682e7469 	stmdavs	lr!, {r0, r3, r5, r6, sl, ip, sp, lr}
 268:	00000200 	andeq	r0, r0, r0, lsl #4
/home/luojing/share/projects/2014-01-16/trustzone/tz_driver/tz_driver.c:230
 26c:	6f7a6d6d 	svcvs	0x007a6d6d
/home/luojing/share/projects/2014-01-16/trustzone/tz_driver/tz_driver.c:228
 270:	682e656e 	stmdavs	lr!, {r1, r2, r3, r5, r6, r8, sl, sp, lr}
/home/luojing/share/projects/2014-01-16/trustzone/tz_driver/tz_driver.c:232
 274:	00000200 	andeq	r0, r0, r0, lsl #4
/home/luojing/share/projects/2014-01-16/trustzone/tz_driver/tz_driver.c:231
 278:	6574756d 	ldrbvs	r7, [r4, #-1389]!	; 0x56d
/home/luojing/share/projects/2014-01-16/trustzone/tz_driver/tz_driver.c:235
 27c:	00682e78 	rsbeq	r2, r8, r8, ror lr
 280:	72000002 	andvc	r0, r0, #2
/home/luojing/share/projects/2014-01-16/trustzone/tz_driver/tz_driver.c:236
 284:	6d657377 	stclvs	3, cr7, [r5, #-476]!	; 0xfffffe24
/home/luojing/share/projects/2014-01-16/trustzone/tz_driver/tz_driver.c:235
 288:	0200682e 	andeq	r6, r0, #3014656	; 0x2e0000
/home/luojing/share/projects/2014-01-16/trustzone/tz_driver/tz_driver.c:240
 28c:	77720000 	ldrbvc	r0, [r2, -r0]!
 290:	2d6d6573 	cfstr64cs	mvdx6, [sp, #-460]!	; 0xfffffe34
 294:	6e697073 	mcrvs	0, 3, r7, cr9, cr3, {3}
 298:	6b636f6c 	blvs	18dc050 <tz_ioctl+0x18dbe04>
 29c:	0200682e 	andeq	r6, r0, #3014656	; 0x2e0000
 2a0:	656d0000 	strbvs	r0, [sp]!
 2a4:	79726f6d 	ldmdbvc	r2!, {r0, r2, r3, r5, r6, r8, r9, sl, fp, sp, lr}^
 2a8:	746f685f 	strbtvc	r6, [pc], #2143	; 2b0 <.debug_line+0x2b0>
 2ac:	67756c70 	undefined instruction 0x67756c70
/home/luojing/share/projects/2014-01-16/trustzone/tz_driver/tz_driver.c:257
 2b0:	0200682e 	andeq	r6, r0, #3014656	; 0x2e0000
/home/luojing/share/projects/2014-01-16/trustzone/tz_driver/tz_driver.c:240
 2b4:	6c650000 	stclvs	0, cr0, [r5]
 2b8:	00682e66 	rsbeq	r2, r8, r6, ror #28
copy_from_user():
/home/luojing/share/projects/linux_kernel_s5pv210/kernel/arch/arm/include/asm/uaccess.h:406
 2bc:	73000002 	movwvc	r0, #2
 2c0:	73667379 	cmnvc	r6, #-469762047	; 0xe4000001
tz_ioctl():
/home/luojing/share/projects/2014-01-16/trustzone/tz_driver/tz_driver.c:242
 2c4:	0200682e 	andeq	r6, r0, #3014656	; 0x2e0000
open_session():
/home/luojing/share/projects/linux_kernel_s5pv210/kernel/arch/arm/include/asm/uaccess.h:406
 2c8:	6f6d0000 	svcvs	0x006d0000
tz_ioctl():
/home/luojing/share/projects/2014-01-16/trustzone/tz_driver/tz_driver.c:242
 2cc:	656c7564 	strbvs	r7, [ip, #-1380]!	; 0x564
open_session():
/home/luojing/share/projects/2014-01-16/trustzone/tz_driver/tz_driver.c:90
 2d0:	0200682e 	andeq	r6, r0, #3014656	; 0x2e0000
 2d4:	6f6b0000 	svcvs	0x006b0000
 2d8:	63656a62 	cmnvs	r5, #401408	; 0x62000
 2dc:	00682e74 	rsbeq	r2, r8, r4, ror lr
copy_from_user():
/home/luojing/share/projects/linux_kernel_s5pv210/kernel/arch/arm/include/asm/uaccess.h:406
 2e0:	6b000002 	blvs	2f0 <.debug_line+0x2f0>
 2e4:	2e666572 	mcrcs	5, 3, r6, cr6, cr2, {3}
 2e8:	00020068 	andeq	r0, r2, r8, rrx
 2ec:	646f6d00 	strbtvs	r6, [pc], #3328	; 2f4 <.debug_line+0x2f4>
 2f0:	70656c75 	rsbvc	r6, r5, r5, ror ip
 2f4:	6d617261 	sfmvs	f7, 2, [r1, #-388]!	; (stclvs 2, cr7, [r1, #-388]!)	; 0xfffffe7c
 2f8:	0200682e 	andeq	r6, r0, #3014656	; 0x2e0000
/home/luojing/share/projects/linux_kernel_s5pv210/kernel/arch/arm/include/asm/uaccess.h:407
 2fc:	72740000 	rsbsvc	r0, r4, #0
 300:	70656361 	rsbvc	r6, r5, r1, ror #6
 304:	746e696f 	strbtvc	r6, [lr], #-2415	; 0x96f
open_session():
/home/luojing/share/projects/2014-01-16/trustzone/tz_driver/tz_driver.c:92
 308:	0200682e 	andeq	r6, r0, #3014656	; 0x2e0000
 30c:	6c730000 	ldclvs	0, cr0, [r3]
 310:	682e6261 	stmdavs	lr!, {r0, r5, r6, r9, sp, lr}
copy_from_user():
/home/luojing/share/projects/linux_kernel_s5pv210/kernel/arch/arm/include/asm/uaccess.h:409
 314:	00000200 	andeq	r0, r0, r0, lsl #4
 318:	61636f6c 	cmnvs	r3, ip, ror #30
open_session():
/home/luojing/share/projects/2014-01-16/trustzone/tz_driver/tz_driver.c:96
 31c:	00682e6c 	rsbeq	r2, r8, ip, ror #28
 320:	6d000006 	stcvs	0, cr0, [r0, #-24]	; 0xffffffe8
 324:	6c75646f 	cfldrdvs	mvd6, [r5], #-444	; 0xfffffe44
/home/luojing/share/projects/2014-01-16/trustzone/tz_driver/tz_driver.c:99
 328:	00682e65 	rsbeq	r2, r8, r5, ror #28
 32c:	64000004 	strvs	r0, [r0], #-4
 330:	68636163 	stmdavs	r3!, {r0, r1, r5, r6, r8, sp, lr}^
 334:	00682e65 	rsbeq	r2, r8, r5, ror #28
copy_from_user():
/home/luojing/share/projects/linux_kernel_s5pv210/kernel/arch/arm/include/asm/uaccess.h:406
 338:	66000002 	strvs	r0, [r0], -r2
open_session():
/home/luojing/share/projects/2014-01-16/trustzone/tz_driver/tz_driver.c:101
 33c:	00682e73 	rsbeq	r2, r8, r3, ror lr
 340:	70000002 	andvc	r0, r0, r2
copy_from_user():
/home/luojing/share/projects/linux_kernel_s5pv210/kernel/arch/arm/include/asm/uaccess.h:406
 344:	2e687461 	cdpcs	4, 6, cr7, cr8, cr1, {3}
 348:	00020068 	andeq	r0, r2, r8, rrx
 34c:	64617200 	strbtvs	r7, [r1], #-512	; 0x200
 350:	742d7869 	strtvc	r7, [sp], #-2153	; 0x869
 354:	2e656572 	mcrcs	5, 3, r6, cr5, cr2, {3}
/home/luojing/share/projects/linux_kernel_s5pv210/kernel/arch/arm/include/asm/uaccess.h:407
 358:	00020068 	andeq	r0, r2, r8, rrx
 35c:	69727000 	ldmdbvs	r2!, {ip, sp, lr}^
open_session():
/home/luojing/share/projects/2014-01-16/trustzone/tz_driver/tz_driver.c:100
 360:	72745f6f 	rsbsvc	r5, r4, #444	; 0x1bc
 364:	682e6565 	stmdavs	lr!, {r0, r2, r5, r6, r8, sl, sp, lr}
 368:	00000200 	andeq	r0, r0, r0, lsl #4
copy_from_user():
/home/luojing/share/projects/linux_kernel_s5pv210/kernel/arch/arm/include/asm/uaccess.h:409
 36c:	2e646970 	mcrcs	9, 3, r6, cr4, cr0, {3}
 370:	00020068 	andeq	r0, r2, r8, rrx
open_session():
/home/luojing/share/projects/2014-01-16/trustzone/tz_driver/tz_driver.c:104
 374:	6d657300 	stclvs	3, cr7, [r5]
 378:	6f687061 	svcvs	0x00687061
 37c:	682e6572 	stmdavs	lr!, {r1, r4, r5, r6, r8, sl, sp, lr}
 380:	00000200 	andeq	r0, r0, r0, lsl #4
 384:	6d656966 	stclvs	9, cr6, [r5, #-408]!	; 0xfffffe68
 388:	682e7061 	stmdavs	lr!, {r0, r5, r6, ip, sp, lr}
/home/luojing/share/projects/2014-01-16/trustzone/tz_driver/tz_driver.c:107
 38c:	00000200 	andeq	r0, r0, r0, lsl #4
 390:	646f6d6b 	strbtvs	r6, [pc], #3435	; 398 <.debug_line+0x398>
 394:	0200682e 	andeq	r6, r0, #3014656	; 0x2e0000
 398:	75710000 	ldrbvc	r0, [r1]!
/home/luojing/share/projects/2014-01-16/trustzone/tz_driver/tz_driver.c:111
 39c:	2e61746f 	cdpcs	4, 6, cr7, cr1, cr15, {3}
 3a0:	00020068 	andeq	r0, r2, r8, rrx
 3a4:	62716400 	rsbsvs	r6, r1, #0
 3a8:	785f6b6c 	ldmdavc	pc, {r2, r3, r5, r6, r8, r9, fp, sp, lr}^
/home/luojing/share/projects/2014-01-16/trustzone/tz_driver/tz_driver.c:112
 3ac:	682e7366 	stmdavs	lr!, {r1, r2, r5, r6, r8, r9, ip, sp, lr}
 3b0:	00000200 	andeq	r0, r0, r0, lsl #4
 3b4:	6c627164 	stfvse	f7, [r2], #-400	; 0xfffffe70
/home/luojing/share/projects/2014-01-16/trustzone/tz_driver/tz_driver.c:117
 3b8:	74715f6b 	ldrbtvc	r5, [r1], #-3947	; 0xf6b
 3bc:	2e656572 	mcrcs	5, 3, r6, cr5, cr2, {3}
 3c0:	00020068 	andeq	r0, r2, r8, rrx
 3c4:	65646300 	strbvs	r6, [r4, #-768]!	; 0x300
 3c8:	00682e76 	rsbeq	r2, r8, r6, ror lr
 3cc:	6e000002 	cdpvs	0, 0, cr0, cr0, cr2, {0}
/home/luojing/share/projects/2014-01-16/trustzone/tz_driver/tz_driver.c:120
 3d0:	665f7366 	ldrbvs	r7, [pc], -r6, ror #6
 3d4:	2e695f73 	mcrcs	15, 3, r5, cr9, cr3, {3}
 3d8:	00020068 	andeq	r0, r2, r8, rrx
 3dc:	706f6900 	rsbvc	r6, pc, r0, lsl #18
kmem_cache_alloc_notrace():
/home/luojing/share/projects/linux_kernel_s5pv210/kernel/include/linux/slub_def.h:226
 3e0:	2e74726f 	cdpcs	2, 7, cr7, cr4, cr15, {3}
 3e4:	00020068 	andeq	r0, r2, r8, rrx
 3e8:	696c6b00 	stmdbvs	ip!, {r8, r9, fp, sp, lr}^
trace_kmalloc():
/home/luojing/share/projects/linux_kernel_s5pv210/kernel/include/trace/events/kmem.h:47
 3ec:	682e7473 	stmdavs	lr!, {r0, r1, r4, r5, r6, sl, ip, sp, lr}
kmalloc():
/home/luojing/share/projects/linux_kernel_s5pv210/kernel/include/linux/slub_def.h:257
 3f0:	00000200 	andeq	r0, r0, r0, lsl #4
 3f4:	682e6d70 	stmdavs	lr!, {r4, r5, r6, r8, sl, fp, sp, lr}
trace_kmalloc():
/home/luojing/share/projects/linux_kernel_s5pv210/kernel/include/trace/events/kmem.h:47
 3f8:	00000200 	andeq	r0, r0, r0, lsl #4
kmalloc():
/home/luojing/share/projects/linux_kernel_s5pv210/kernel/include/linux/slub_def.h:257
 3fc:	69766564 	ldmdbvs	r6!, {r2, r5, r6, r8, sl, sp, lr}^
trace_kmalloc():
/home/luojing/share/projects/linux_kernel_s5pv210/kernel/include/trace/events/kmem.h:47
 400:	682e6563 	stmdavs	lr!, {r0, r1, r5, r6, r8, sl, sp, lr}
kmem_cache_alloc_notrace():
/home/luojing/share/projects/linux_kernel_s5pv210/kernel/include/linux/slub_def.h:226
 404:	00000200 	andeq	r0, r0, r0, lsl #4
trace_kmalloc():
/home/luojing/share/projects/linux_kernel_s5pv210/kernel/include/trace/events/kmem.h:47
 408:	6b636f6c 	blvs	18dc1c0 <tz_ioctl+0x18dbf74>
rcu_read_lock_sched_notrace():
/home/luojing/share/projects/linux_kernel_s5pv210/kernel/include/linux/rcupdate.h:203
 40c:	2e706564 	cdpcs	5, 7, cr6, cr0, cr4, {3}
 410:	00020068 	andeq	r0, r2, r8, rrx
 414:	76656400 	strbtvc	r6, [r5], -r0, lsl #8
trace_kmalloc():
/home/luojing/share/projects/linux_kernel_s5pv210/kernel/include/trace/events/kmem.h:47
 418:	2e656369 	cdpcs	3, 6, cr6, cr5, cr9, {3}
 41c:	00040068 	andeq	r0, r4, r8, rrx
 420:	5f7a7400 	svcpl	0x007a7400
 424:	65707974 	ldrbvs	r7, [r0, #-2420]!	; 0x974
 428:	00682e73 	rsbeq	r2, r8, r3, ror lr
 42c:	65000007 	strvs	r0, [r0, #-7]
 430:	682e7272 	stmdavs	lr!, {r1, r4, r5, r6, r9, ip, sp, lr}
 434:	00000200 	andeq	r0, r0, r0, lsl #4
 438:	6f746567 	svcvs	0x00746567
 43c:	72656472 	rsbvc	r6, r5, #1912602624	; 0x72000000
 440:	0600682e 	streq	r6, [r0], -lr, lsr #16
 444:	6d6b0000 	stclvs	0, cr0, [fp]
 448:	656c6d65 	strbvs	r6, [ip, #-3429]!	; 0xd65
 44c:	682e6b61 	stmdavs	lr!, {r0, r5, r6, r8, r9, fp, sp, lr}
current_thread_info():
/home/luojing/share/projects/linux_kernel_s5pv210/kernel/include/linux/rcupdate.h:223
 450:	00000200 	andeq	r0, r0, r0, lsl #4
 454:	61637768 	cmnvs	r3, r8, ror #14
 458:	00682e70 	rsbeq	r2, r8, r0, ror lr
rcu_read_unlock_sched_notrace():
 45c:	6b000004 	blvs	474 <.debug_line+0x474>
 460:	656e7265 	strbvs	r7, [lr, #-613]!	; 0x265
 464:	00682e6c 	rsbeq	r2, r8, ip, ror #28
test_bit():
/home/luojing/share/projects/linux_kernel_s5pv210/kernel/include/asm-generic/bitops/non-atomic.h:105
 468:	63000002 	movwvs	r0, #2
rcu_read_unlock_sched_notrace():
/home/luojing/share/projects/linux_kernel_s5pv210/kernel/include/linux/rcupdate.h:223
 46c:	616d7570 	smcvs	55120	; 0xd750
 470:	682e6b73 	stmdavs	lr!, {r0, r1, r4, r5, r6, r8, r9, fp, sp, lr}
 474:	00000200 	andeq	r0, r0, r0, lsl #4
copy_from_user():
/home/luojing/share/projects/linux_kernel_s5pv210/kernel/arch/arm/include/asm/uaccess.h:406
 478:	2e706667 	cdpcs	6, 7, cr6, cr0, cr7, {3}
 47c:	00020068 	andeq	r0, r2, r8, rrx
 480:	6d697400 	cfstrdvs	mvd7, [r9]
open_session():
/home/luojing/share/projects/2014-01-16/trustzone/tz_driver/tz_driver.c:122
 484:	682e7865 	stmdavs	lr!, {r0, r2, r5, r6, fp, ip, sp, lr}
 488:	00000200 	andeq	r0, r0, r0, lsl #4
 48c:	75646f6d 	strbvc	r6, [r4, #-3949]!	; 0xf6d
/home/luojing/share/projects/2014-01-16/trustzone/tz_driver/tz_driver.c:127
 490:	682e656c 	stmdavs	lr!, {r2, r3, r5, r6, r8, sl, sp, lr}
copy_from_user():
/home/luojing/share/projects/linux_kernel_s5pv210/kernel/arch/arm/include/asm/uaccess.h:406
 494:	00000300 	andeq	r0, r0, r0, lsl #6
open_session():
/home/luojing/share/projects/2014-01-16/trustzone/tz_driver/tz_driver.c:127
 498:	74636f69 	strbtvc	r6, [r3], #-3945	; 0xf69
copy_from_user():
/home/luojing/share/projects/linux_kernel_s5pv210/kernel/arch/arm/include/asm/uaccess.h:406
 49c:	00682e6c 	rsbeq	r2, r8, ip, ror #28
 4a0:	00000006 	andeq	r0, r0, r6
 4a4:	00020500 	andeq	r0, r2, r0, lsl #10
 4a8:	03000000 	movweq	r0, #0
 4ac:	9e0102c5 	cdpls	2, 0, cr0, cr1, cr5, {6}
/home/luojing/share/projects/linux_kernel_s5pv210/kernel/arch/arm/include/asm/uaccess.h:407
 4b0:	2b4e2d14 	blcs	138b908 <tz_ioctl+0x138b6bc>
 4b4:	4b674b4b 	blmi	19d31e8 <tz_ioctl+0x19d2f9c>
open_session():
/home/luojing/share/projects/2014-01-16/trustzone/tz_driver/tz_driver.c:127
 4b8:	4b674b4b 	blmi	19d31ec <tz_ioctl+0x19d2fa0>
 4bc:	01000a02 	tsteq	r0, r2, lsl #20
 4c0:	02050001 	andeq	r0, r5, #1
copy_from_user():
/home/luojing/share/projects/linux_kernel_s5pv210/kernel/arch/arm/include/asm/uaccess.h:409
 4c4:	00000000 	andeq	r0, r0, r0
 4c8:	ba012b03 	blt	4b0dc <tz_ioctl+0x4ae90>
open_session():
/home/luojing/share/projects/2014-01-16/trustzone/tz_driver/tz_driver.c:130
 4cc:	165c0230 	undefined instruction 0x165c0230
 4d0:	01940367 	orrseq	r0, r4, r7, ror #6
 4d4:	2c149e82 	ldccs	14, cr9, [r4], {130}	; 0x82
/home/luojing/share/projects/2014-01-16/trustzone/tz_driver/tz_driver.c:131
 4d8:	2f672f30 	svccs	0x00672f30
/home/luojing/share/projects/2014-01-16/trustzone/tz_driver/tz_driver.c:130
 4dc:	ba854d69 	blt	fe153a88 <tz_ioctl+0xfe15383c>
/home/luojing/share/projects/2014-01-16/trustzone/tz_driver/tz_driver.c:131
 4e0:	0d030204 	sfmeq	f0, 4, [r3, #-16]	; (stceq 2, cr0, [r3, #-16])
 4e4:	03010401 	movweq	r0, #5121	; 0x1401
 4e8:	02042e73 	andeq	r2, r4, #1840	; 0x730
kmalloc():
/home/luojing/share/projects/linux_kernel_s5pv210/kernel/include/linux/slub_def.h:262
 4ec:	042e0d03 	strteq	r0, [lr], #-3331	; 0xd03
 4f0:	7ecd0303 	cdpvc	3, 12, cr0, cr13, cr3, {0}
 4f4:	0302044a 	movweq	r0, #9290	; 0x244a
open_session():
/home/luojing/share/projects/2014-01-16/trustzone/tz_driver/tz_driver.c:138
 4f8:	042e01d2 	strteq	r0, [lr], #-466	; 0x1d2
/home/luojing/share/projects/2014-01-16/trustzone/tz_driver/tz_driver.c:134
 4fc:	7eae0303 	cdpvc	3, 10, cr0, cr14, cr3, {0}
/home/luojing/share/projects/2014-01-16/trustzone/tz_driver/tz_driver.c:137
 500:	0302044a 	movweq	r0, #9290	; 0x244a
copy_from_user():
/home/luojing/share/projects/linux_kernel_s5pv210/kernel/arch/arm/include/asm/uaccess.h:406
 504:	042e01d2 	strteq	r0, [lr], #-466	; 0x1d2
 508:	7eae0303 	cdpvc	3, 10, cr0, cr14, cr3, {0}
 50c:	0302042e 	movweq	r0, #9262	; 0x242e
 510:	042e01b3 	strteq	r0, [lr], #-435	; 0x1b3
 514:	7ecd0303 	cdpvc	3, 12, cr0, cr13, cr3, {0}
 518:	0304042e 	movweq	r0, #17454	; 0x442e
/home/luojing/share/projects/linux_kernel_s5pv210/kernel/arch/arm/include/asm/uaccess.h:407
 51c:	05042e32 	streq	r2, [r4, #-3634]	; 0xe32
open_session():
/home/luojing/share/projects/2014-01-16/trustzone/tz_driver/tz_driver.c:136
 520:	6600ea03 	strvs	lr, [r0], -r3, lsl #20
 524:	e4030304 	str	r0, [r3], #-772	; 0x304
 528:	0504667e 	streq	r6, [r4, #-1662]	; 0x67e
copy_from_user():
/home/luojing/share/projects/linux_kernel_s5pv210/kernel/arch/arm/include/asm/uaccess.h:409
 52c:	0801b003 	stmdaeq	r1, {r0, r1, ip, sp, pc}
 530:	030404ac 	movweq	r0, #17580	; 0x44ac
 534:	04017f82 	streq	r7, [r1], #-3970	; 0xf82
 538:	00fe0305 	rscseq	r0, lr, r5, lsl #6
open_session():
/home/luojing/share/projects/2014-01-16/trustzone/tz_driver/tz_driver.c:139
 53c:	03060466 	movweq	r0, #25702	; 0x6466
 540:	04667f8a 	strbteq	r7, [r6], #-3978	; 0xf8a
 544:	00f60305 	rscseq	r0, r6, r5, lsl #6
/home/luojing/share/projects/2014-01-16/trustzone/tz_driver/tz_driver.c:144
 548:	6301042e 	movwvs	r0, #5166	; 0x142e
 54c:	4b2f4b67 	blmi	bd32f0 <tz_ioctl+0xbd30a4>
 550:	15baf44c 	ldrne	pc, [sl, #1100]!	; 0x44c
 554:	2d322c49 	ldccs	12, cr2, [r2, #-292]!	; 0xfffffedc
/home/luojing/share/projects/2014-01-16/trustzone/tz_driver/tz_driver.c:146
 558:	332d4b32 	teqcc	sp, #51200	; 0xc800
/home/luojing/share/projects/2014-01-16/trustzone/tz_driver/tz_driver.c:147
 55c:	20081103 	andcs	r1, r8, r3, lsl #2
 560:	042e6f03 	strteq	r6, [lr], #-3843	; 0xf03
/home/luojing/share/projects/2014-01-16/trustzone/tz_driver/tz_driver.c:150
 564:	01a60307 	undefined instruction 0x01a60307
/home/luojing/share/projects/2014-01-16/trustzone/tz_driver/tz_driver.c:153
 568:	0301044a 	movweq	r0, #5194	; 0x144a
/home/luojing/share/projects/2014-01-16/trustzone/tz_driver/tz_driver.c:158
 56c:	044a7edc 	strbeq	r7, [sl], #-3804	; 0xedc
/home/luojing/share/projects/2014-01-16/trustzone/tz_driver/tz_driver.c:153
 570:	01a40307 	undefined instruction 0x01a40307
/home/luojing/share/projects/2014-01-16/trustzone/tz_driver/tz_driver.c:154
 574:	0301042e 	movweq	r0, #5166	; 0x142e
/home/luojing/share/projects/2014-01-16/trustzone/tz_driver/tz_driver.c:150
 578:	032e7edc 	teqeq	lr, #3520	; 0xdc0
/home/luojing/share/projects/2014-01-16/trustzone/tz_driver/tz_driver.c:154
 57c:	042e7ee8 	strteq	r7, [lr], #-3816	; 0xee8
/home/luojing/share/projects/2014-01-16/trustzone/tz_driver/tz_driver.c:158
 580:	02bc0307 	adcseq	r0, ip, #469762048	; 0x1c000000
 584:	0104d782 	smlabbeq	r4, r2, r7, sp
 588:	667dc503 	ldrbtvs	ip, [sp], -r3, lsl #10
CallTZFunction():
/home/luojing/share/projects/2014-01-16/trustzone/tz_driver/tz_driver.c:56
 58c:	bd030704 	stclt	7, cr0, [r3, #-16]
/home/luojing/share/projects/2014-01-16/trustzone/tz_driver/tz_driver.c:57
 590:	01046602 	tsteq	r4, r2, lsl #12
/home/luojing/share/projects/2014-01-16/trustzone/tz_driver/tz_driver.c:56
 594:	4a7dc703 	bmi	1f721a8 <tz_ioctl+0x1f71f5c>
/home/luojing/share/projects/2014-01-16/trustzone/tz_driver/tz_driver.c:58
 598:	03070469 	movweq	r0, #29801	; 0x7469
/home/luojing/share/projects/2014-01-16/trustzone/tz_driver/tz_driver.c:59
 59c:	048202b3 	streq	r0, [r2], #691	; 0x2b3
/home/luojing/share/projects/2014-01-16/trustzone/tz_driver/tz_driver.c:60
 5a0:	7dcf0301 	stclvc	3, cr0, [pc, #4]
/home/luojing/share/projects/2014-01-16/trustzone/tz_driver/tz_driver.c:72
 5a4:	0307042e 	movweq	r0, #29742	; 0x742e
/home/luojing/share/projects/2014-01-16/trustzone/tz_driver/tz_driver.c:73
 5a8:	9f4a02b1 	svcls	0x004a02b1
 5ac:	cd030104 	stfgts	f0, [r3, #-16]
 5b0:	07044a7d 	smlsdxeq	r4, sp, sl, r4
 5b4:	6602b503 	strvs	fp, [r2], -r3, lsl #10
/home/luojing/share/projects/2014-01-16/trustzone/tz_driver/tz_driver.c:75
 5b8:	cf030104 	svcgt	0x00030104
open_session():
/home/luojing/share/projects/2014-01-16/trustzone/tz_driver/tz_driver.c:162
 5bc:	86bd4a7d 	undefined instruction 0x86bd4a7d
 5c0:	04bd6b83 	ldrteq	r6, [sp], #2947	; 0xb83
 5c4:	00ea0302 	rsceq	r0, sl, r2, lsl #6
 5c8:	03030482 	movweq	r0, #13442	; 0x3482
/home/luojing/share/projects/2014-01-16/trustzone/tz_driver/tz_driver.c:163
 5cc:	04667ecd 	strbteq	r7, [r6], #-3789	; 0xecd
 5d0:	01d20302 	bicseq	r0, r2, r2, lsl #6
copy_to_user():
/home/luojing/share/projects/linux_kernel_s5pv210/kernel/arch/arm/include/asm/uaccess.h:415
 5d4:	0303042e 	movweq	r0, #13358	; 0x342e
 5d8:	044a7eae 	strbeq	r7, [sl], #-3758	; 0xeae
 5dc:	01d20302 	bicseq	r0, r2, r2, lsl #6
open_session():
/home/luojing/share/projects/2014-01-16/trustzone/tz_driver/tz_driver.c:170
 5e0:	0303042e 	movweq	r0, #13358	; 0x342e
 5e4:	042e7eae 	strteq	r7, [lr], #-3758	; 0xeae
 5e8:	01b30302 	undefined instruction 0x01b30302
 5ec:	0303042e 	movweq	r0, #13358	; 0x342e
copy_to_user():
/home/luojing/share/projects/linux_kernel_s5pv210/kernel/arch/arm/include/asm/uaccess.h:415
 5f0:	042e7ecd 	strteq	r7, [lr], #-3789	; 0xecd
open_session():
/home/luojing/share/projects/2014-01-16/trustzone/tz_driver/tz_driver.c:171
 5f4:	019c0305 	orrseq	r0, ip, r5, lsl #6
copy_to_user():
/home/luojing/share/projects/linux_kernel_s5pv210/kernel/arch/arm/include/asm/uaccess.h:415
 5f8:	0303042e 	movweq	r0, #13358	; 0x342e
 5fc:	04667ee4 	strbteq	r7, [r6], #-3812	; 0xee4
 600:	01b00305 	lslseq	r0, r5, #6
 604:	0404ac08 	streq	sl, [r4], #-3080	; 0xc08
 608:	017f8203 	cmneq	pc, r3, lsl #4
/home/luojing/share/projects/linux_kernel_s5pv210/kernel/arch/arm/include/asm/uaccess.h:416
 60c:	fe030504 	cdp2	5, 0, cr0, cr3, cr4, {0}
 610:	06046600 	streq	r6, [r4], -r0, lsl #12
 614:	667f8a03 	ldrbtvs	r8, [pc], -r3, lsl #20
open_session():
/home/luojing/share/projects/2014-01-16/trustzone/tz_driver/tz_driver.c:171
 618:	f6030504 	undefined instruction 0xf6030504
 61c:	07042e00 	streq	r2, [r4, -r0, lsl #28]
/home/luojing/share/projects/2014-01-16/trustzone/tz_driver/tz_driver.c:175
 620:	6601b703 	strvs	fp, [r1], -r3, lsl #14
 624:	e4030104 	str	r0, [r3], #-260	; 0x104
 628:	046b667d 	strbteq	r6, [fp], #-1661	; 0x67d
/home/luojing/share/projects/2014-01-16/trustzone/tz_driver/tz_driver.c:179
 62c:	02970307 	addseq	r0, r7, #469762048	; 0x1c000000
 630:	0301042e 	movweq	r0, #5166	; 0x142e
 634:	042e7de9 	strteq	r7, [lr], #-3561	; 0xde9
 638:	02970307 	addseq	r0, r7, #469762048	; 0x1c000000
copy_to_user():
/home/luojing/share/projects/linux_kernel_s5pv210/kernel/arch/arm/include/asm/uaccess.h:415
 63c:	01049f2e 	tsteq	r4, lr, lsr #30
open_session():
/home/luojing/share/projects/2014-01-16/trustzone/tz_driver/tz_driver.c:180
 640:	4a7de803 	bmi	1f7a654 <tz_ioctl+0x1f7a408>
copy_to_user():
/home/luojing/share/projects/linux_kernel_s5pv210/kernel/arch/arm/include/asm/uaccess.h:415
 644:	9a030704 	bls	c225c <tz_ioctl+0xc2010>
 648:	01046602 	tsteq	r4, r2, lsl #12
 64c:	4a7de903 	bmi	1f7aa60 <tz_ioctl+0x1f7a814>
 650:	042f2d67 	strteq	r2, [pc], #3431	; 658 <.debug_line+0x658>
 654:	01830302 	orreq	r0, r3, r2, lsl #6
/home/luojing/share/projects/linux_kernel_s5pv210/kernel/arch/arm/include/asm/uaccess.h:416
 658:	03010466 	movweq	r0, #5222	; 0x1466
 65c:	2a667f84 	bcs	19a0474 <tz_ioctl+0x19a0228>
 660:	03070431 	movweq	r0, #29745	; 0x7431
open_session():
/home/luojing/share/projects/2014-01-16/trustzone/tz_driver/tz_driver.c:180
 664:	bb2e028d 	bllt	b810a0 <tz_ioctl+0xb80e54>
 668:	f1030104 	undefined instruction 0xf1030104
/home/luojing/share/projects/2014-01-16/trustzone/tz_driver/tz_driver.c:184
 66c:	07042e7d 	smlsdxeq	r4, sp, lr, r2
 670:	66029103 	strvs	r9, [r2], -r3, lsl #2
 674:	f2030104 	vrhadd.s8	d0, d3, d4
 678:	846b827d 	strbthi	r8, [fp], #-637	; 0x27d
 67c:	33314d2f 	teqcc	r1, #3008	; 0xbc0
/home/luojing/share/projects/2014-01-16/trustzone/tz_driver/tz_driver.c:189
 680:	322a2f29 	eorcc	r2, sl, #164	; 0xa4
 684:	7f9a0332 	svcvc	0x009a0332
/home/luojing/share/projects/2014-01-16/trustzone/tz_driver/tz_driver.c:191
 688:	302d2f66 	eorcc	r2, sp, r6, ror #30
 68c:	03142f2f 	tsteq	r4, #188	; 0xbc
/home/luojing/share/projects/2014-01-16/trustzone/tz_driver/tz_driver.c:193
 690:	132f2e0a 	teqne	pc, #160	; 0xa0
 694:	00d70383 	sbcseq	r0, r7, r3, lsl #7
 698:	0704832e 	streq	r8, [r4, -lr, lsr #6]
 69c:	4a01fc03 	bmi	7f6b0 <tz_ioctl+0x7f464>
 6a0:	8b030104 	blhi	c0ab8 <tz_ioctl+0xc086c>
tz_ioctl():
/home/luojing/share/projects/2014-01-16/trustzone/tz_driver/tz_driver.c:247
 6a4:	0704667e 	smlsdxeq	r4, lr, r6, r6
/home/luojing/share/projects/2014-01-16/trustzone/tz_driver/tz_driver.c:248
 6a8:	8201f503 	andhi	pc, r1, #12582912	; 0xc00000
/home/luojing/share/projects/2014-01-16/trustzone/tz_driver/tz_driver.c:247
 6ac:	8c030104 	stfhis	f0, [r3], {4}
/home/luojing/share/projects/2014-01-16/trustzone/tz_driver/tz_driver.c:248
 6b0:	07042e7e 	smlsdxeq	r4, lr, lr, r2
 6b4:	2e01f403 	cdpcs	4, 0, cr15, cr1, cr3, {0}
/home/luojing/share/projects/2014-01-16/trustzone/tz_driver/tz_driver.c:252
 6b8:	0301049f 	movweq	r0, #5279	; 0x149f
/home/luojing/share/projects/2014-01-16/trustzone/tz_driver/tz_driver.c:253
 6bc:	4e667e8b 	cdpmi	14, 6, cr7, cr6, cr11, {4}
/home/luojing/share/projects/2014-01-16/trustzone/tz_driver/tz_driver.c:252
 6c0:	0307046a 	movweq	r0, #29802	; 0x746a
/home/luojing/share/projects/2014-01-16/trustzone/tz_driver/tz_driver.c:253
 6c4:	048201ec 	streq	r0, [r2], #492	; 0x1ec
 6c8:	7e950301 	cdpvc	3, 9, cr0, cr5, cr1, {0}
/home/luojing/share/projects/2014-01-16/trustzone/tz_driver/tz_driver.c:257
 6cc:	0307042e 	movweq	r0, #29742	; 0x742e
 6d0:	9f2e01eb 	svcls	0x002e01eb
/home/luojing/share/projects/2014-01-16/trustzone/tz_driver/tz_driver.c:262
 6d4:	94030104 	strls	r0, [r3], #-260	; 0x104
 6d8:	a34e667e 	movtge	r6, #59006	; 0xe67e
 6dc:	36034c4c 	strcc	r4, [r3], -ip, asr #24
 6e0:	2f2d2f9e 	svccs	0x002d2f9e
 6e4:	2f2d2f4e 	svccs	0x002d2f4e
 6e8:	2a024f4e 	bcs	94428 <tz_ioctl+0x941dc>
 6ec:	00010100 	andeq	r0, r1, r0, lsl #2
 6f0:	00000205 	andeq	r0, r0, r5, lsl #4
 6f4:	90030000 	andls	r0, r3, r0
 6f8:	48860102 	stmmi	r6, {r1, r8}
 6fc:	2d2f9f4c 	stccs	15, cr9, [pc, #-304]!	; 0xfffffed0
 700:	2d834c32 	stccs	12, cr4, [r3, #200]	; 0xc8
 704:	3067302f 	rsbcc	r3, r7, pc, lsr #32
 708:	302cbc4c 	eorcc	fp, ip, ip, asr #24
 70c:	4d306730 	ldcmi	7, cr6, [r0, #-192]!	; 0xffffff40
 710:	034b8367 	movteq	r8, #45927	; 0xb367
 714:	78034a0b 	stmdavc	r3, {r0, r1, r3, r9, fp, lr}
 718:	68364c82 	ldmdavs	r6!, {r1, r7, sl, fp, lr}
 71c:	00200285 	eoreq	r0, r0, r5, lsl #5
 720:	02660101 	rsbeq	r0, r6, #1073741824	; 0x40000000
 724:	00020000 	andeq	r0, r2, r0
tz_exit():
/home/luojing/share/projects/2014-01-16/trustzone/tz_driver/tz_driver.c:326
 728:	00000260 	andeq	r0, r0, r0, ror #4
 72c:	0efb0102 	cdpeq	1, 15, cr0, cr11, cr2, {0}
 730:	0101000d 	tsteq	r1, sp
 734:	00000101 	andeq	r0, r0, r1, lsl #2
 738:	00000100 	andeq	r0, r0, r0, lsl #2
/home/luojing/share/projects/2014-01-16/trustzone/tz_driver/tz_driver.c:328
 73c:	636e6901 	cmnvs	lr, #16384	; 0x4000
/home/luojing/share/projects/2014-01-16/trustzone/tz_driver/tz_driver.c:327
 740:	6564756c 	strbvs	r7, [r4, #-1388]!	; 0x56c
 744:	6d73612f 	ldfvse	f6, [r3, #-188]!	; 0xffffff44
/home/luojing/share/projects/2014-01-16/trustzone/tz_driver/tz_driver.c:331
 748:	6e65672d 	cdpvs	7, 6, cr6, cr5, cr13, {1}
/home/luojing/share/projects/2014-01-16/trustzone/tz_driver/tz_driver.c:328
 74c:	63697265 	cmnvs	r9, #1342177286	; 0x50000006
 750:	6f682f00 	svcvs	0x00682f00
/home/luojing/share/projects/2014-01-16/trustzone/tz_driver/tz_driver.c:329
 754:	6c2f656d 	cfstr32vs	mvfx6, [pc], #-436	; 0xfffffe4c
 758:	696a6f75 	stmdbvs	sl!, {r0, r2, r4, r5, r6, r8, r9, sl, fp, sp, lr}^
/home/luojing/share/projects/2014-01-16/trustzone/tz_driver/tz_driver.c:330
 75c:	732f676e 	teqvc	pc, #28835840	; 0x1b80000
 760:	65726168 	ldrbvs	r6, [r2, #-360]!	; 0x168
 764:	6f72702f 	svcvs	0x0072702f
/home/luojing/share/projects/2014-01-16/trustzone/tz_driver/tz_driver.c:331
 768:	7463656a 	strbtvc	r6, [r3], #-1386	; 0x56a
 76c:	696c2f73 	stmdbvs	ip!, {r0, r1, r4, r5, r6, r8, r9, sl, fp, sp}^
/home/luojing/share/projects/2014-01-16/trustzone/tz_driver/tz_driver.c:332
 770:	5f78756e 	svcpl	0x0078756e
 774:	6e72656b 	cdpvs	5, 7, cr6, cr2, cr11, {3}
/home/luojing/share/projects/2014-01-16/trustzone/tz_driver/tz_driver.c:333
 778:	735f6c65 	cmpvc	pc, #25856	; 0x6500
 77c:	32767035 	rsbscc	r7, r6, #53	; 0x35
/home/luojing/share/projects/2014-01-16/trustzone/tz_driver/tz_driver.c:334
 780:	6b2f3031 	blvs	bcc84c <tz_ioctl+0xbcc600>
 784:	656e7265 	strbvs	r7, [lr, #-613]!	; 0x265
 788:	72612f6c 	rsbvc	r2, r1, #432	; 0x1b0
/home/luojing/share/projects/2014-01-16/trustzone/tz_driver/tz_driver.c:335
 78c:	612f6863 	teqvs	pc, r3, ror #16
 790:	692f6d72 	stmdbvs	pc!, {r1, r4, r5, r6, r8, sl, fp, sp, lr}
/home/luojing/share/projects/2014-01-16/trustzone/tz_driver/tz_driver.c:336
 794:	756c636e 	strbvc	r6, [ip, #-878]!	; 0x36e
 798:	612f6564 	teqvs	pc, r4, ror #10
 79c:	69006d73 	stmdbvs	r0, {r0, r1, r4, r5, r6, r8, sl, fp, sp, lr}
 7a0:	756c636e 	strbvc	r6, [ip, #-878]!	; 0x36e
 7a4:	6c2f6564 	cfstr32vs	mvfx6, [pc], #-400	; 0xfffffe70
 7a8:	78756e69 	ldmdavc	r5!, {r0, r3, r5, r6, r9, sl, fp, sp, lr}^
 7ac:	6f682f00 	svcvs	0x00682f00
 7b0:	6c2f656d 	cfstr32vs	mvfx6, [pc], #-436	; 0xfffffe4c
 7b4:	696a6f75 	stmdbvs	sl!, {r0, r2, r4, r5, r6, r8, r9, sl, fp, sp, lr}^
 7b8:	732f676e 	teqvc	pc, #28835840	; 0x1b80000
 7bc:	65726168 	ldrbvs	r6, [r2, #-360]!	; 0x168
 7c0:	6f72702f 	svcvs	0x0072702f
 7c4:	7463656a 	strbtvc	r6, [r3], #-1386	; 0x56a
 7c8:	30322f73 	eorscc	r2, r2, r3, ror pc
 7cc:	302d3431 	eorcc	r3, sp, r1, lsr r4
 7d0:	36312d31 	undefined instruction 0x36312d31
 7d4:	7572742f 	ldrbvc	r7, [r2, #-1071]!	; 0x42f
 7d8:	6f7a7473 	svcvs	0x007a7473
 7dc:	742f656e 	strtvc	r6, [pc], #1390	; 7e4 <.debug_line+0x7e4>
 7e0:	72645f7a 	rsbvc	r5, r4, #488	; 0x1e8
 7e4:	72657669 	rsbvc	r7, r5, #110100480	; 0x6900000
 7e8:	636e6900 	cmnvs	lr, #0
 7ec:	6564756c 	strbvs	r7, [r4, #-1388]!	; 0x56c
 7f0:	6172742f 	cmnvs	r2, pc, lsr #8
 7f4:	652f6563 	strvs	r6, [pc, #-1379]!	; 299 <.debug_line+0x299>
 7f8:	746e6576 	strbtvc	r6, [lr], #-1398	; 0x576
 7fc:	69000073 	stmdbvs	r0, {r0, r1, r4, r5, r6}
 800:	6c2d746e 	cfstrsvs	mvf7, [sp], #-440	; 0xfffffe48
 804:	2e34366c 	cfmsuba32cs	mvax3, mvax3, mvfx4, mvfx12
 808:	00010068 	andeq	r0, r1, r8, rrx
 80c:	736f7000 	cmnvc	pc, #0
 810:	745f7869 	ldrbvc	r7, [pc], #2153	; 818 <.debug_line+0x818>
 814:	73657079 	cmnvc	r5, #121	; 0x79
 818:	0200682e 	andeq	r6, r0, #3014656	; 0x2e0000
 81c:	79740000 	ldmdbvc	r4!, {}^
 820:	2e736570 	mrccs	5, 3, r6, cr3, cr0, {3}
 824:	00030068 	andeq	r0, r3, r8, rrx
 828:	73696c00 	cmnvc	r9, #0
 82c:	00682e74 	rsbeq	r2, r8, r4, ror lr
 830:	73000003 	movwvc	r0, #3
 834:	6c6e6970 	stclvs	9, cr6, [lr], #-448	; 0xfffffe40
 838:	5f6b636f 	svcpl	0x006b636f
 83c:	65707974 	ldrbvs	r7, [r0, #-2420]!	; 0x974
 840:	70755f73 	rsbsvc	r5, r5, r3, ror pc
 844:	0300682e 	movweq	r6, #2094	; 0x82e
 848:	70730000 	rsbsvc	r0, r3, r0
 84c:	6f6c6e69 	svcvs	0x006c6e69
 850:	745f6b63 	ldrbvc	r6, [pc], #2915	; 858 <.debug_line+0x858>
 854:	73657079 	cmnvc	r5, #121	; 0x79
 858:	0300682e 	movweq	r6, #2094	; 0x82e
 85c:	74610000 	strbtvc	r0, [r1]
 860:	63696d6f 	cmnvs	r9, #7104	; 0x1bc0
 864:	6e6f6c2d 	cdpvs	12, 6, cr6, cr15, cr13, {1}
 868:	00682e67 	rsbeq	r2, r8, r7, ror #28
 86c:	77000001 	strvc	r0, [r0, -r1]
 870:	2e746961 	cdpcs	9, 7, cr6, cr4, cr1, {3}
 874:	00030068 	andeq	r0, r3, r8, rrx
 878:	696e6900 	stmdbvs	lr!, {r8, fp, sp, lr}^
 87c:	00682e74 	rsbeq	r2, r8, r4, ror lr
 880:	6d000003 	stcvs	0, cr0, [r0, #-12]
 884:	6e6f7a6d 	vnmulvs.f32	s15, s30, s27
 888:	00682e65 	rsbeq	r2, r8, r5, ror #28
 88c:	6d000003 	stcvs	0, cr0, [r0, #-12]
 890:	726f6d65 	rsbvc	r6, pc, #6464	; 0x1940
 894:	6f685f79 	svcvs	0x00685f79
 898:	756c7074 	strbvc	r7, [ip, #-116]!	; 0x74
 89c:	00682e67 	rsbeq	r2, r8, r7, ror #28
 8a0:	65000003 	strvs	r0, [r0, #-3]
 8a4:	682e666c 	stmdavs	lr!, {r2, r3, r5, r6, r9, sl, sp, lr}
 8a8:	00000300 	andeq	r0, r0, r0, lsl #6
 8ac:	66737973 	undefined instruction 0x66737973
 8b0:	00682e73 	rsbeq	r2, r8, r3, ror lr
 8b4:	6d000003 	stcvs	0, cr0, [r0, #-12]
 8b8:	6c75646f 	cfldrdvs	mvd6, [r5], #-444	; 0xfffffe44
 8bc:	00682e65 	rsbeq	r2, r8, r5, ror #28
 8c0:	6b000003 	blvs	8d4 <.debug_line+0x8d4>
 8c4:	656a626f 	strbvs	r6, [sl, #-623]!	; 0x26f
 8c8:	682e7463 	stmdavs	lr!, {r0, r1, r5, r6, sl, ip, sp, lr}
 8cc:	00000300 	andeq	r0, r0, r0, lsl #6
 8d0:	6665726b 	strbtvs	r7, [r5], -fp, ror #4
 8d4:	0300682e 	movweq	r6, #2094	; 0x82e
 8d8:	6f6d0000 	svcvs	0x006d0000
 8dc:	656c7564 	strbvs	r7, [ip, #-1380]!	; 0x564
 8e0:	61726170 	cmnvs	r2, r0, ror r1
 8e4:	00682e6d 	rsbeq	r2, r8, sp, ror #28
 8e8:	74000003 	strvc	r0, [r0], #-3
 8ec:	65636172 	strbvs	r6, [r3, #-370]!	; 0x172
 8f0:	6e696f70 	mcrvs	15, 3, r6, cr9, cr0, {3}
 8f4:	00682e74 	rsbeq	r2, r8, r4, ror lr
 8f8:	73000003 	movwvc	r0, #3
 8fc:	5f62756c 	svcpl	0x0062756c
 900:	2e666564 	cdpcs	5, 6, cr6, cr6, cr4, {3}
 904:	00030068 	andeq	r0, r3, r8, rrx
 908:	616c7300 	cmnvs	ip, r0, lsl #6
 90c:	00682e62 	rsbeq	r2, r8, r2, ror #28
 910:	6c000003 	stcvs	0, cr0, [r0], {3}
 914:	6c61636f 	stclvs	3, cr6, [r1], #-444	; 0xfffffe44
 918:	0100682e 	tsteq	r0, lr, lsr #16
 91c:	6f6d0000 	svcvs	0x006d0000
 920:	656c7564 	strbvs	r7, [ip, #-1380]!	; 0x564
 924:	0200682e 	andeq	r6, r0, #3014656	; 0x2e0000
 928:	7a740000 	bvc	1d00930 <tz_ioctl+0x1d006e4>
 92c:	6972645f 	ldmdbvs	r2!, {r0, r1, r2, r3, r4, r6, sl, sp, lr}^
 930:	2e726576 	mrccs	5, 3, r6, cr2, cr6, {3}
 934:	2e646f6d 	cdpcs	15, 6, cr6, cr4, cr13, {3}
 938:	00040063 	andeq	r0, r4, r3, rrx
 93c:	63776800 	cmnvs	r7, #0
 940:	682e7061 	stmdavs	lr!, {r0, r5, r6, ip, sp, lr}
 944:	00000200 	andeq	r0, r0, r0, lsl #4
 948:	6e72656b 	cdpvs	5, 7, cr6, cr2, cr11, {3}
 94c:	682e6c65 	stmdavs	lr!, {r0, r2, r5, r6, sl, fp, sp, lr}
 950:	00000300 	andeq	r0, r0, r0, lsl #6
 954:	6d757063 	ldclvs	0, cr7, [r5, #-396]!	; 0xfffffe74
 958:	2e6b7361 	cdpcs	3, 6, cr7, cr11, cr1, {3}
 95c:	00030068 	andeq	r0, r3, r8, rrx
 960:	70666700 	rsbvc	r6, r6, r0, lsl #14
 964:	0300682e 	movweq	r6, #2094	; 0x82e
 968:	69740000 	ldmdbvs	r4!, {}^
 96c:	2e78656d 	cdpcs	5, 7, cr6, cr8, cr13, {3}
 970:	00030068 	andeq	r0, r3, r8, rrx
 974:	656d6b00 	strbvs	r6, [sp, #-2816]!	; 0xb00
 978:	00682e6d 	rsbeq	r2, r8, sp, ror #28
 97c:	6d000005 	stcvs	0, cr0, [r0, #-20]	; 0xffffffec
 980:	6c75646f 	cfldrdvs	mvd6, [r5], #-444	; 0xfffffe44
 984:	00682e65 	rsbeq	r2, r8, r5, ror #28
 988:	00000005 	andeq	r0, r0, r5

Disassembly of section .debug_frame:

00000000 <.debug_frame>:
display_uuid():
/home/luojing/share/projects/2014-01-16/trustzone/tz_driver/tz_driver.c:44
   0:	0000000c 	andeq	r0, r0, ip
   4:	ffffffff 	undefined instruction 0xffffffff
   8:	7c010001 	stcvc	0, cr0, [r1], {1}
   c:	000d0c0e 	andeq	r0, sp, lr, lsl #24
  10:	00000024 	andeq	r0, r0, r4, lsr #32
	...
/home/luojing/share/projects/2014-01-16/trustzone/tz_driver/tz_driver.c:46
  1c:	00000080 	andeq	r0, r0, r0, lsl #1
  20:	440c0d44 	strmi	r0, [ip], #-3396	; 0xd44
  24:	11020e11 	tstne	r2, r1, lsl lr
  28:	0b11030d 	bleq	440c64 <tz_ioctl+0x440a18>
  2c:	05051104 	streq	r1, [r5, #-260]	; 0x104
  30:	44060411 	strmi	r0, [r6], #-1041	; 0x411
  34:	00040b0c 	andeq	r0, r4, ip, lsl #22
  38:	00000034 	andeq	r0, r0, r4, lsr r0
	...
  44:	000000f0 	strdeq	r0, [r0], -r0
  48:	440c0d44 	strmi	r0, [ip], #-3396	; 0xd44
  4c:	11020e11 	tstne	r2, r1, lsl lr
  50:	0b11030d 	bleq	440c8c <tz_ioctl+0x440a40>
  54:	050a1104 	streq	r1, [sl, #-260]	; 0x104
  58:	11060911 	tstne	r6, r1, lsl r9
  5c:	07110708 	ldreq	r0, [r1, -r8, lsl #14]
  60:	09061108 	stmdbeq	r6, {r3, r8, ip}
  64:	110a0511 	tstne	sl, r1, lsl r5
  68:	0c440b04 	mcrreq	11, 0, r0, r4, cr4
  6c:	0000040b 	andeq	r0, r0, fp, lsl #8
  70:	00000024 	andeq	r0, r0, r4, lsr #32
  74:	00000000 	andeq	r0, r0, r0
  78:	000000f0 	strdeq	r0, [r0], -r0
  7c:	00000054 	andeq	r0, r0, r4, asr r0
  80:	440c0d44 	strmi	r0, [ip], #-3396	; 0xd44
  84:	11020e11 	tstne	r2, r1, lsl lr
  88:	0b11030d 	bleq	440cc4 <tz_ioctl+0x440a78>
  8c:	05041104 	streq	r1, [r4, #-260]	; 0x104
  90:	44060311 	strmi	r0, [r6], #-785	; 0x311
  94:	00040b0c 	andeq	r0, r4, ip, lsl #22
  98:	00000028 	andeq	r0, r0, r8, lsr #32
	...
  a4:	0000015c 	andeq	r0, r0, ip, asr r1
  a8:	440c0d44 	strmi	r0, [ip], #-3396	; 0xd44
  ac:	11020e11 	tstne	r2, r1, lsl lr
  b0:	0b11030d 	bleq	440cec <tz_ioctl+0x440aa0>
  b4:	05061104 	streq	r1, [r6, #-260]	; 0x104
  b8:	11060511 	tstne	r6, r1, lsl r5
  bc:	0c440704 	mcrreq	7, 0, r0, r4, cr4
  c0:	0000040b 	andeq	r0, r0, fp, lsl #8
  c4:	0000002c 	andeq	r0, r0, ip, lsr #32
  c8:	00000000 	andeq	r0, r0, r0
  cc:	00000144 	andeq	r0, r0, r4, asr #2
  d0:	00000108 	andeq	r0, r0, r8, lsl #2
/home/luojing/share/projects/2014-01-16/trustzone/tz_driver/tz_driver.c:50
  d4:	440c0d44 	strmi	r0, [ip], #-3396	; 0xd44
  d8:	11020e11 	tstne	r2, r1, lsl lr
  dc:	0b11030d 	bleq	440d18 <tz_ioctl+0x440acc>
/home/luojing/share/projects/2014-01-16/trustzone/tz_driver/tz_driver.c:51
  e0:	05081104 	streq	r1, [r8, #-260]	; 0x104
  e4:	11060711 	tstne	r6, r1, lsl r7
  e8:	05110706 	ldreq	r0, [r1, #-1798]	; 0x706
  ec:	09041108 	stmdbeq	r4, {r3, r8, ip}
tz_release():
/home/luojing/share/projects/2014-01-16/trustzone/tz_driver/tz_driver.c:199
  f0:	040b0c44 	streq	r0, [fp], #-3140	; 0xc44
  f4:	0000002c 	andeq	r0, r0, ip, lsr #32
  f8:	00000000 	andeq	r0, r0, r0
  fc:	0000024c 	andeq	r0, r0, ip, asr #4
 100:	000004dc 	ldrdeq	r0, [r0], -ip
 104:	440c0d44 	strmi	r0, [ip], #-3396	; 0xd44
 108:	11020e11 	tstne	r2, r1, lsl lr
/home/luojing/share/projects/2014-01-16/trustzone/tz_driver/tz_driver.c:201
 10c:	0b11030d 	bleq	440d48 <tz_ioctl+0x440afc>
/home/luojing/share/projects/2014-01-16/trustzone/tz_driver/tz_driver.c:202
 110:	05081104 	streq	r1, [r8, #-260]	; 0x104
 114:	11060711 	tstne	r6, r1, lsl r7
 118:	05110706 	ldreq	r0, [r1, #-1798]	; 0x706
/home/luojing/share/projects/2014-01-16/trustzone/tz_driver/tz_driver.c:203
 11c:	09041108 	stmdbeq	r4, {r3, r8, ip}
/home/luojing/share/projects/2014-01-16/trustzone/tz_driver/tz_driver.c:204
 120:	040b0c44 	streq	r0, [fp], #-3140	; 0xc44

Disassembly of section .debug_loc:

00000000 <.debug_loc>:
display_uuid():
/home/luojing/share/projects/2014-01-16/trustzone/tz_driver/tz_driver.c:44
   0:	00000000 	andeq	r0, r0, r0
   4:	00000004 	andeq	r0, r0, r4
   8:	045d0001 	ldrbeq	r0, [sp], #-1
   c:	0c000000 	stceq	0, cr0, [r0], {0}
  10:	01000000 	tsteq	r0, r0
  14:	000c5c00 	andeq	r5, ip, r0, lsl #24
  18:	00800000 	addeq	r0, r0, r0
/home/luojing/share/projects/2014-01-16/trustzone/tz_driver/tz_driver.c:46
  1c:	00020000 	andeq	r0, r2, r0
  20:	0000047b 	andeq	r0, r0, fp, ror r4
	...
  2c:	00040000 	andeq	r0, r4, r0
  30:	00010000 	andeq	r0, r1, r0
  34:	0000045d 	andeq	r0, r0, sp, asr r4
  38:	00000c00 	andeq	r0, r0, r0, lsl #24
  3c:	5c000100 	stfpls	f0, [r0], {0}
  40:	0000000c 	andeq	r0, r0, ip
  44:	000000f0 	strdeq	r0, [r0], -r0
  48:	047b0002 	ldrbteq	r0, [fp], #-2
	...
  58:	00000030 	andeq	r0, r0, r0, lsr r0
  5c:	30500001 	subscc	r0, r0, r1
  60:	c8000000 	stmdagt	r0, {}
  64:	01000000 	tsteq	r0, r0
  68:	00005100 	andeq	r5, r0, r0, lsl #2
  6c:	00000000 	andeq	r0, r0, r0
  70:	00f00000 	rscseq	r0, r0, r0
  74:	00f40000 	rscseq	r0, r4, r0
  78:	00010000 	andeq	r0, r1, r0
  7c:	0000f45d 	andeq	pc, r0, sp, asr r4
  80:	0000fc00 	andeq	pc, r0, r0, lsl #24
  84:	5c000100 	stfpls	f0, [r0], {0}
  88:	000000fc 	strdeq	r0, [r0], -ip
  8c:	00000144 	andeq	r0, r0, r4, asr #2
  90:	047b0002 	ldrbteq	r0, [fp], #-2
	...
  9c:	000000f0 	strdeq	r0, [r0], -r0
  a0:	00000108 	andeq	r0, r0, r8, lsl #2
  a4:	00500001 	subseq	r0, r0, r1
  a8:	00000000 	andeq	r0, r0, r0
  ac:	f0000000 	undefined instruction 0xf0000000
  b0:	10000000 	andne	r0, r0, r0
  b4:	01000001 	tsteq	r0, r1
  b8:	01105100 	tsteq	r0, r0, lsl #2
  bc:	01440000 	cmpeq	r4, r0
  c0:	00010000 	andeq	r0, r1, r0
  c4:	00000054 	andeq	r0, r0, r4, asr r0
	...
  d0:	00000400 	andeq	r0, r0, r0, lsl #8
/home/luojing/share/projects/2014-01-16/trustzone/tz_driver/tz_driver.c:50
  d4:	5d000100 	stfpls	f0, [r0]
  d8:	00000004 	andeq	r0, r0, r4
  dc:	0000000c 	andeq	r0, r0, ip
/home/luojing/share/projects/2014-01-16/trustzone/tz_driver/tz_driver.c:51
  e0:	0c5c0001 	mrrceq	0, 0, r0, ip, cr1
  e4:	5c000000 	stcpl	0, cr0, [r0], {0}
  e8:	02000001 	andeq	r0, r0, #1
  ec:	00047b00 	andeq	r7, r4, r0, lsl #22
tz_release():
/home/luojing/share/projects/2014-01-16/trustzone/tz_driver/tz_driver.c:199
  f0:	00000000 	andeq	r0, r0, r0
  f4:	38000000 	stmdacc	r0, {}
  f8:	88000000 	stmdahi	r0, {}
  fc:	01000000 	tsteq	r0, r0
 100:	00a85600 	adceq	r5, r8, r0, lsl #12
 104:	00b00000 	adcseq	r0, r0, r0
 108:	00010000 	andeq	r0, r1, r0
/home/luojing/share/projects/2014-01-16/trustzone/tz_driver/tz_driver.c:201
 10c:	0000d856 	andeq	sp, r0, r6, asr r8
/home/luojing/share/projects/2014-01-16/trustzone/tz_driver/tz_driver.c:202
 110:	00015c00 	andeq	r5, r1, r0, lsl #24
 114:	56000100 	strpl	r0, [r0], -r0, lsl #2
	...
/home/luojing/share/projects/2014-01-16/trustzone/tz_driver/tz_driver.c:204
 120:	00000144 	andeq	r0, r0, r4, asr #2
 124:	00000148 	andeq	r0, r0, r8, asr #2
 128:	485d0001 	ldmdami	sp, {r0}^
/home/luojing/share/projects/2014-01-16/trustzone/tz_driver/tz_driver.c:207
 12c:	50000001 	andpl	r0, r0, r1
 130:	01000001 	tsteq	r0, r1
/home/luojing/share/projects/2014-01-16/trustzone/tz_driver/tz_driver.c:210
 134:	01505c00 	cmpeq	r0, r0, lsl #24
 138:	024c0000 	subeq	r0, ip, #0
 13c:	00020000 	andeq	r0, r2, r0
 140:	0000047b 	andeq	r0, r0, fp, ror r4
tz_open():
/home/luojing/share/projects/2014-01-16/trustzone/tz_driver/tz_driver.c:213
 144:	00000000 	andeq	r0, r0, r0
 148:	01440000 	cmpeq	r4, r0
 14c:	01600000 	cmneq	r0, r0
 150:	00010000 	andeq	r0, r1, r0
 154:	00000050 	andeq	r0, r0, r0, asr r0
 158:	00000000 	andeq	r0, r0, r0
kmem_cache_alloc_notrace():
 15c:	00014400 	andeq	r4, r1, r0, lsl #8
tz_open():
 160:	00016800 	andeq	r6, r1, r0, lsl #16
kmem_cache_alloc_notrace():
/home/luojing/share/projects/linux_kernel_s5pv210/kernel/include/linux/slub_def.h:226
 164:	51000100 	tstpl	r0, r0, lsl #2
 168:	00000168 	andeq	r0, r0, r8, ror #2
trace_kmalloc():
/home/luojing/share/projects/linux_kernel_s5pv210/kernel/include/trace/events/kmem.h:47
 16c:	0000024c 	andeq	r0, r0, ip, asr #4
kmalloc():
/home/luojing/share/projects/linux_kernel_s5pv210/kernel/include/linux/slub_def.h:257
 170:	00580001 	subseq	r0, r8, r1
 174:	00000000 	andeq	r0, r0, r0
trace_kmalloc():
/home/luojing/share/projects/linux_kernel_s5pv210/kernel/include/trace/events/kmem.h:47
 178:	a8000000 	stmdage	r0, {}
kmalloc():
/home/luojing/share/projects/linux_kernel_s5pv210/kernel/include/linux/slub_def.h:257
 17c:	d0000001 	andle	r0, r0, r1
trace_kmalloc():
/home/luojing/share/projects/linux_kernel_s5pv210/kernel/include/trace/events/kmem.h:47
 180:	01000001 	tsteq	r0, r1
kmem_cache_alloc_notrace():
/home/luojing/share/projects/linux_kernel_s5pv210/kernel/include/linux/slub_def.h:226
 184:	01dc5500 	bicseq	r5, ip, r0, lsl #10
trace_kmalloc():
/home/luojing/share/projects/linux_kernel_s5pv210/kernel/include/trace/events/kmem.h:47
 188:	024c0000 	subeq	r0, ip, #0
current_thread_info():
/home/luojing/share/projects/linux_kernel_s5pv210/kernel/arch/arm/include/asm/thread_info.h:97
 18c:	00010000 	andeq	r0, r1, r0
 190:	00000055 	andeq	r0, r0, r5, asr r0
 194:	00000000 	andeq	r0, r0, r0
rcu_read_lock_sched_notrace():
/home/luojing/share/projects/linux_kernel_s5pv210/kernel/include/linux/rcupdate.h:203
 198:	00024c00 	andeq	r4, r2, r0, lsl #24
 19c:	00025000 	andeq	r5, r2, r0
 1a0:	5d000100 	stfpls	f0, [r0]
trace_kmalloc():
/home/luojing/share/projects/linux_kernel_s5pv210/kernel/include/trace/events/kmem.h:47
 1a4:	00000250 	andeq	r0, r0, r0, asr r2
 1a8:	00000258 	andeq	r0, r0, r8, asr r2
 1ac:	585c0001 	ldmdapl	ip, {r0}^
 1b0:	28000002 	stmdacs	r0, {r1}
 1b4:	02000007 	andeq	r0, r0, #7
 1b8:	00047b00 	andeq	r7, r4, r0, lsl #22
 1bc:	00000000 	andeq	r0, r0, r0
 1c0:	4c000000 	stcmi	0, cr0, [r0], {0}
 1c4:	78000002 	stmdavc	r0, {r1}
 1c8:	01000002 	tsteq	r0, r2
 1cc:	00005000 	andeq	r5, r0, r0
 1d0:	00000000 	andeq	r0, r0, r0
 1d4:	024c0000 	subeq	r0, ip, #0
 1d8:	02d00000 	sbcseq	r0, r0, #0
current_thread_info():
/home/luojing/share/projects/linux_kernel_s5pv210/kernel/include/linux/rcupdate.h:223
 1dc:	00010000 	andeq	r0, r1, r0
 1e0:	0006a451 	andeq	sl, r6, r1, asr r4
 1e4:	0006b000 	andeq	fp, r6, r0
rcu_read_unlock_sched_notrace():
 1e8:	51000100 	tstpl	r0, r0, lsl #2
 1ec:	000006b8 	undefined instruction 0x000006b8
 1f0:	000006c4 	andeq	r0, r0, r4, asr #13
test_bit():
/home/luojing/share/projects/linux_kernel_s5pv210/kernel/include/asm-generic/bitops/non-atomic.h:105
 1f4:	cc510001 	mrrcgt	0, 0, r0, r1, cr1
rcu_read_unlock_sched_notrace():
/home/luojing/share/projects/linux_kernel_s5pv210/kernel/include/linux/rcupdate.h:223
 1f8:	d4000006 	strle	r0, [r0], #-6
 1fc:	01000006 	tsteq	r0, r6
 200:	00005100 	andeq	r5, r0, r0, lsl #2
tz_open():
/home/luojing/share/projects/2014-01-16/trustzone/tz_driver/tz_driver.c:220
 204:	00000000 	andeq	r0, r0, r0
 208:	024c0000 	subeq	r0, ip, #0
 20c:	027c0000 	rsbseq	r0, ip, #0
/home/luojing/share/projects/2014-01-16/trustzone/tz_driver/tz_driver.c:221
 210:	00010000 	andeq	r0, r1, r0
 214:	00027c52 	andeq	r7, r2, r2, asr ip
/home/luojing/share/projects/2014-01-16/trustzone/tz_driver/tz_driver.c:222
 218:	00040800 	andeq	r0, r4, r0, lsl #16
/home/luojing/share/projects/2014-01-16/trustzone/tz_driver/tz_driver.c:223
 21c:	54000100 	strpl	r0, [r0], #-256	; 0x100
 220:	00000690 	muleq	r0, r0, r6
/home/luojing/share/projects/2014-01-16/trustzone/tz_driver/tz_driver.c:224
 224:	00000728 	andeq	r0, r0, r8, lsr #14
 228:	00540001 	subseq	r0, r4, r1
/home/luojing/share/projects/2014-01-16/trustzone/tz_driver/tz_driver.c:226
 22c:	00000000 	andeq	r0, r0, r0
 230:	88000000 	stmdahi	r0, {}
 234:	8c000003 	stchi	0, cr0, [r0], {3}
 238:	01000003 	tsteq	r0, r3
 23c:	03cc5500 	biceq	r5, ip, #0
 240:	03d00000 	bicseq	r0, r0, #0
 244:	00010000 	andeq	r0, r1, r0
 248:	0004dc55 	andeq	sp, r4, r5, asr ip
tz_ioctl():
/home/luojing/share/projects/2014-01-16/trustzone/tz_driver/tz_driver.c:228
 24c:	0004ec00 	andeq	lr, r4, r0, lsl #24
 250:	55000100 	strpl	r0, [r0, #-256]	; 0x100
 254:	000005bc 	undefined instruction 0x000005bc
 258:	000006a4 	andeq	r0, r0, r4, lsr #13
 25c:	ac550001 	mrrcge	0, 0, r0, r5, cr1
 260:	b8000006 	stmdalt	r0, {r1, r2}
 264:	01000006 	tsteq	r0, r6
 268:	06c05500 	strbeq	r5, [r0], r0, lsl #10
/home/luojing/share/projects/2014-01-16/trustzone/tz_driver/tz_driver.c:230
 26c:	06cc0000 	strbeq	r0, [ip], r0
/home/luojing/share/projects/2014-01-16/trustzone/tz_driver/tz_driver.c:228
 270:	00010000 	andeq	r0, r1, r0
/home/luojing/share/projects/2014-01-16/trustzone/tz_driver/tz_driver.c:232
 274:	0006d055 	andeq	sp, r6, r5, asr r0
/home/luojing/share/projects/2014-01-16/trustzone/tz_driver/tz_driver.c:231
 278:	00072800 	andeq	r2, r7, r0, lsl #16
/home/luojing/share/projects/2014-01-16/trustzone/tz_driver/tz_driver.c:235
 27c:	55000100 	strpl	r0, [r0, #-256]	; 0x100
	...
 288:	000002f0 	strdeq	r0, [r0], -r0
/home/luojing/share/projects/2014-01-16/trustzone/tz_driver/tz_driver.c:240
 28c:	00000308 	andeq	r0, r0, r8, lsl #6
 290:	14530001 	ldrbne	r0, [r3], #-1
 294:	1c000003 	stcne	0, cr0, [r0], {3}
 298:	01000003 	tsteq	r0, r3
 29c:	00005300 	andeq	r5, r0, r0, lsl #6
 2a0:	00000000 	andeq	r0, r0, r0
 2a4:	02f00000 	rscseq	r0, r0, #0
 2a8:	03040000 	movweq	r0, #16384	; 0x4000
 2ac:	00010000 	andeq	r0, r1, r0
/home/luojing/share/projects/2014-01-16/trustzone/tz_driver/tz_driver.c:257
 2b0:	00031452 	andeq	r1, r3, r2, asr r4
/home/luojing/share/projects/2014-01-16/trustzone/tz_driver/tz_driver.c:240
 2b4:	00031c00 	andeq	r1, r3, r0, lsl #24
 2b8:	52000100 	andpl	r0, r0, #0
	...
/home/luojing/share/projects/2014-01-16/trustzone/tz_driver/tz_driver.c:242
 2c4:	00000350 	andeq	r0, r0, r0, asr r3
open_session():
/home/luojing/share/projects/linux_kernel_s5pv210/kernel/arch/arm/include/asm/uaccess.h:406
 2c8:	00000360 	andeq	r0, r0, r0, ror #6
tz_ioctl():
/home/luojing/share/projects/2014-01-16/trustzone/tz_driver/tz_driver.c:242
 2cc:	6c530001 	mrrcvs	0, 0, r0, r3, cr1
open_session():
/home/luojing/share/projects/2014-01-16/trustzone/tz_driver/tz_driver.c:90
 2d0:	74000003 	strvc	r0, [r0], #-3
 2d4:	01000003 	tsteq	r0, r3
 2d8:	00005300 	andeq	r5, r0, r0, lsl #6
 2dc:	00000000 	andeq	r0, r0, r0
copy_from_user():
/home/luojing/share/projects/linux_kernel_s5pv210/kernel/arch/arm/include/asm/uaccess.h:406
 2e0:	03500000 	cmpeq	r0, #0
 2e4:	035c0000 	cmpeq	ip, #0
 2e8:	00010000 	andeq	r0, r1, r0
 2ec:	00036c52 	andeq	r6, r3, r2, asr ip
 2f0:	00037400 	andeq	r7, r3, r0, lsl #8
 2f4:	52000100 	andpl	r0, r0, #0
	...
/home/luojing/share/projects/linux_kernel_s5pv210/kernel/arch/arm/include/asm/uaccess.h:407
 300:	00000408 	andeq	r0, r0, r8, lsl #8
 304:	000006a4 	andeq	r0, r0, r4, lsr #13
open_session():
/home/luojing/share/projects/2014-01-16/trustzone/tz_driver/tz_driver.c:92
 308:	d4540001 	ldrble	r0, [r4], #-1
 30c:	28000006 	stmdacs	r0, {r1, r2}
 310:	01000007 	tsteq	r0, r7
copy_from_user():
/home/luojing/share/projects/linux_kernel_s5pv210/kernel/arch/arm/include/asm/uaccess.h:409
 314:	00005400 	andeq	r5, r0, r0, lsl #8
 318:	00000000 	andeq	r0, r0, r0
open_session():
/home/luojing/share/projects/2014-01-16/trustzone/tz_driver/tz_driver.c:96
 31c:	041c0000 	ldreq	r0, [ip]
 320:	04440000 	strbeq	r0, [r4]
 324:	00010000 	andeq	r0, r1, r0
/home/luojing/share/projects/2014-01-16/trustzone/tz_driver/tz_driver.c:99
 328:	00045055 	andeq	r5, r4, r5, asr r0
 32c:	00048000 	andeq	r8, r4, r0
 330:	55000100 	strpl	r0, [r0, #-256]	; 0x100
	...
/home/luojing/share/projects/2014-01-16/trustzone/tz_driver/tz_driver.c:101
 33c:	000004a8 	andeq	r0, r0, r8, lsr #9
 340:	000004b8 	undefined instruction 0x000004b8
copy_from_user():
/home/luojing/share/projects/linux_kernel_s5pv210/kernel/arch/arm/include/asm/uaccess.h:406
 344:	c4530001 	ldrbgt	r0, [r3], #-1
 348:	cc000004 	stcgt	0, cr0, [r0], {4}
 34c:	01000004 	tsteq	r0, r4
 350:	00005300 	andeq	r5, r0, r0, lsl #6
 354:	00000000 	andeq	r0, r0, r0
/home/luojing/share/projects/linux_kernel_s5pv210/kernel/arch/arm/include/asm/uaccess.h:407
 358:	04a80000 	strteq	r0, [r8]
 35c:	04b40000 	ldrteq	r0, [r4]
open_session():
/home/luojing/share/projects/2014-01-16/trustzone/tz_driver/tz_driver.c:100
 360:	00010000 	andeq	r0, r1, r0
 364:	0004c452 	andeq	ip, r4, r2, asr r4
 368:	0004cc00 	andeq	ip, r4, r0, lsl #24
copy_from_user():
/home/luojing/share/projects/linux_kernel_s5pv210/kernel/arch/arm/include/asm/uaccess.h:409
 36c:	52000100 	andpl	r0, r0, #0
	...
open_session():
/home/luojing/share/projects/2014-01-16/trustzone/tz_driver/tz_driver.c:104
 378:	000004fc 	strdeq	r0, [r0], -ip
 37c:	00000520 	andeq	r0, r0, r0, lsr #10
 380:	2c520001 	mrrccs	0, 0, r0, r2, cr1
 384:	3c000005 	stccc	0, cr0, [r0], {5}
 388:	01000005 	tsteq	r0, r5
/home/luojing/share/projects/2014-01-16/trustzone/tz_driver/tz_driver.c:107
 38c:	05485200 	strbeq	r5, [r8, #-512]	; 0x200
 390:	05500000 	ldrbeq	r0, [r0]
 394:	00010000 	andeq	r0, r1, r0
 398:	00000052 	andeq	r0, r0, r2, asr r0
/home/luojing/share/projects/2014-01-16/trustzone/tz_driver/tz_driver.c:111
 39c:	00000000 	andeq	r0, r0, r0
 3a0:	00051400 	andeq	r1, r5, r0, lsl #8
 3a4:	00052000 	andeq	r2, r5, r0
 3a8:	53000100 	movwpl	r0, #256	; 0x100
/home/luojing/share/projects/2014-01-16/trustzone/tz_driver/tz_driver.c:112
 3ac:	0000052c 	andeq	r0, r0, ip, lsr #10
 3b0:	0000053c 	andeq	r0, r0, ip, lsr r5
 3b4:	48530001 	ldmdami	r3, {r0}^
/home/luojing/share/projects/2014-01-16/trustzone/tz_driver/tz_driver.c:117
 3b8:	58000005 	stmdapl	r0, {r0, r2}
 3bc:	01000005 	tsteq	r0, r5
 3c0:	00005300 	andeq	r5, r0, r0, lsl #6
 3c4:	00000000 	andeq	r0, r0, r0
 3c8:	05140000 	ldreq	r0, [r4]
 3cc:	05200000 	streq	r0, [r0]!
/home/luojing/share/projects/2014-01-16/trustzone/tz_driver/tz_driver.c:120
 3d0:	00010000 	andeq	r0, r1, r0
 3d4:	00052c5c 	andeq	r2, r5, ip, asr ip
 3d8:	00053c00 	andeq	r3, r5, r0, lsl #24
 3dc:	5c000100 	stfpls	f0, [r0], {0}
kmem_cache_alloc_notrace():
/home/luojing/share/projects/linux_kernel_s5pv210/kernel/include/linux/slub_def.h:226
 3e0:	00000548 	andeq	r0, r0, r8, asr #10
 3e4:	00000558 	andeq	r0, r0, r8, asr r5
 3e8:	005c0001 	subseq	r0, ip, r1
trace_kmalloc():
/home/luojing/share/projects/linux_kernel_s5pv210/kernel/include/trace/events/kmem.h:47
 3ec:	00000000 	andeq	r0, r0, r0
kmalloc():
/home/luojing/share/projects/linux_kernel_s5pv210/kernel/include/linux/slub_def.h:257
 3f0:	98000000 	stmdals	r0, {}
 3f4:	a4000005 	strge	r0, [r0], #-5
trace_kmalloc():
/home/luojing/share/projects/linux_kernel_s5pv210/kernel/include/trace/events/kmem.h:47
 3f8:	02000006 	andeq	r0, r0, #6
kmalloc():
/home/luojing/share/projects/linux_kernel_s5pv210/kernel/include/linux/slub_def.h:257
 3fc:	d4587b00 	ldrble	r7, [r8], #-2816	; 0xb00
trace_kmalloc():
/home/luojing/share/projects/linux_kernel_s5pv210/kernel/include/trace/events/kmem.h:47
 400:	28000006 	stmdacs	r0, {r1, r2}
kmem_cache_alloc_notrace():
/home/luojing/share/projects/linux_kernel_s5pv210/kernel/include/linux/slub_def.h:226
 404:	02000007 	andeq	r0, r0, #7
trace_kmalloc():
/home/luojing/share/projects/linux_kernel_s5pv210/kernel/include/trace/events/kmem.h:47
 408:	00587b00 	subseq	r7, r8, r0, lsl #22
rcu_read_lock_sched_notrace():
/home/luojing/share/projects/linux_kernel_s5pv210/kernel/include/linux/rcupdate.h:203
 40c:	00000000 	andeq	r0, r0, r0
 410:	94000000 	strls	r0, [r0]
 414:	a8000005 	stmdage	r0, {r0, r2}
trace_kmalloc():
/home/luojing/share/projects/linux_kernel_s5pv210/kernel/include/trace/events/kmem.h:47
 418:	01000005 	tsteq	r0, r5
 41c:	00005000 	andeq	r5, r0, r0
 420:	00000000 	andeq	r0, r0, r0
 424:	059c0000 	ldreq	r0, [ip]
 428:	05ac0000 	streq	r0, [ip]!
 42c:	00010000 	andeq	r0, r1, r0
 430:	00000051 	andeq	r0, r0, r1, asr r0
 434:	00000000 	andeq	r0, r0, r0
 438:	0005a000 	andeq	sl, r5, r0
 43c:	0005b000 	andeq	fp, r5, r0
 440:	52000100 	andpl	r0, r0, #0
	...
 44c:	00000604 	andeq	r0, r0, r4, lsl #12
current_thread_info():
/home/luojing/share/projects/linux_kernel_s5pv210/kernel/include/linux/rcupdate.h:223
 450:	00000618 	andeq	r0, r0, r8, lsl r6
 454:	20530001 	subscs	r0, r3, r1
 458:	2c000006 	stccs	0, cr0, [r0], {6}
rcu_read_unlock_sched_notrace():
 45c:	01000006 	tsteq	r0, r6
 460:	06745300 	ldrbteq	r5, [r4], -r0, lsl #6
 464:	067c0000 	ldrbteq	r0, [ip], -r0
test_bit():
/home/luojing/share/projects/linux_kernel_s5pv210/kernel/include/asm-generic/bitops/non-atomic.h:105
 468:	00010000 	andeq	r0, r1, r0
rcu_read_unlock_sched_notrace():
/home/luojing/share/projects/linux_kernel_s5pv210/kernel/include/linux/rcupdate.h:223
 46c:	00000053 	andeq	r0, r0, r3, asr r0
 470:	00000000 	andeq	r0, r0, r0
 474:	00060400 	andeq	r0, r6, r0, lsl #8
copy_from_user():
/home/luojing/share/projects/linux_kernel_s5pv210/kernel/arch/arm/include/asm/uaccess.h:406
 478:	00061400 	andeq	r1, r6, r0, lsl #8
 47c:	52000100 	andpl	r0, r0, #0
 480:	00000620 	andeq	r0, r0, r0, lsr #12
open_session():
/home/luojing/share/projects/2014-01-16/trustzone/tz_driver/tz_driver.c:122
 484:	00000628 	andeq	r0, r0, r8, lsr #12
 488:	00520001 	subseq	r0, r2, r1
 48c:	00000000 	andeq	r0, r0, r0
/home/luojing/share/projects/2014-01-16/trustzone/tz_driver/tz_driver.c:127
 490:	50000000 	andpl	r0, r0, r0
copy_from_user():
/home/luojing/share/projects/linux_kernel_s5pv210/kernel/arch/arm/include/asm/uaccess.h:406
 494:	64000006 	strvs	r0, [r0], #-6
open_session():
/home/luojing/share/projects/2014-01-16/trustzone/tz_driver/tz_driver.c:127
 498:	01000006 	tsteq	r0, r6
copy_from_user():
/home/luojing/share/projects/linux_kernel_s5pv210/kernel/arch/arm/include/asm/uaccess.h:406
 49c:	066c5300 	strbteq	r5, [ip], -r0, lsl #6
 4a0:	067c0000 	ldrbteq	r0, [ip], -r0
 4a4:	00010000 	andeq	r0, r1, r0
 4a8:	00000053 	andeq	r0, r0, r3, asr r0
 4ac:	00000000 	andeq	r0, r0, r0
/home/luojing/share/projects/linux_kernel_s5pv210/kernel/arch/arm/include/asm/uaccess.h:407
 4b0:	00065000 	andeq	r5, r6, r0
 4b4:	00066000 	andeq	r6, r6, r0
open_session():
/home/luojing/share/projects/2014-01-16/trustzone/tz_driver/tz_driver.c:127
 4b8:	52000100 	andpl	r0, r0, #0
 4bc:	0000066c 	andeq	r0, r0, ip, ror #12
 4c0:	00000674 	andeq	r0, r0, r4, ror r6
copy_from_user():
/home/luojing/share/projects/linux_kernel_s5pv210/kernel/arch/arm/include/asm/uaccess.h:409
 4c4:	00520001 	subseq	r0, r2, r1
 4c8:	00000000 	andeq	r0, r0, r0
open_session():
/home/luojing/share/projects/2014-01-16/trustzone/tz_driver/tz_driver.c:130
 4cc:	Address 0x000004cc is out of bounds.


Disassembly of section .debug_aranges:

00000000 <.debug_aranges>:
display_uuid():
/home/luojing/share/projects/2014-01-16/trustzone/tz_driver/tz_driver.c:44
   0:	0000002c 	andeq	r0, r0, ip, lsr #32
   4:	00000002 	andeq	r0, r0, r2
   8:	00040000 	andeq	r0, r4, r0
	...
  14:	00000728 	andeq	r0, r0, r8, lsr #14
  18:	00000000 	andeq	r0, r0, r0
/home/luojing/share/projects/2014-01-16/trustzone/tz_driver/tz_driver.c:46
  1c:	00000080 	andeq	r0, r0, r0, lsl #1
  20:	00000000 	andeq	r0, r0, r0
  24:	0000015c 	andeq	r0, r0, ip, asr r1
	...

Disassembly of section .debug_ranges:

00000000 <.debug_ranges>:
/home/luojing/share/projects/2014-01-16/trustzone/tz_driver/tz_driver.c:44
   0:	0000015c 	andeq	r0, r0, ip, asr r1
   4:	00000160 	andeq	r0, r0, r0, ror #2
   8:	00000164 	andeq	r0, r0, r4, ror #2
   c:	00000204 	andeq	r0, r0, r4, lsl #4
	...
  18:	0000015c 	andeq	r0, r0, ip, asr r1
/home/luojing/share/projects/2014-01-16/trustzone/tz_driver/tz_driver.c:46
  1c:	00000160 	andeq	r0, r0, r0, ror #2
  20:	00000164 	andeq	r0, r0, r4, ror #2
  24:	00000204 	andeq	r0, r0, r4, lsl #4
	...
  30:	0000015c 	andeq	r0, r0, ip, asr r1
  34:	00000160 	andeq	r0, r0, r0, ror #2
  38:	00000164 	andeq	r0, r0, r4, ror #2
  3c:	00000204 	andeq	r0, r0, r4, lsl #4
	...
  48:	0000015c 	andeq	r0, r0, ip, asr r1
  4c:	00000160 	andeq	r0, r0, r0, ror #2
  50:	00000184 	andeq	r0, r0, r4, lsl #3
  54:	00000188 	andeq	r0, r0, r8, lsl #3
  58:	00000164 	andeq	r0, r0, r4, ror #2
  5c:	0000016c 	andeq	r0, r0, ip, ror #2
	...
  68:	0000016c 	andeq	r0, r0, ip, ror #2
  6c:	00000170 	andeq	r0, r0, r0, ror r1
  70:	00000188 	andeq	r0, r0, r8, lsl #3
  74:	00000204 	andeq	r0, r0, r4, lsl #4
  78:	00000180 	andeq	r0, r0, r0, lsl #3
  7c:	00000184 	andeq	r0, r0, r4, lsl #3
  80:	00000178 	andeq	r0, r0, r8, ror r1
  84:	0000017c 	andeq	r0, r0, ip, ror r1
	...
  90:	000002bc 	undefined instruction 0x000002bc
  94:	000002c4 	andeq	r0, r0, r4, asr #5
  98:	000002d0 	ldrdeq	r0, [r0], -r0
  9c:	000006a4 	andeq	r0, r0, r4, lsr #13
  a0:	000002c8 	andeq	r0, r0, r8, asr #5
  a4:	000002cc 	andeq	r0, r0, ip, asr #5
	...
  b0:	000002bc 	undefined instruction 0x000002bc
  b4:	000002c4 	andeq	r0, r0, r4, asr #5
  b8:	000002d0 	ldrdeq	r0, [r0], -r0
  bc:	000006a4 	andeq	r0, r0, r4, lsr #13
  c0:	000002c8 	andeq	r0, r0, r8, asr #5
  c4:	000002cc 	andeq	r0, r0, ip, asr #5
	...
  d0:	000002bc 	undefined instruction 0x000002bc
/home/luojing/share/projects/2014-01-16/trustzone/tz_driver/tz_driver.c:50
  d4:	000002c4 	andeq	r0, r0, r4, asr #5
  d8:	00000314 	andeq	r0, r0, r4, lsl r3
  dc:	0000031c 	andeq	r0, r0, ip, lsl r3
/home/luojing/share/projects/2014-01-16/trustzone/tz_driver/tz_driver.c:51
  e0:	000002e0 	andeq	r0, r0, r0, ror #5
  e4:	00000308 	andeq	r0, r0, r8, lsl #6
  e8:	000002c8 	andeq	r0, r0, r8, asr #5
  ec:	000002cc 	andeq	r0, r0, ip, asr #5
	...
tz_release():
/home/luojing/share/projects/2014-01-16/trustzone/tz_driver/tz_driver.c:199
  f8:	000002bc 	undefined instruction 0x000002bc
  fc:	000002c4 	andeq	r0, r0, r4, asr #5
 100:	000002e0 	andeq	r0, r0, r0, ror #5
 104:	000002f0 	strdeq	r0, [r0], -r0
 108:	000002c8 	andeq	r0, r0, r8, asr #5
/home/luojing/share/projects/2014-01-16/trustzone/tz_driver/tz_driver.c:201
 10c:	000002cc 	andeq	r0, r0, ip, asr #5
	...
/home/luojing/share/projects/2014-01-16/trustzone/tz_driver/tz_driver.c:202
 118:	00000338 	andeq	r0, r0, r8, lsr r3
/home/luojing/share/projects/2014-01-16/trustzone/tz_driver/tz_driver.c:203
 11c:	0000033c 	andeq	r0, r0, ip, lsr r3
/home/luojing/share/projects/2014-01-16/trustzone/tz_driver/tz_driver.c:204
 120:	0000036c 	andeq	r0, r0, ip, ror #6
 124:	00000374 	andeq	r0, r0, r4, ror r3
 128:	00000344 	andeq	r0, r0, r4, asr #6
/home/luojing/share/projects/2014-01-16/trustzone/tz_driver/tz_driver.c:207
 12c:	00000360 	andeq	r0, r0, r0, ror #6
	...
/home/luojing/share/projects/2014-01-16/trustzone/tz_driver/tz_driver.c:210
 138:	00000338 	andeq	r0, r0, r8, lsr r3
 13c:	0000033c 	andeq	r0, r0, ip, lsr r3
 140:	00000344 	andeq	r0, r0, r4, asr #6
tz_open():
/home/luojing/share/projects/2014-01-16/trustzone/tz_driver/tz_driver.c:213
 144:	00000350 	andeq	r0, r0, r0, asr r3
	...
 150:	000003e0 	andeq	r0, r0, r0, ror #7
 154:	000003ec 	andeq	r0, r0, ip, ror #7
 158:	00000404 	andeq	r0, r0, r4, lsl #8
kmem_cache_alloc_notrace():
 15c:	00000408 	andeq	r0, r0, r8, lsl #8
	...
/home/luojing/share/projects/linux_kernel_s5pv210/kernel/include/linux/slub_def.h:226
 168:	000003ec 	andeq	r0, r0, ip, ror #7
trace_kmalloc():
/home/luojing/share/projects/linux_kernel_s5pv210/kernel/include/trace/events/kmem.h:47
 16c:	000003f0 	strdeq	r0, [r0], -r0
kmalloc():
/home/luojing/share/projects/linux_kernel_s5pv210/kernel/include/linux/slub_def.h:257
 170:	00000408 	andeq	r0, r0, r8, lsl #8
 174:	00000478 	andeq	r0, r0, r8, ror r4
trace_kmalloc():
/home/luojing/share/projects/linux_kernel_s5pv210/kernel/include/trace/events/kmem.h:47
 178:	00000400 	andeq	r0, r0, r0, lsl #8
kmalloc():
/home/luojing/share/projects/linux_kernel_s5pv210/kernel/include/linux/slub_def.h:257
 17c:	00000404 	andeq	r0, r0, r4, lsl #8
trace_kmalloc():
/home/luojing/share/projects/linux_kernel_s5pv210/kernel/include/trace/events/kmem.h:47
 180:	000003f8 	strdeq	r0, [r0], -r8
kmem_cache_alloc_notrace():
/home/luojing/share/projects/linux_kernel_s5pv210/kernel/include/linux/slub_def.h:226
 184:	000003fc 	strdeq	r0, [r0], -ip
	...
current_thread_info():
/home/luojing/share/projects/linux_kernel_s5pv210/kernel/arch/arm/include/asm/thread_info.h:97
 190:	00000478 	andeq	r0, r0, r8, ror r4
 194:	00000484 	andeq	r0, r0, r4, lsl #9
rcu_read_lock_sched_notrace():
/home/luojing/share/projects/linux_kernel_s5pv210/kernel/include/linux/rcupdate.h:203
 198:	000004c4 	andeq	r0, r0, r4, asr #9
 19c:	000004cc 	andeq	r0, r0, ip, asr #9
 1a0:	0000049c 	muleq	r0, ip, r4
trace_kmalloc():
/home/luojing/share/projects/linux_kernel_s5pv210/kernel/include/trace/events/kmem.h:47
 1a4:	000004b8 	undefined instruction 0x000004b8
 1a8:	00000494 	muleq	r0, r4, r4
 1ac:	00000498 	muleq	r0, r8, r4
	...
 1b8:	00000478 	andeq	r0, r0, r8, ror r4
 1bc:	00000484 	andeq	r0, r0, r4, lsl #9
 1c0:	0000049c 	muleq	r0, ip, r4
 1c4:	000004a8 	andeq	r0, r0, r8, lsr #9
 1c8:	00000494 	muleq	r0, r4, r4
 1cc:	00000498 	muleq	r0, r8, r4
	...
 1d8:	00000504 	andeq	r0, r0, r4, lsl #10
current_thread_info():
/home/luojing/share/projects/linux_kernel_s5pv210/kernel/include/linux/rcupdate.h:223
 1dc:	00000520 	andeq	r0, r0, r0, lsr #10
 1e0:	0000052c 	andeq	r0, r0, ip, lsr #10
 1e4:	0000053c 	andeq	r0, r0, ip, lsr r5
	...
rcu_read_unlock_sched_notrace():
 1f0:	000005d4 	ldrdeq	r0, [r0], -r4
test_bit():
/home/luojing/share/projects/linux_kernel_s5pv210/kernel/include/asm-generic/bitops/non-atomic.h:105
 1f4:	000005e0 	andeq	r0, r0, r0, ror #11
rcu_read_unlock_sched_notrace():
/home/luojing/share/projects/linux_kernel_s5pv210/kernel/include/linux/rcupdate.h:223
 1f8:	000005f8 	strdeq	r0, [r0], -r8
 1fc:	00000618 	andeq	r0, r0, r8, lsl r6
 200:	000005f0 	strdeq	r0, [r0], -r0
tz_open():
/home/luojing/share/projects/2014-01-16/trustzone/tz_driver/tz_driver.c:220
 204:	000005f4 	strdeq	r0, [r0], -r4
	...
/home/luojing/share/projects/2014-01-16/trustzone/tz_driver/tz_driver.c:221
 210:	000005d4 	ldrdeq	r0, [r0], -r4
 214:	000005e0 	andeq	r0, r0, r0, ror #11
/home/luojing/share/projects/2014-01-16/trustzone/tz_driver/tz_driver.c:222
 218:	000005f8 	strdeq	r0, [r0], -r8
/home/luojing/share/projects/2014-01-16/trustzone/tz_driver/tz_driver.c:223
 21c:	00000604 	andeq	r0, r0, r4, lsl #12
 220:	000005f0 	strdeq	r0, [r0], -r0
/home/luojing/share/projects/2014-01-16/trustzone/tz_driver/tz_driver.c:224
 224:	000005f4 	strdeq	r0, [r0], -r4
	...
/home/luojing/share/projects/2014-01-16/trustzone/tz_driver/tz_driver.c:226
 230:	0000063c 	andeq	r0, r0, ip, lsr r6
 234:	00000640 	andeq	r0, r0, r0, asr #12
 238:	00000644 	andeq	r0, r0, r4, asr #12
 23c:	00000664 	andeq	r0, r0, r4, ror #12
	...
 248:	0000063c 	andeq	r0, r0, ip, lsr r6
tz_ioctl():
/home/luojing/share/projects/2014-01-16/trustzone/tz_driver/tz_driver.c:228
 24c:	00000640 	andeq	r0, r0, r0, asr #12
 250:	00000644 	andeq	r0, r0, r4, asr #12
 254:	00000650 	andeq	r0, r0, r0, asr r6
	...
 264:	00000728 	andeq	r0, r0, r8, lsr #14
 268:	00000000 	andeq	r0, r0, r0
/home/luojing/share/projects/2014-01-16/trustzone/tz_driver/tz_driver.c:230
 26c:	00000080 	andeq	r0, r0, r0, lsl #1
/home/luojing/share/projects/2014-01-16/trustzone/tz_driver/tz_driver.c:228
 270:	00000000 	andeq	r0, r0, r0
/home/luojing/share/projects/2014-01-16/trustzone/tz_driver/tz_driver.c:232
 274:	000000f0 	strdeq	r0, [r0], -r0
/home/luojing/share/projects/2014-01-16/trustzone/tz_driver/tz_driver.c:231
 278:	000000f0 	strdeq	r0, [r0], -r0
/home/luojing/share/projects/2014-01-16/trustzone/tz_driver/tz_driver.c:235
 27c:	00000144 	andeq	r0, r0, r4, asr #2
 280:	00000000 	andeq	r0, r0, r0
/home/luojing/share/projects/2014-01-16/trustzone/tz_driver/tz_driver.c:236
 284:	0000015c 	andeq	r0, r0, ip, asr r1
/home/luojing/share/projects/2014-01-16/trustzone/tz_driver/tz_driver.c:235
 288:	00000144 	andeq	r0, r0, r4, asr #2
/home/luojing/share/projects/2014-01-16/trustzone/tz_driver/tz_driver.c:240
 28c:	0000024c 	andeq	r0, r0, ip, asr #4
 290:	0000024c 	andeq	r0, r0, ip, asr #4
 294:	00000728 	andeq	r0, r0, r8, lsr #14
	...

Disassembly of section .debug_str:

00000000 <.debug_str>:
display_uuid():
/home/luojing/share/projects/2014-01-16/trustzone/tz_driver/tz_driver.c:44
       0:	665f6c66 	ldrbvs	r6, [pc], -r6, ror #24
       4:	7367616c 	cmnvc	r7, #27
       8:	76656400 	strbtvc	r6, [r5], -r0, lsl #8
       c:	6372615f 	cmnvs	r2, #-1073741801	; 0xc0000017
      10:	74616468 	strbtvc	r6, [r1], #-1128	; 0x468
      14:	5f640061 	svcpl	0x00640061
      18:	61766572 	cmnvs	r6, r2, ror r5
/home/luojing/share/projects/2014-01-16/trustzone/tz_driver/tz_driver.c:46
      1c:	6164696c 	cmnvs	r4, ip, ror #18
      20:	6e006574 	cfrshl64vs	mvdx0, mvdx4, r6
      24:	735f6d75 	cmpvc	pc, #7488	; 0x1d40
      28:	00736d79 	rsbseq	r6, r3, r9, ror sp
      2c:	65646e69 	strbvs	r6, [r4, #-3689]!	; 0xe69
      30:	69625f78 	stmdbvs	r2!, {r3, r4, r5, r6, r8, r9, sl, fp, ip, lr}^
      34:	74007374 	strvc	r7, [r0], #-884	; 0x374
      38:	65636172 	strbvs	r6, [r3, #-370]!	; 0x172
      3c:	6e696f70 	mcrvs	15, 3, r6, cr9, cr0, {3}
      40:	65007374 	strvs	r7, [r0, #-884]	; 0x374
      44:	746e6576 	strbtvc	r6, [lr], #-1398	; 0x576
      48:	65686300 	strbvs	r6, [r8, #-768]!	; 0x300
      4c:	615f6b63 	cmpvs	pc, r3, ror #22
      50:	69006c63 	stmdbvs	r0, {r0, r1, r5, r6, sl, fp, sp, lr}
      54:	6174735f 	cmnvs	r4, pc, asr r3
      58:	73006574 	movwvc	r6, #1396	; 0x574
      5c:	69746365 	ldmdbvs	r4!, {r0, r2, r5, r6, r8, r9, sp, lr}^
      60:	6d5f6e6f 	ldclvs	14, cr6, [pc, #-444]	; 0xfffffe44
      64:	6d5f6d65 	ldclvs	13, cr6, [pc, #-404]	; 0xfffffe6c
      68:	69007061 	stmdbvs	r0, {r0, r5, r6, ip, sp, lr}
      6c:	69675f61 	stmdbvs	r7!, {r0, r5, r6, r8, r9, sl, fp, ip, lr}^
      70:	66710064 	ldrbtvs	r0, [r1], -r4, rrx
      74:	6e776f5f 	mrcvs	15, 3, r6, cr7, cr15, {2}
      78:	6c007265 	sfmvs	f7, 4, [r0], {101}	; (stcvs 2, cr7, [r0], {101})	; 0x65
      7c:	646e7561 	strbtvs	r7, [lr], #-1377	; 0x561
      80:	705f7265 	subsvc	r7, pc, r5, ror #4
      84:	00656761 	rsbeq	r6, r5, r1, ror #14
      88:	696c5f69 	stmdbvs	ip!, {r0, r3, r5, r6, r8, r9, sl, fp, ip, lr}^
      8c:	6d007473 	cfstrsvs	mvf7, [r0, #-460]	; 0xfffffe34
      90:	695f6474 	ldmdbvs	pc, {r2, r4, r5, r6, sl, sp, lr}^
      94:	006f666e 	rsbeq	r6, pc, lr, ror #12
      98:	6c625f73 	stclvs	15, cr5, [r2], #-460	; 0xfffffe34
      9c:	736b636f 	cmnvc	fp, #-1140850687	; 0xbc000001
      a0:	5f657a69 	svcpl	0x00657a69
      a4:	73746962 	cmnvc	r4, #1605632	; 0x188000
      a8:	65686300 	strbvs	r6, [r8, #-768]!	; 0x300
      ac:	665f6b63 	ldrbvs	r6, [pc], -r3, ror #22
      b0:	7367616c 	cmnvc	r7, #27
      b4:	6c5f7300 	mrrcvs	3, 0, r7, pc, cr0
      b8:	5f6b636f 	svcpl	0x006b636f
      bc:	0079656b 	rsbseq	r6, r9, fp, ror #10
      c0:	54444950 	strbpl	r4, [r4], #-2384	; 0x950
      c4:	5f455059 	svcpl	0x00455059
      c8:	0058414d 	subseq	r4, r8, sp, asr #2
      cc:	5f646967 	svcpl	0x00646967
      d0:	656d0074 	strbvs	r0, [sp, #-116]!	; 0x74
/home/luojing/share/projects/2014-01-16/trustzone/tz_driver/tz_driver.c:50
      d4:	71645f6d 	cmnvc	r4, sp, ror #30
      d8:	006b6c62 	rsbeq	r6, fp, r2, ror #24
      dc:	645f7a74 	ldrbvs	r7, [pc], #2676	; e4 <.debug_str+0xe4>
/home/luojing/share/projects/2014-01-16/trustzone/tz_driver/tz_driver.c:51
      e0:	63697665 	cmnvs	r9, #105906176	; 0x6500000
      e4:	6c7a0065 	ldclvs	0, cr0, [sl], #-404	; 0xfffffe6c
      e8:	68636163 	stmdavs	r3!, {r0, r1, r5, r6, r8, sp, lr}^
      ec:	74705f65 	ldrbtvc	r5, [r0], #-3941	; 0xf65
tz_release():
/home/luojing/share/projects/2014-01-16/trustzone/tz_driver/tz_driver.c:199
      f0:	6e690072 	mcrvs	0, 3, r0, cr9, cr2, {3}
      f4:	00657375 	rsbeq	r7, r5, r5, ror r3
      f8:	685f6462 	ldmdavs	pc, {r1, r5, r6, sl, sp, lr}^
      fc:	65646c6f 	strbvs	r6, [r4, #-3183]!	; 0xc6f
     100:	696c5f72 	stmdbvs	ip!, {r1, r4, r5, r6, r8, r9, sl, fp, ip, lr}^
     104:	6d007473 	cfstrsvs	mvf7, [r0, #-460]	; 0xfffffe34
     108:	7269646b 	rsbvc	r6, r9, #1795162112	; 0x6b000000
/home/luojing/share/projects/2014-01-16/trustzone/tz_driver/tz_driver.c:201
     10c:	45455400 	strbmi	r5, [r5, #-1024]	; 0x400
/home/luojing/share/projects/2014-01-16/trustzone/tz_driver/tz_driver.c:202
     110:	5241505f 	subpl	r5, r1, #95	; 0x5f
     114:	545f4d41 	ldrbpl	r4, [pc], #3393	; 11c <.debug_str+0x11c>
     118:	5f455059 	svcpl	0x00455059
/home/luojing/share/projects/2014-01-16/trustzone/tz_driver/tz_driver.c:203
     11c:	524d454d 	subpl	r4, sp, #322961408	; 0x13400000
/home/luojing/share/projects/2014-01-16/trustzone/tz_driver/tz_driver.c:204
     120:	495f4645 	ldmdbmi	pc, {r0, r2, r6, r9, sl, lr}^
     124:	5455504e 	ldrbpl	r5, [r5], #-78	; 0x4e
     128:	69756500 	ldmdbvs	r5!, {r8, sl, sp, lr}^
/home/luojing/share/projects/2014-01-16/trustzone/tz_driver/tz_driver.c:207
     12c:	64720064 	ldrbtvs	r0, [r2], #-100	; 0x64
     130:	5f007665 	svcpl	0x00007665
/home/luojing/share/projects/2014-01-16/trustzone/tz_driver/tz_driver.c:210
     134:	6c6f6f42 	stclvs	15, cr6, [pc], #-264	; 0xfffffef8
     138:	745f5f00 	ldrbvc	r5, [pc], #3840	; 140 <.debug_str+0x140>
     13c:	65636172 	strbvs	r6, [r3, #-370]!	; 0x172
     140:	6e696f70 	mcrvs	15, 3, r6, cr9, cr0, {3}
tz_open():
/home/luojing/share/projects/2014-01-16/trustzone/tz_driver/tz_driver.c:213
     144:	6d6b5f74 	stclvs	15, cr5, [fp, #-464]!	; 0xfffffe30
     148:	6f6c6c61 	svcvs	0x006c6c61
     14c:	6f6e5f63 	svcvs	0x006e5f63
     150:	77006564 	strvc	r6, [r0, -r4, ror #10]
     154:	65746972 	ldrbvs	r6, [r4, #-2418]!	; 0x972
     158:	6f6e695f 	svcvs	0x006e695f
kmem_cache_alloc_notrace():
     15c:	62006564 	andvs	r6, r0, #419430400	; 0x19000000
tz_open():
     160:	73665f64 	cmnvc	r6, #400	; 0x190
kmem_cache_alloc_notrace():
/home/luojing/share/projects/linux_kernel_s5pv210/kernel/include/linux/slub_def.h:226
     164:	65657266 	strbvs	r7, [r5, #-614]!	; 0x266
     168:	635f657a 	cmpvs	pc, #511705088	; 0x1e800000
trace_kmalloc():
/home/luojing/share/projects/linux_kernel_s5pv210/kernel/include/trace/events/kmem.h:47
     16c:	746e756f 	strbtvc	r7, [lr], #-1391	; 0x56f
kmalloc():
/home/luojing/share/projects/linux_kernel_s5pv210/kernel/include/linux/slub_def.h:257
     170:	69727000 	ldmdbvs	r2!, {ip, sp, lr}^
     174:	65746176 	ldrbvs	r6, [r4, #-374]!	; 0x176
trace_kmalloc():
/home/luojing/share/projects/linux_kernel_s5pv210/kernel/include/trace/events/kmem.h:47
     178:	636f6c5f 	cmnvs	pc, #24320	; 0x5f00
kmalloc():
/home/luojing/share/projects/linux_kernel_s5pv210/kernel/include/linux/slub_def.h:257
     17c:	7266006b 	rsbvc	r0, r6, #107	; 0x6b
trace_kmalloc():
/home/luojing/share/projects/linux_kernel_s5pv210/kernel/include/trace/events/kmem.h:47
     180:	695f6565 	ldmdbvs	pc, {r0, r2, r5, r6, r8, sl, sp, lr}^
kmem_cache_alloc_notrace():
/home/luojing/share/projects/linux_kernel_s5pv210/kernel/include/linux/slub_def.h:226
     184:	65646f6e 	strbvs	r6, [r4, #-3950]!	; 0xf6e
trace_kmalloc():
/home/luojing/share/projects/linux_kernel_s5pv210/kernel/include/trace/events/kmem.h:47
     188:	5f6d6d00 	svcpl	0x006d6d00
current_thread_info():
/home/luojing/share/projects/linux_kernel_s5pv210/kernel/arch/arm/include/asm/thread_info.h:97
     18c:	6d676573 	cfstr64vs	mvdx6, [r7, #-460]!	; 0xfffffe34
     190:	5f746e65 	svcpl	0x00746e65
     194:	45540074 	ldrbmi	r0, [r4, #-116]	; 0x74
rcu_read_lock_sched_notrace():
/home/luojing/share/projects/linux_kernel_s5pv210/kernel/include/linux/rcupdate.h:203
     198:	41505f45 	cmpmi	r0, r5, asr #30
     19c:	5f4d4152 	svcpl	0x004d4152
     1a0:	45505954 	ldrbmi	r5, [r0, #-2388]	; 0x954
trace_kmalloc():
/home/luojing/share/projects/linux_kernel_s5pv210/kernel/include/trace/events/kmem.h:47
     1a4:	4c41565f 	mcrrmi	6, 5, r5, r1, cr15
     1a8:	495f4555 	ldmdbmi	pc, {r0, r2, r4, r6, r8, sl, lr}^
     1ac:	54554f4e 	ldrbpl	r4, [r5], #-3918	; 0xf4e
     1b0:	725f6400 	subsvc	r6, pc, #0
     1b4:	735f6274 	cmpvc	pc, #1073741831	; 0x40000007
     1b8:	6c74666f 	ldclvs	6, cr6, [r4], #-444	; 0xfffffe44
     1bc:	74696d69 	strbtvc	r6, [r9], #-3433	; 0xd69
     1c0:	65726300 	ldrbvs	r6, [r2, #-768]!	; 0x300
     1c4:	00657461 	rsbeq	r7, r5, r1, ror #8
     1c8:	65726e75 	ldrbvs	r6, [r2, #-3701]!	; 0xe75
     1cc:	6e756667 	cdpvs	6, 7, cr6, cr5, cr7, {3}
     1d0:	6e750063 	cdpvs	0, 7, cr0, cr5, cr3, {3}
     1d4:	6b636f6c 	blvs	18dbf8c <tz_ioctl+0x18dbd40>
     1d8:	695f6465 	ldmdbvs	pc, {r0, r2, r5, r6, sl, sp, lr}^
current_thread_info():
/home/luojing/share/projects/linux_kernel_s5pv210/kernel/include/linux/rcupdate.h:223
     1dc:	6c74636f 	ldclvs	3, cr6, [r4], #-444	; 0xfffffe44
     1e0:	6c656400 	cfstrdvs	mvd6, [r5]
     1e4:	5f657465 	svcpl	0x00657465
rcu_read_unlock_sched_notrace():
     1e8:	646f6e69 	strbtvs	r6, [pc], #3689	; 1f0 <.debug_str+0x1f0>
     1ec:	53490065 	movtpl	r0, #36965	; 0x9065
     1f0:	5252455f 	subspl	r4, r2, #398458880	; 0x17c00000
test_bit():
/home/luojing/share/projects/linux_kernel_s5pv210/kernel/include/asm-generic/bitops/non-atomic.h:105
     1f4:	6d5f7300 	ldclvs	3, cr7, [pc]
rcu_read_unlock_sched_notrace():
/home/luojing/share/projects/linux_kernel_s5pv210/kernel/include/linux/rcupdate.h:223
     1f8:	0065646f 	rsbeq	r6, r5, pc, ror #8
     1fc:	6e697073 	mcrvs	0, 3, r7, cr9, cr3, {3}
     200:	6b636f6c 	blvs	18dbfb8 <tz_ioctl+0x18dbd6c>
tz_open():
/home/luojing/share/projects/2014-01-16/trustzone/tz_driver/tz_driver.c:220
     204:	5f00745f 	svcpl	0x0000745f
     208:	6172745f 	cmnvs	r2, pc, asr r4
     20c:	6f706563 	svcvs	0x00706563
/home/luojing/share/projects/2014-01-16/trustzone/tz_driver/tz_driver.c:221
     210:	5f746e69 	svcpl	0x00746e69
     214:	6d656d6b 	stclvs	13, cr6, [r5, #-428]!	; 0xfffffe54
/home/luojing/share/projects/2014-01-16/trustzone/tz_driver/tz_driver.c:222
     218:	6361635f 	cmnvs	r1, #2080374785	; 0x7c000001
/home/luojing/share/projects/2014-01-16/trustzone/tz_driver/tz_driver.c:223
     21c:	615f6568 	cmpvs	pc, r8, ror #10
     220:	636f6c6c 	cmnvs	pc, #27648	; 0x6c00
/home/luojing/share/projects/2014-01-16/trustzone/tz_driver/tz_driver.c:224
     224:	646f6e5f 	strbtvs	r6, [pc], #3679	; 22c <.debug_str+0x22c>
     228:	75730065 	ldrbvc	r0, [r3, #-101]!	; 0x65
/home/luojing/share/projects/2014-01-16/trustzone/tz_driver/tz_driver.c:226
     22c:	6e657073 	mcrvs	0, 3, r7, cr5, cr3, {3}
     230:	6f6e5f64 	svcvs	0x006e5f64
     234:	00717269 	rsbseq	r7, r1, r9, ror #4
     238:	636f6c62 	cmnvs	pc, #25088	; 0x6200
     23c:	6400736b 	strvs	r7, [r0], #-875	; 0x36b
     240:	6c65645f 	cfstrdvs	mvd6, [r5], #-380	; 0xfffffe84
     244:	00657465 	rsbeq	r7, r5, r5, ror #8
     248:	5f706667 	svcpl	0x00706667
tz_ioctl():
/home/luojing/share/projects/2014-01-16/trustzone/tz_driver/tz_driver.c:228
     24c:	6b73616d 	blvs	1cd8808 <tz_ioctl+0x1cd85bc>
     250:	635f7300 	cmpvs	pc, #0
     254:	746e756f 	strbtvc	r7, [lr], #-1391	; 0x56f
     258:	6d616e00 	stclvs	14, cr6, [r1]
     25c:	61646965 	cmnvs	r4, r5, ror #18
     260:	6b006174 	blvs	18838 <tz_ioctl+0x185ec>
     264:	70617773 	rsbvc	r7, r1, r3, ror r7
     268:	616d5f64 	cmnvs	sp, r4, ror #30
/home/luojing/share/projects/2014-01-16/trustzone/tz_driver/tz_driver.c:230
     26c:	726f5f78 	rsbvc	r5, pc, #480	; 0x1e0
/home/luojing/share/projects/2014-01-16/trustzone/tz_driver/tz_driver.c:228
     270:	00726564 	rsbseq	r6, r2, r4, ror #10
/home/luojing/share/projects/2014-01-16/trustzone/tz_driver/tz_driver.c:232
     274:	5f776172 	svcpl	0x00776172
/home/luojing/share/projects/2014-01-16/trustzone/tz_driver/tz_driver.c:231
     278:	6b636f6c 	blvs	18dc030 <tz_ioctl+0x18dbde4>
/home/luojing/share/projects/2014-01-16/trustzone/tz_driver/tz_driver.c:235
     27c:	73666e00 	cmnvc	r6, #0
     280:	6c665f34 	stclvs	15, cr5, [r6], #-208	; 0xffffff30
/home/luojing/share/projects/2014-01-16/trustzone/tz_driver/tz_driver.c:236
     284:	45455400 	strbmi	r5, [r5, #-1024]	; 0x400
/home/luojing/share/projects/2014-01-16/trustzone/tz_driver/tz_driver.c:235
     288:	5241505f 	subpl	r5, r1, #95	; 0x5f
/home/luojing/share/projects/2014-01-16/trustzone/tz_driver/tz_driver.c:240
     28c:	545f4d41 	ldrbpl	r4, [pc], #3393	; 294 <.debug_str+0x294>
     290:	00455059 	subeq	r5, r5, r9, asr r0
     294:	72745f5f 	rsbsvc	r5, r4, #380	; 0x17c
     298:	70656361 	rsbvc	r6, r5, r1, ror #6
     29c:	746e696f 	strbtvc	r6, [lr], #-2415	; 0x96f
     2a0:	72666b5f 	rsbvc	r6, r6, #97280	; 0x17c00
     2a4:	67006565 	strvs	r6, [r0, -r5, ror #10]
     2a8:	645f7465 	ldrbvs	r7, [pc], #1125	; 2b0 <.debug_str+0x2b0>
     2ac:	6b6c6271 	blvs	1b18c78 <tz_ioctl+0x1b18a2c>
/home/luojing/share/projects/2014-01-16/trustzone/tz_driver/tz_driver.c:257
     2b0:	5f716400 	svcpl	0x00716400
/home/luojing/share/projects/2014-01-16/trustzone/tz_driver/tz_driver.c:240
     2b4:	00627164 	rsbeq	r7, r2, r4, ror #2
     2b8:	53534553 	cmppl	r3, #348127232	; 0x14c00000
copy_from_user():
/home/luojing/share/projects/linux_kernel_s5pv210/kernel/arch/arm/include/asm/uaccess.h:406
     2bc:	5f4e4f49 	svcpl	0x004e4f49
     2c0:	544e4f43 	strbpl	r4, [lr], #-3907	; 0xf43
tz_ioctl():
/home/luojing/share/projects/2014-01-16/trustzone/tz_driver/tz_driver.c:242
     2c4:	00545845 	subseq	r5, r4, r5, asr #16
open_session():
/home/luojing/share/projects/linux_kernel_s5pv210/kernel/arch/arm/include/asm/uaccess.h:406
     2c8:	72745f5f 	rsbsvc	r5, r4, #380	; 0x17c
tz_ioctl():
/home/luojing/share/projects/2014-01-16/trustzone/tz_driver/tz_driver.c:242
     2cc:	70656361 	rsbvc	r6, r5, r1, ror #6
open_session():
/home/luojing/share/projects/2014-01-16/trustzone/tz_driver/tz_driver.c:90
     2d0:	746e696f 	strbtvc	r6, [lr], #-2415	; 0x96f
     2d4:	5f6d6d5f 	svcpl	0x006d6d5f
     2d8:	65676170 	strbvs	r6, [r7, #-368]!	; 0x170
     2dc:	5f636576 	svcpl	0x00636576
copy_from_user():
/home/luojing/share/projects/linux_kernel_s5pv210/kernel/arch/arm/include/asm/uaccess.h:406
     2e0:	65657266 	strbvs	r7, [r5, #-614]!	; 0x266
     2e4:	6f746300 	svcvs	0x00746300
     2e8:	6e665f72 	mcrvs	15, 3, r5, cr6, cr2, {3}
     2ec:	6800745f 	stmdavs	r0, {r0, r1, r2, r3, r4, r6, sl, ip, sp, lr}
     2f0:	0074736f 	rsbseq	r7, r4, pc, ror #6
     2f4:	776f6873 	undefined instruction 0x776f6873
     2f8:	6e697500 	cdpvs	5, 6, cr7, cr9, cr0, {0}
/home/luojing/share/projects/linux_kernel_s5pv210/kernel/arch/arm/include/asm/uaccess.h:407
     2fc:	5f363174 	svcpl	0x00363174
     300:	75700074 	ldrbvc	r0, [r0, #-116]!	; 0x74
     304:	75735f74 	ldrbvc	r5, [r3, #-3956]!	; 0xf74
open_session():
/home/luojing/share/projects/2014-01-16/trustzone/tz_driver/tz_driver.c:92
     308:	00726570 	rsbseq	r6, r2, r0, ror r5
     30c:	65726874 	ldrbvs	r6, [r2, #-2164]!	; 0x874
     310:	695f6461 	ldmdbvs	pc, {r0, r5, r6, sl, sp, lr}^
copy_from_user():
/home/luojing/share/projects/linux_kernel_s5pv210/kernel/arch/arm/include/asm/uaccess.h:409
     314:	006f666e 	rsbeq	r6, pc, lr, ror #12
     318:	725f6566 	subsvc	r6, pc, #427819008	; 0x19800000
open_session():
/home/luojing/share/projects/2014-01-16/trustzone/tz_driver/tz_driver.c:96
     31c:	72657365 	rsbvc	r7, r5, #-1811939327	; 0x94000001
     320:	00646576 	rsbeq	r6, r4, r6, ror r5
     324:	64646175 	strbtvs	r6, [r4], #-373	; 0x175
/home/luojing/share/projects/2014-01-16/trustzone/tz_driver/tz_driver.c:99
     328:	69740072 	ldmdbvs	r4!, {r1, r4, r5, r6}^
     32c:	745f656d 	ldrbvc	r6, [pc], #1389	; 334 <.debug_str+0x334>
     330:	62716400 	rsbsvs	r6, r1, #0
     334:	6974695f 	ldmdbvs	r4!, {r0, r1, r2, r3, r4, r6, r8, fp, sp, lr}^
copy_from_user():
/home/luojing/share/projects/linux_kernel_s5pv210/kernel/arch/arm/include/asm/uaccess.h:406
     338:	6400656d 	strvs	r6, [r0], #-1389	; 0x56d
open_session():
/home/luojing/share/projects/2014-01-16/trustzone/tz_driver/tz_driver.c:101
     33c:	6f6e695f 	svcvs	0x006e695f
     340:	63006564 	movwvs	r6, #1380	; 0x564
copy_from_user():
/home/luojing/share/projects/linux_kernel_s5pv210/kernel/arch/arm/include/asm/uaccess.h:406
     344:	00726f74 	rsbseq	r6, r2, r4, ror pc
     348:	6e65706f 	cdpvs	0, 6, cr7, cr5, cr15, {3}
     34c:	6e69665f 	mcrvs	6, 3, r6, cr9, cr15, {2}
     350:	5f687369 	svcpl	0x00687369
     354:	706f0030 	rsbvc	r0, pc, r0, lsr r0
/home/luojing/share/projects/linux_kernel_s5pv210/kernel/arch/arm/include/asm/uaccess.h:407
     358:	665f6e65 	ldrbvs	r6, [pc], -r5, ror #28
     35c:	73696e69 	cmnvc	r9, #1680	; 0x690
open_session():
/home/luojing/share/projects/2014-01-16/trustzone/tz_driver/tz_driver.c:100
     360:	00315f68 	eorseq	r5, r1, r8, ror #30
     364:	6e65706f 	cdpvs	0, 6, cr7, cr5, cr15, {3}
     368:	6e69665f 	mcrvs	6, 3, r6, cr9, cr15, {2}
copy_from_user():
/home/luojing/share/projects/linux_kernel_s5pv210/kernel/arch/arm/include/asm/uaccess.h:409
     36c:	5f687369 	svcpl	0x00687369
     370:	656e0032 	strbvs	r0, [lr, #-50]!	; 0x32
open_session():
/home/luojing/share/projects/2014-01-16/trustzone/tz_driver/tz_driver.c:104
     374:	66007478 	undefined instruction 0x66007478
     378:	736e6970 	cmnvc	lr, #1835008	; 0x1c0000
     37c:	63003274 	movwvs	r3, #628	; 0x274
     380:	746e756f 	strbtvc	r7, [lr], #-1391	; 0x56f
     384:	74007265 	strvc	r7, [r0], #-613	; 0x265
     388:	6e695f7a 	mcrvs	15, 3, r5, cr9, cr10, {3}
/home/luojing/share/projects/2014-01-16/trustzone/tz_driver/tz_driver.c:107
     38c:	665f7469 	ldrbvs	r7, [pc], -r9, ror #8
     390:	5f6c6961 	svcpl	0x006c6961
     394:	74730032 	ldrbtvc	r0, [r3], #-50	; 0x32
     398:	68746f5f 	ldmdavs	r4!, {r0, r1, r2, r3, r4, r6, r8, r9, sl, fp, sp, lr}^
/home/luojing/share/projects/2014-01-16/trustzone/tz_driver/tz_driver.c:111
     39c:	68007265 	stmdavs	r0, {r0, r2, r5, r6, r9, ip, sp, lr}
     3a0:	7473696c 	ldrbtvc	r6, [r3], #-2412	; 0x96c
     3a4:	646f6e5f 	strbtvs	r6, [pc], #3679	; 3ac <.debug_str+0x3ac>
     3a8:	74660065 	strbtvc	r0, [r6], #-101	; 0x65
/home/luojing/share/projects/2014-01-16/trustzone/tz_driver/tz_driver.c:112
     3ac:	65636172 	strbvs	r6, [r3, #-370]!	; 0x172
     3b0:	6576655f 	ldrbvs	r6, [r6, #-1375]!	; 0x55f
     3b4:	635f746e 	cmpvs	pc, #1845493760	; 0x6e000000
/home/luojing/share/projects/2014-01-16/trustzone/tz_driver/tz_driver.c:117
     3b8:	006c6c61 	rsbeq	r6, ip, r1, ror #24
     3bc:	69665f73 	stmdbvs	r6!, {r0, r1, r4, r5, r6, r8, r9, sl, fp, ip, lr}^
     3c0:	0073656c 	rsbseq	r6, r3, ip, ror #10
     3c4:	735f7473 	cmpvc	pc, #1929379840	; 0x73000000
     3c8:	00657a69 	rsbeq	r7, r5, r9, ror #20
     3cc:	74617473 	strbtvc	r7, [r1], #-1139	; 0x473
/home/luojing/share/projects/2014-01-16/trustzone/tz_driver/tz_driver.c:120
     3d0:	65725f65 	ldrbvs	r5, [r2, #-3941]!	; 0xf65
     3d4:	65766f6d 	ldrbvs	r6, [r6, #-3949]!	; 0xf6d
     3d8:	7665755f 	undefined instruction 0x7665755f
     3dc:	5f746e65 	svcpl	0x00746e65
kmem_cache_alloc_notrace():
/home/luojing/share/projects/linux_kernel_s5pv210/kernel/include/linux/slub_def.h:226
     3e0:	746e6573 	strbtvc	r6, [lr], #-1395	; 0x573
     3e4:	776e7500 	strbvc	r7, [lr, -r0, lsl #10]!
     3e8:	6365735f 	cmnvs	r5, #2080374785	; 0x7c000001
trace_kmalloc():
/home/luojing/share/projects/linux_kernel_s5pv210/kernel/include/trace/events/kmem.h:47
     3ec:	696e695f 	stmdbvs	lr!, {r0, r1, r2, r3, r4, r6, r8, fp, sp, lr}^
kmalloc():
/home/luojing/share/projects/linux_kernel_s5pv210/kernel/include/linux/slub_def.h:257
     3f0:	71640074 	smcvc	16388	; 0x4004
     3f4:	666f6e6f 	strbtvs	r6, [pc], -pc, ror #28
trace_kmalloc():
/home/luojing/share/projects/linux_kernel_s5pv210/kernel/include/trace/events/kmem.h:47
     3f8:	756d5f66 	strbvc	r5, [sp, #-3942]!	; 0xf66
kmalloc():
/home/luojing/share/projects/linux_kernel_s5pv210/kernel/include/linux/slub_def.h:257
     3fc:	00786574 	rsbseq	r6, r8, r4, ror r5
trace_kmalloc():
/home/luojing/share/projects/linux_kernel_s5pv210/kernel/include/trace/events/kmem.h:47
     400:	79736166 	ldmdbvc	r3!, {r1, r2, r5, r6, r8, sp, lr}^
kmem_cache_alloc_notrace():
/home/luojing/share/projects/linux_kernel_s5pv210/kernel/include/linux/slub_def.h:226
     404:	6400636e 	strvs	r6, [r0], #-878	; 0x36e
trace_kmalloc():
/home/luojing/share/projects/linux_kernel_s5pv210/kernel/include/trace/events/kmem.h:47
     408:	695f6271 	ldmdbvs	pc, {r0, r4, r5, r6, r9, sp, lr}^
rcu_read_lock_sched_notrace():
/home/luojing/share/projects/linux_kernel_s5pv210/kernel/include/linux/rcupdate.h:203
     40c:	64726168 	ldrbtvs	r6, [r2], #-360	; 0x168
     410:	696d696c 	stmdbvs	sp!, {r2, r3, r5, r6, r8, fp, sp, lr}^
     414:	6f7a0074 	svcvs	0x007a0074
trace_kmalloc():
/home/luojing/share/projects/linux_kernel_s5pv210/kernel/include/trace/events/kmem.h:47
     418:	696c656e 	stmdbvs	ip!, {r1, r2, r3, r5, r6, r8, sl, sp, lr}^
     41c:	635f7473 	cmpvs	pc, #1929379840	; 0x73000000
     420:	65686361 	strbvs	r6, [r8, #-865]!	; 0x361
     424:	76656400 	strbtvc	r6, [r5], -r0, lsl #8
     428:	7665755f 	undefined instruction 0x7665755f
     42c:	00746e65 	rsbseq	r6, r4, r5, ror #28
     430:	5f4d5044 	svcpl	0x004d5044
     434:	68004e4f 	stmdavs	r0, {r0, r1, r2, r3, r6, r9, sl, fp, lr}
     438:	68676965 	stmdavs	r7!, {r0, r2, r5, r6, r8, fp, sp, lr}^
     43c:	64620074 	strbtvs	r0, [r2], #-116	; 0x74
     440:	766e695f 	undefined instruction 0x766e695f
     444:	64696c61 	strbtvs	r6, [r9], #-3169	; 0xc61
     448:	64657461 	strbtvs	r7, [r5], #-1121	; 0x461
     44c:	615f6900 	cmpvs	pc, r0, lsl #18
current_thread_info():
/home/luojing/share/projects/linux_kernel_s5pv210/kernel/include/linux/rcupdate.h:223
     450:	656d6974 	strbvs	r6, [sp, #-2420]!	; 0x974
     454:	695f7300 	ldmdbvs	pc, {r8, r9, ip, sp, lr}^
     458:	64680064 	strbtvs	r0, [r8], #-100	; 0x64
rcu_read_unlock_sched_notrace():
     45c:	7274735f 	rsbsvc	r7, r4, #2080374785	; 0x7c000001
     460:	00746375 	rsbseq	r6, r4, r5, ror r3
     464:	5f6d756e 	svcpl	0x006d756e
test_bit():
/home/luojing/share/projects/linux_kernel_s5pv210/kernel/include/asm-generic/bitops/non-atomic.h:105
     468:	7400706b 	strvc	r7, [r0], #-107	; 0x6b
rcu_read_unlock_sched_notrace():
/home/luojing/share/projects/linux_kernel_s5pv210/kernel/include/linux/rcupdate.h:223
     46c:	736e6172 	cmnvc	lr, #-2147483620	; 0x8000001c
     470:	00726566 	rsbseq	r6, r2, r6, ror #10
     474:	74625f64 	strbtvc	r5, [r2], #-3940	; 0xf64
copy_from_user():
/home/luojing/share/projects/linux_kernel_s5pv210/kernel/arch/arm/include/asm/uaccess.h:406
     478:	72656d69 	rsbvc	r6, r5, #6720	; 0x1a40
     47c:	6f6f6c00 	svcvs	0x006f6c00
     480:	0070756b 	rsbseq	r7, r0, fp, ror #10
open_session():
/home/luojing/share/projects/2014-01-16/trustzone/tz_driver/tz_driver.c:122
     484:	75646f6d 	strbvc	r6, [r4, #-3949]!	; 0xf6d
     488:	5f73656c 	svcpl	0x0073656c
     48c:	63696877 	cmnvs	r9, #7798784	; 0x770000
/home/luojing/share/projects/2014-01-16/trustzone/tz_driver/tz_driver.c:127
     490:	73755f68 	cmnvc	r5, #416	; 0x1a0
copy_from_user():
/home/luojing/share/projects/linux_kernel_s5pv210/kernel/arch/arm/include/asm/uaccess.h:406
     494:	656d5f65 	strbvs	r5, [sp, #-3941]!	; 0xf65
open_session():
/home/luojing/share/projects/2014-01-16/trustzone/tz_driver/tz_driver.c:127
     498:	61646200 	cmnvs	r4, r0, lsl #4
copy_from_user():
/home/luojing/share/projects/linux_kernel_s5pv210/kernel/arch/arm/include/asm/uaccess.h:406
     49c:	65006174 	strvs	r6, [r0, #-372]	; 0x174
     4a0:	006d656c 	rsbeq	r6, sp, ip, ror #10
     4a4:	656e6f7a 	strbvs	r6, [lr, #-3962]!	; 0xf7a
     4a8:	65726600 	ldrbvs	r6, [r2, #-1536]!	; 0x600
     4ac:	5f657a65 	svcpl	0x00657a65
/home/luojing/share/projects/linux_kernel_s5pv210/kernel/arch/arm/include/asm/uaccess.h:407
     4b0:	72696f6e 	rsbvc	r6, r9, #440	; 0x1b8
     4b4:	6f7a0071 	svcvs	0x007a0071
open_session():
/home/luojing/share/projects/2014-01-16/trustzone/tz_driver/tz_driver.c:127
     4b8:	705f656e 	subsvc	r6, pc, lr, ror #10
     4bc:	74616467 	strbtvc	r6, [r1], #-1127	; 0x467
     4c0:	72657000 	rsbvc	r7, r5, #0
copy_from_user():
/home/luojing/share/projects/linux_kernel_s5pv210/kernel/arch/arm/include/asm/uaccess.h:409
     4c4:	7570635f 	ldrbvc	r6, [r0, #-863]!	; 0x35f
     4c8:	6761705f 	undefined instruction 0x6761705f
open_session():
/home/luojing/share/projects/2014-01-16/trustzone/tz_driver/tz_driver.c:130
     4cc:	67007365 	strvs	r7, [r0, -r5, ror #6]
     4d0:	755f7465 	ldrbvc	r7, [pc, #-1125]	; 73 <.debug_str+0x73>
     4d4:	70616d6e 	rsbvc	r6, r1, lr, ror #26
/home/luojing/share/projects/2014-01-16/trustzone/tz_driver/tz_driver.c:131
     4d8:	5f646570 	svcpl	0x00646570
/home/luojing/share/projects/2014-01-16/trustzone/tz_driver/tz_driver.c:130
     4dc:	61657261 	cmnvs	r5, r1, ror #4
/home/luojing/share/projects/2014-01-16/trustzone/tz_driver/tz_driver.c:131
     4e0:	6f6f6200 	svcvs	0x006f6200
     4e4:	5f66006c 	svcpl	0x0066006c
     4e8:	73726576 	cmnvc	r2, #494927872	; 0x1d800000
kmalloc():
/home/luojing/share/projects/linux_kernel_s5pv210/kernel/include/linux/slub_def.h:262
     4ec:	006e6f69 	rsbeq	r6, lr, r9, ror #30
     4f0:	665f6169 	ldrbvs	r6, [pc], -r9, ror #2
     4f4:	00656c69 	rsbeq	r6, r5, r9, ror #24
open_session():
/home/luojing/share/projects/2014-01-16/trustzone/tz_driver/tz_driver.c:138
     4f8:	6c5f7164 	ldfvse	f7, [pc], {100}	; 0x64
/home/luojing/share/projects/2014-01-16/trustzone/tz_driver/tz_driver.c:134
     4fc:	006b636f 	rsbeq	r6, fp, pc, ror #6
/home/luojing/share/projects/2014-01-16/trustzone/tz_driver/tz_driver.c:137
     500:	75646f6d 	strbvc	r6, [r4, #-3949]!	; 0xf6d
copy_from_user():
/home/luojing/share/projects/linux_kernel_s5pv210/kernel/arch/arm/include/asm/uaccess.h:406
     504:	6e5f656c 	cdpvs	5, 5, cr6, cr15, cr12, {3}
     508:	7365746f 	cmnvc	r5, #1862270976	; 0x6f000000
     50c:	7474615f 	ldrbtvc	r6, [r4], #-351	; 0x15f
     510:	73007372 	movwvc	r7, #882	; 0x372
     514:	64615f68 	strbtvs	r5, [r1], #-3944	; 0xf68
     518:	6c617264 	sfmvs	f7, 2, [r1], #-400	; (stclvs 2, cr7, [r1], #-400)	; 0xfffffe70
/home/luojing/share/projects/linux_kernel_s5pv210/kernel/arch/arm/include/asm/uaccess.h:407
     51c:	006e6769 	rsbeq	r6, lr, r9, ror #14
open_session():
/home/luojing/share/projects/2014-01-16/trustzone/tz_driver/tz_driver.c:136
     520:	746e6564 	strbtvc	r6, [lr], #-1380	; 0x564
     524:	73007972 	movwvc	r7, #2418	; 0x972
     528:	68735f74 	ldmdavs	r3!, {r2, r4, r5, r6, r8, r9, sl, fp, ip, lr}^
copy_from_user():
/home/luojing/share/projects/linux_kernel_s5pv210/kernel/arch/arm/include/asm/uaccess.h:409
     52c:	0078646e 	rsbseq	r6, r8, lr, ror #8
     530:	73616c63 	cmnvc	r1, #25344	; 0x6300
     534:	74615f73 	strbtvc	r5, [r1], #-3955	; 0xf73
     538:	62697274 	rsbvs	r7, r9, #1073741831	; 0x40000007
open_session():
/home/luojing/share/projects/2014-01-16/trustzone/tz_driver/tz_driver.c:139
     53c:	00657475 	rsbeq	r7, r5, r5, ror r4
     540:	656b5f5f 	strbvs	r5, [fp, #-3935]!	; 0xf5f
     544:	6c656e72 	stclvs	14, cr6, [r5], #-456	; 0xfffffe38
/home/luojing/share/projects/2014-01-16/trustzone/tz_driver/tz_driver.c:144
     548:	7a69735f 	bvc	1a5d2cc <tz_ioctl+0x1a5d080>
     54c:	00745f65 	rsbseq	r5, r4, r5, ror #30
     550:	6c615f69 	stclvs	15, cr5, [r1], #-420	; 0xfffffe5c
     554:	5f636f6c 	svcpl	0x00636f6c
/home/luojing/share/projects/2014-01-16/trustzone/tz_driver/tz_driver.c:146
     558:	5f6d6573 	svcpl	0x006d6573
/home/luojing/share/projects/2014-01-16/trustzone/tz_driver/tz_driver.c:147
     55c:	0079656b 	rsbseq	r6, r9, fp, ror #10
     560:	626d756e 	rsbvs	r7, sp, #461373440	; 0x1b800000
/home/luojing/share/projects/2014-01-16/trustzone/tz_driver/tz_driver.c:150
     564:	00737265 	rsbseq	r7, r3, r5, ror #4
/home/luojing/share/projects/2014-01-16/trustzone/tz_driver/tz_driver.c:153
     568:	5f454554 	svcpl	0x00454554
/home/luojing/share/projects/2014-01-16/trustzone/tz_driver/tz_driver.c:158
     56c:	4145504f 	cmpmi	r5, pc, asr #32
/home/luojing/share/projects/2014-01-16/trustzone/tz_driver/tz_driver.c:153
     570:	4f495452 	svcmi	0x00495452
/home/luojing/share/projects/2014-01-16/trustzone/tz_driver/tz_driver.c:154
     574:	59545f4e 	ldmdbpl	r4, {r1, r2, r3, r6, r8, r9, sl, fp, ip, lr}^
/home/luojing/share/projects/2014-01-16/trustzone/tz_driver/tz_driver.c:150
     578:	73004550 	movwvc	r4, #1360	; 0x550
/home/luojing/share/projects/2014-01-16/trustzone/tz_driver/tz_driver.c:154
     57c:	69737365 	ldmdbvs	r3!, {r0, r2, r5, r6, r8, r9, ip, sp, lr}^
/home/luojing/share/projects/2014-01-16/trustzone/tz_driver/tz_driver.c:158
     580:	635f6e6f 	cmpvs	pc, #1776	; 0x6f0
     584:	65746e6f 	ldrbvs	r6, [r4, #-3695]!	; 0xe6f
     588:	67007478 	smlsdxvs	r0, r8, r4, r7
CallTZFunction():
/home/luojing/share/projects/2014-01-16/trustzone/tz_driver/tz_driver.c:56
     58c:	615f7066 	cmpvs	pc, r6, rrx
/home/luojing/share/projects/2014-01-16/trustzone/tz_driver/tz_driver.c:57
     590:	776f6c6c 	strbvc	r6, [pc, -ip, ror #24]!
/home/luojing/share/projects/2014-01-16/trustzone/tz_driver/tz_driver.c:56
     594:	6d5f6465 	cfldrdvs	mvd6, [pc, #-404]	; 0xfffffe6c
/home/luojing/share/projects/2014-01-16/trustzone/tz_driver/tz_driver.c:58
     598:	006b7361 	rsbeq	r7, fp, r1, ror #6
/home/luojing/share/projects/2014-01-16/trustzone/tz_driver/tz_driver.c:59
     59c:	33746e69 	cmncc	r4, #1680	; 0x690
/home/luojing/share/projects/2014-01-16/trustzone/tz_driver/tz_driver.c:60
     5a0:	00745f32 	rsbseq	r5, r4, r2, lsr pc
/home/luojing/share/projects/2014-01-16/trustzone/tz_driver/tz_driver.c:72
     5a4:	746e7572 	strbtvc	r7, [lr], #-1394	; 0x572
/home/luojing/share/projects/2014-01-16/trustzone/tz_driver/tz_driver.c:73
     5a8:	5f656d69 	svcpl	0x00656d69
     5ac:	75736572 	ldrbvc	r6, [r3, #-1394]!	; 0x572
     5b0:	6700656d 	strvs	r6, [r0, -sp, ror #10]
     5b4:	70756f72 	rsbsvc	r6, r5, r2, ror pc
/home/luojing/share/projects/2014-01-16/trustzone/tz_driver/tz_driver.c:75
     5b8:	72640073 	rsbvc	r0, r4, #115	; 0x73
open_session():
/home/luojing/share/projects/2014-01-16/trustzone/tz_driver/tz_driver.c:162
     5bc:	695f706f 	ldmdbvs	pc, {r0, r1, r2, r3, r5, r6, ip, sp, lr}^
     5c0:	65646f6e 	strbvs	r6, [r4, #-3950]!	; 0xf6e
     5c4:	75637200 	strbvc	r7, [r3, #-512]!	; 0x200
     5c8:	6165725f 	cmnvs	r5, pc, asr r2
/home/luojing/share/projects/2014-01-16/trustzone/tz_driver/tz_driver.c:163
     5cc:	6e755f64 	cdpvs	15, 7, cr5, cr5, cr4, {3}
     5d0:	6b636f6c 	blvs	18dc388 <tz_ioctl+0x18dc13c>
copy_to_user():
/home/luojing/share/projects/linux_kernel_s5pv210/kernel/arch/arm/include/asm/uaccess.h:415
     5d4:	6863735f 	stmdavs	r3!, {r0, r1, r2, r3, r4, r6, r8, r9, ip, sp, lr}^
     5d8:	6e5f6465 	cdpvs	4, 5, cr6, cr15, cr5, {3}
     5dc:	6172746f 	cmnvs	r2, pc, ror #8
open_session():
/home/luojing/share/projects/2014-01-16/trustzone/tz_driver/tz_driver.c:170
     5e0:	74006563 	strvc	r6, [r0], #-1379	; 0x563
     5e4:	6f695f7a 	svcvs	0x00695f7a
     5e8:	006c7463 	rsbeq	r7, ip, r3, ror #8
     5ec:	74726170 	ldrbtvc	r6, [r2], #-368	; 0x170
copy_to_user():
/home/luojing/share/projects/linux_kernel_s5pv210/kernel/arch/arm/include/asm/uaccess.h:415
     5f0:	006c6169 	rsbeq	r6, ip, r9, ror #2
open_session():
/home/luojing/share/projects/2014-01-16/trustzone/tz_driver/tz_driver.c:171
     5f4:	72727563 	rsbsvc	r7, r2, #415236096	; 0x18c00000
copy_to_user():
/home/luojing/share/projects/linux_kernel_s5pv210/kernel/arch/arm/include/asm/uaccess.h:415
     5f8:	5f746e65 	svcpl	0x00746e65
     5fc:	65726874 	ldrbvs	r6, [r2, #-2164]!	; 0x874
     600:	695f6461 	ldmdbvs	pc, {r0, r5, r6, sl, sp, lr}^
     604:	006f666e 	rsbeq	r6, pc, lr, ror #12
     608:	63656574 	cmnvs	r5, #486539264	; 0x1d000000
/home/luojing/share/projects/linux_kernel_s5pv210/kernel/arch/arm/include/asm/uaccess.h:416
     60c:	65706f5f 	ldrbvs	r6, [r0, #-3935]!	; 0xf5f
     610:	69746172 	ldmdbvs	r4!, {r1, r4, r5, r6, r8, sp, lr}^
     614:	64006e6f 	strvs	r6, [r0], #-3695	; 0xe6f
open_session():
/home/luojing/share/projects/2014-01-16/trustzone/tz_driver/tz_driver.c:171
     618:	746f7571 	strbtvc	r7, [pc], #1393	; 620 <.debug_str+0x620>
     61c:	65706f5f 	ldrbvs	r6, [r0, #-3935]!	; 0xf5f
/home/luojing/share/projects/2014-01-16/trustzone/tz_driver/tz_driver.c:175
     620:	69746172 	ldmdbvs	r4!, {r1, r4, r5, r6, r8, sp, lr}^
     624:	00736e6f 	rsbseq	r6, r3, pc, ror #28
     628:	746f6e69 	strbtvc	r6, [pc], #3689	; 630 <.debug_str+0x630>
/home/luojing/share/projects/2014-01-16/trustzone/tz_driver/tz_driver.c:179
     62c:	5f796669 	svcpl	0x00796669
     630:	6574756d 	ldrbvs	r7, [r4, #-1389]!	; 0x56d
     634:	6c660078 	stclvs	0, cr0, [r6], #-480	; 0xfffffe20
     638:	00687375 	rsbeq	r7, r8, r5, ror r3
copy_to_user():
/home/luojing/share/projects/linux_kernel_s5pv210/kernel/arch/arm/include/asm/uaccess.h:415
     63c:	706d6f63 	rsbvc	r6, sp, r3, ror #30
open_session():
/home/luojing/share/projects/2014-01-16/trustzone/tz_driver/tz_driver.c:180
     640:	695f7461 	ldmdbvs	pc, {r0, r5, r6, sl, ip, sp, lr}^
copy_to_user():
/home/luojing/share/projects/linux_kernel_s5pv210/kernel/arch/arm/include/asm/uaccess.h:415
     644:	6c74636f 	ldclvs	3, cr6, [r4], #-444	; 0xfffffe44
     648:	69727700 	ldmdbvs	r2!, {r8, r9, sl, ip, sp, lr}^
     64c:	695f6574 	ldmdbvs	pc, {r2, r4, r5, r6, r8, sl, sp, lr}^
     650:	006f666e 	rsbeq	r6, pc, lr, ror #12
     654:	715f7366 	cmpvc	pc, r6, ror #6
/home/luojing/share/projects/linux_kernel_s5pv210/kernel/arch/arm/include/asm/uaccess.h:416
     658:	61746f75 	cmnvs	r4, r5, ror pc
     65c:	6174735f 	cmnvs	r4, pc, asr r3
     660:	65640074 	strbvs	r0, [r4, #-116]!	; 0x74
open_session():
/home/luojing/share/projects/2014-01-16/trustzone/tz_driver/tz_driver.c:180
     664:	6f727473 	svcvs	0x00727473
     668:	71645f79 	smcvc	17913	; 0x45f9
/home/luojing/share/projects/2014-01-16/trustzone/tz_driver/tz_driver.c:184
     66c:	00746f75 	rsbseq	r6, r4, r5, ror pc
     670:	616d6573 	smcvs	54867	; 0xd653
     674:	726f6870 	rsbvc	r6, pc, #7340032	; 0x700000
     678:	71640065 	cmnvc	r4, r5, rrx
     67c:	616d5f69 	cmnvs	sp, r9, ror #30
/home/luojing/share/projects/2014-01-16/trustzone/tz_driver/tz_driver.c:189
     680:	696c6278 	stmdbvs	ip!, {r3, r4, r5, r6, r9, sp, lr}^
     684:	0074696d 	rsbseq	r6, r4, sp, ror #18
/home/luojing/share/projects/2014-01-16/trustzone/tz_driver/tz_driver.c:191
     688:	635f6c66 	cmpvs	pc, #26112	; 0x6600
     68c:	61706d6f 	cmnvs	r0, pc, ror #26
/home/luojing/share/projects/2014-01-16/trustzone/tz_driver/tz_driver.c:193
     690:	6f5f6572 	svcvs	0x005f6572
     694:	72656e77 	rsbvc	r6, r5, #1904	; 0x770
     698:	65737500 	ldrbvs	r7, [r3, #-1280]!	; 0x500
     69c:	706f5f72 	rsbvc	r5, pc, r2, ror pc
     6a0:	735f6e65 	cmpvc	pc, #1616	; 0x650
tz_ioctl():
/home/luojing/share/projects/2014-01-16/trustzone/tz_driver/tz_driver.c:247
     6a4:	69737365 	ldmdbvs	r3!, {r0, r2, r5, r6, r8, r9, ip, sp, lr}^
/home/luojing/share/projects/2014-01-16/trustzone/tz_driver/tz_driver.c:248
     6a8:	645f6e6f 	ldrbvs	r6, [pc], #3695	; 6b0 <.debug_str+0x6b0>
/home/luojing/share/projects/2014-01-16/trustzone/tz_driver/tz_driver.c:247
     6ac:	00617461 	rsbeq	r7, r1, r1, ror #8
/home/luojing/share/projects/2014-01-16/trustzone/tz_driver/tz_driver.c:248
     6b0:	5f454554 	svcpl	0x00454554
     6b4:	41524150 	cmpmi	r2, r0, asr r1
/home/luojing/share/projects/2014-01-16/trustzone/tz_driver/tz_driver.c:252
     6b8:	59545f4d 	ldmdbpl	r4, {r0, r2, r3, r6, r8, r9, sl, fp, ip, lr}^
/home/luojing/share/projects/2014-01-16/trustzone/tz_driver/tz_driver.c:253
     6bc:	565f4550 	undefined instruction 0x565f4550
/home/luojing/share/projects/2014-01-16/trustzone/tz_driver/tz_driver.c:252
     6c0:	45554c41 	ldrbmi	r4, [r5, #-3137]	; 0xc41
/home/luojing/share/projects/2014-01-16/trustzone/tz_driver/tz_driver.c:253
     6c4:	504e495f 	subpl	r4, lr, pc, asr r9
     6c8:	73005455 	movwvc	r5, #1109	; 0x455
/home/luojing/share/projects/2014-01-16/trustzone/tz_driver/tz_driver.c:257
     6cc:	65766372 	ldrbvs	r6, [r6, #-882]!	; 0x372
     6d0:	6f697372 	svcvs	0x00697372
/home/luojing/share/projects/2014-01-16/trustzone/tz_driver/tz_driver.c:262
     6d4:	6178006e 	cmnvs	r8, lr, rrx
     6d8:	5f727474 	svcpl	0x00727474
     6dc:	646e6168 	strbtvs	r6, [lr], #-360	; 0x168
     6e0:	0072656c 	rsbseq	r6, r2, ip, ror #10
     6e4:	72646461 	rsbvc	r6, r4, #1627389952	; 0x61000000
     6e8:	5f737365 	svcpl	0x00737365
     6ec:	63617073 	cmnvs	r1, #115	; 0x73
     6f0:	75710065 	ldrbvc	r0, [r1, #-101]!	; 0x65
     6f4:	6361746f 	cmnvs	r1, #1862270976	; 0x6f000000
     6f8:	6f5f6c74 	svcvs	0x005f6c74
     6fc:	74007370 	strvc	r7, [r0], #-880	; 0x370
     700:	5f747365 	svcpl	0x00747365
     704:	00746962 	rsbseq	r6, r4, r2, ror #18
     708:	5f454554 	svcpl	0x00454554
     70c:	5245504f 	subpl	r5, r5, #79	; 0x4f
     710:	4f495441 	svcmi	0x00495441
     714:	504f5f4e 	subpl	r5, pc, lr, asr #30
     718:	535f4e45 	cmppl	pc, #1104	; 0x450
     71c:	49535345 	ldmdbmi	r3, {r0, r2, r6, r8, r9, ip, lr}^
     720:	72004e4f 	andvc	r4, r0, #1264	; 0x4f0
     724:	00646165 	rsbeq	r6, r4, r5, ror #2
tz_exit():
/home/luojing/share/projects/2014-01-16/trustzone/tz_driver/tz_driver.c:326
     728:	65747566 	ldrbvs	r7, [r4, #-1382]!	; 0x566
     72c:	6f700078 	svcvs	0x00700078
     730:	745f6c6c 	ldrbvc	r6, [pc], #3180	; 738 <.debug_str+0x738>
     734:	656c6261 	strbvs	r6, [ip, #-609]!	; 0x261
     738:	7274735f 	rsbsvc	r7, r4, #2080374785	; 0x7c000001
/home/luojing/share/projects/2014-01-16/trustzone/tz_driver/tz_driver.c:328
     73c:	00746375 	rsbseq	r6, r4, r5, ror r3
/home/luojing/share/projects/2014-01-16/trustzone/tz_driver/tz_driver.c:327
     740:	68745f5f 	ldmdavs	r4!, {r0, r1, r2, r3, r4, r6, r8, r9, sl, fp, ip, lr}^
     744:	6d5f7369 	ldclvs	3, cr7, [pc, #-420]	; 0xfffffe5c
/home/luojing/share/projects/2014-01-16/trustzone/tz_driver/tz_driver.c:331
     748:	6c75646f 	cfldrdvs	mvd6, [r5], #-444	; 0xfffffe44
/home/luojing/share/projects/2014-01-16/trustzone/tz_driver/tz_driver.c:328
     74c:	6d720065 	ldclvs	0, cr0, [r2, #-404]!	; 0xfffffe6c
     750:	73007074 	movwvc	r7, #116	; 0x74
/home/luojing/share/projects/2014-01-16/trustzone/tz_driver/tz_driver.c:329
     754:	6f6d755f 	svcvs	0x006d755f
     758:	5f746e75 	svcpl	0x00746e75
/home/luojing/share/projects/2014-01-16/trustzone/tz_driver/tz_driver.c:330
     75c:	0079656b 	rsbseq	r6, r9, fp, ror #10
     760:	636f6c63 	cmnvs	pc, #25344	; 0x6300
     764:	7165536b 	cmnvc	r5, fp, ror #6
/home/luojing/share/projects/2014-01-16/trustzone/tz_driver/tz_driver.c:331
     768:	4e646e41 	cdpmi	14, 6, cr6, cr4, cr1, {2}
     76c:	0065646f 	rsbeq	r6, r5, pc, ror #8
/home/luojing/share/projects/2014-01-16/trustzone/tz_driver/tz_driver.c:332
     770:	6564726f 	strbvs	r7, [r4, #-623]!	; 0x26f
     774:	71640072 	smcvc	16386	; 0x4002
/home/luojing/share/projects/2014-01-16/trustzone/tz_driver/tz_driver.c:333
     778:	6d5f6f69 	ldclvs	15, cr6, [pc, #-420]	; 0xfffffe5c
     77c:	78657475 	stmdavc	r5!, {r0, r2, r4, r5, r6, sl, ip, sp, lr}^
/home/luojing/share/projects/2014-01-16/trustzone/tz_driver/tz_driver.c:334
     780:	72657000 	rsbvc	r7, r5, #0
     784:	7570635f 	ldrbvc	r6, [r0, #-863]!	; 0x35f
     788:	6761705f 	undefined instruction 0x6761705f
/home/luojing/share/projects/2014-01-16/trustzone/tz_driver/tz_driver.c:335
     78c:	74657365 	strbtvc	r7, [r5], #-869	; 0x365
     790:	63657300 	cmnvs	r5, #0
/home/luojing/share/projects/2014-01-16/trustzone/tz_driver/tz_driver.c:336
     794:	726f635f 	rsbvc	r6, pc, #2080374785	; 0x7c000001
     798:	65745f65 	ldrbvs	r5, [r4, #-3941]!	; 0xf65
     79c:	6b007478 	blvs	1d984 <tz_ioctl+0x1d738>
     7a0:	6c6c616d 	stfvse	f6, [ip], #-436	; 0xfffffe4c
     7a4:	635f636f 	cmpvs	pc, #-1140850687	; 0xbc000001
     7a8:	65686361 	strbvs	r6, [r8, #-865]!	; 0x361
     7ac:	6f630073 	svcvs	0x00630073
     7b0:	6e616d6d 	cdpvs	13, 6, cr6, cr1, cr13, {3}
     7b4:	64695f64 	strbtvs	r5, [r9], #-3940	; 0xf64
     7b8:	5f726e00 	svcpl	0x00726e00
     7bc:	656e6f7a 	strbvs	r6, [lr, #-3962]!	; 0xf7a
     7c0:	69710073 	ldmdbvs	r1!, {r0, r1, r4, r5, r6}^
     7c4:	00745f64 	rsbseq	r5, r4, r4, ror #30
     7c8:	6170726e 	cmnvs	r0, lr, ror #4
     7cc:	00736567 	rsbseq	r6, r3, r7, ror #10
     7d0:	65657266 	strbvs	r7, [r5, #-614]!	; 0x266
     7d4:	69746100 	ldmdbvs	r4!, {r8, sp, lr}^
     7d8:	7300656d 	movwvc	r6, #1389	; 0x56d
     7dc:	5f746365 	svcpl	0x00746365
     7e0:	72747461 	rsbsvc	r7, r4, #1627389952	; 0x61000000
     7e4:	6e690073 	mcrvs	0, 3, r0, cr9, cr3, {3}
     7e8:	00786564 	rsbseq	r6, r8, r4, ror #10
     7ec:	38735f5f 	ldmdacc	r3!, {r0, r1, r2, r3, r4, r6, r8, r9, sl, fp, ip, lr}^
     7f0:	6d657200 	sfmvs	f7, 2, [r5]	; (stclvs 2, cr7, [r5])
     7f4:	746e756f 	strbtvc	r7, [lr], #-1391	; 0x56f
     7f8:	0073665f 	rsbseq	r6, r3, pc, asr r6
     7fc:	6d6d5f69 	stclvs	15, cr5, [sp, #-420]!	; 0xfffffe5c
     800:	6e5f7061 	cdpvs	0, 5, cr7, cr15, cr1, {3}
     804:	696c6e6f 	stmdbvs	ip!, {r0, r1, r2, r3, r5, r6, r9, sl, fp, sp, lr}^
     808:	7261656e 	rsbvc	r6, r1, #461373440	; 0x1b800000
     80c:	635f6900 	cmpvs	pc, #0
     810:	746e756f 	strbtvc	r7, [lr], #-1391	; 0x56f
     814:	5a545f00 	bpl	151841c <tz_ioctl+0x15181d0>
     818:	444d435f 	strbmi	r4, [sp], #-863	; 0x35f
     81c:	5441445f 	strbpl	r4, [r1], #-1119	; 0x45f
     820:	6c680041 	stclvs	0, cr0, [r8], #-260	; 0xfffffefc
     824:	5f747369 	svcpl	0x00747369
     828:	64616568 	strbtvs	r6, [r1], #-1384	; 0x568
     82c:	6e797300 	cdpvs	3, 7, cr7, cr9, cr0, {0}
     830:	61705f63 	cmnvs	r0, r3, ror #30
     834:	6b006567 	blvs	19dd8 <tz_ioctl+0x19b8c>
     838:	70617773 	rsbvc	r7, r1, r3, ror r7
     83c:	65720064 	ldrbvs	r0, [r2, #-100]!	; 0x64
     840:	7361656c 	cmnvc	r1, #452984832	; 0x1b000000
     844:	67617065 	strbvs	r7, [r1, -r5, rrx]!
     848:	70630065 	rsbvc	r0, r3, r5, rrx
     84c:	6f635f75 	svcvs	0x00635f75
     850:	7865746e 	stmdavc	r5!, {r1, r2, r3, r5, r6, sl, ip, sp, lr}^
     854:	61735f74 	cmnvs	r3, r4, ror pc
     858:	64006576 	strvs	r6, [r0], #-1398	; 0x576
     85c:	6f6e695f 	svcvs	0x006e695f
     860:	7261685f 	rsbvc	r6, r1, #6225920	; 0x5f0000
     864:	6d696c64 	stclvs	12, cr6, [r9, #-400]!	; 0xfffffe70
     868:	5f007469 	svcpl	0x00007469
     86c:	6172745f 	cmnvs	r2, pc, asr r4
     870:	6f706563 	svcvs	0x00706563
     874:	5f746e69 	svcpl	0x00746e69
     878:	6c616d6b 	stclvs	13, cr6, [r1], #-428	; 0xfffffe54
     87c:	00636f6c 	rsbeq	r6, r3, ip, ror #30
     880:	656b5f5f 	strbvs	r5, [fp, #-3935]!	; 0xf5f
     884:	6c656e72 	stclvs	14, cr6, [r5], #-456	; 0xfffffe38
     888:	6469755f 	strbtvs	r7, [r9], #-1375	; 0x55f
     88c:	745f3233 	ldrbvc	r3, [pc], #563	; 894 <.debug_str+0x894>
     890:	5f6c6600 	svcpl	0x006c6600
     894:	6e616863 	cdpvs	8, 6, cr6, cr1, cr3, {3}
     898:	43006567 	movwmi	r6, #1383	; 0x567
     89c:	4e45494c 	cdpmi	9, 4, cr4, cr5, cr12, {2}
     8a0:	41445f54 	cmpmi	r4, r4, asr pc
     8a4:	62004154 	andvs	r4, r0, #21
     8a8:	745f7375 	ldrbvc	r7, [pc], #885	; 8b0 <.debug_str+0x8b0>
     8ac:	00657079 	rsbeq	r7, r5, r9, ror r0
     8b0:	656e776f 	strbvs	r7, [lr, #-1903]!	; 0x76f
     8b4:	70635f72 	rsbvc	r5, r3, r2, ror pc
     8b8:	6f700075 	svcvs	0x00700075
     8bc:	6f726577 	svcvs	0x00726577
     8c0:	6e5f6666 	cdpvs	6, 5, cr6, cr15, cr6, {3}
     8c4:	7172696f 	cmnvc	r2, pc, ror #18
     8c8:	656d6b00 	strbvs	r6, [sp, #-2816]!	; 0xb00
     8cc:	61635f6d 	cmnvs	r3, sp, ror #30
     8d0:	5f656863 	svcpl	0x00656863
     8d4:	65646f6e 	strbvs	r6, [r4, #-3950]!	; 0xf6e
     8d8:	6c5f7300 	mrrcvs	3, 0, r7, pc, cr0
     8dc:	00747369 	rsbseq	r7, r4, r9, ror #6
     8e0:	64697575 	strbtvs	r7, [r9], #-1397	; 0x575
     8e4:	665f6400 	ldrbvs	r6, [pc], -r0, lsl #8
     8e8:	646c6569 	strbtvs	r6, [ip], #-1385	; 0x569
     8ec:	6b73616d 	blvs	1cd8ea8 <tz_ioctl+0x1cd8c5c>
     8f0:	61747300 	cmnvs	r4, r0, lsl #6
     8f4:	695f6574 	ldmdbvs	pc, {r2, r4, r5, r6, r8, sl, sp, lr}^
     8f8:	79735f6e 	ldmdbvc	r3!, {r1, r2, r3, r5, r6, r8, r9, sl, fp, ip, lr}^
     8fc:	00736673 	rsbseq	r6, r3, r3, ror r6
     900:	696c7073 	stmdbvs	ip!, {r0, r1, r4, r5, r6, ip, sp, lr}^
     904:	725f6563 	subsvc	r6, pc, #415236096	; 0x18c00000
     908:	00646165 	rsbeq	r6, r4, r5, ror #2
     90c:	63617274 	cmnvs	r1, #1073741831	; 0x40000007
     910:	70625f65 	rsbvc	r5, r2, r5, ror #30
     914:	746e6972 	strbtvc	r6, [lr], #-2418	; 0x972
     918:	6d665f6b 	stclvs	15, cr5, [r6, #-428]!	; 0xfffffe54
     91c:	74735f74 	ldrbtvc	r5, [r3], #-3956	; 0xf74
     920:	00747261 	rsbseq	r7, r4, r1, ror #4
     924:	72775f69 	rsbsvc	r5, r7, #420	; 0x1a4
     928:	63657469 	cmnvs	r5, #1761607680	; 0x69000000
     92c:	746e756f 	strbtvc	r7, [lr], #-1391	; 0x56f
     930:	6f696100 	svcvs	0x00696100
     934:	6972775f 	ldmdbvs	r2!, {r0, r1, r2, r3, r4, r6, r8, r9, sl, ip, sp, lr}^
     938:	73006574 	movwvc	r6, #1396	; 0x574
     93c:	7463615f 	strbtvc	r6, [r3], #-351	; 0x15f
     940:	00657669 	rsbeq	r7, r5, r9, ror #12
     944:	72747461 	rsbsvc	r7, r4, #1627389952	; 0x61000000
     948:	44495000 	strbmi	r5, [r9]
     94c:	45505954 	ldrbmi	r5, [r0, #-2388]	; 0x954
     950:	4947505f 	stmdbmi	r7, {r0, r1, r2, r3, r4, r6, ip, lr}^
     954:	5f5f0044 	svcpl	0x005f0044
     958:	63617274 	cmnvs	r1, #1073741831	; 0x40000007
     95c:	696f7065 	stmdbvs	pc!, {r0, r2, r5, r6, ip, sp, lr}^
     960:	6d5f746e 	cfldrdvs	mvd7, [pc, #-440]	; 0xfffffe48
     964:	61705f6d 	cmnvs	r0, sp, ror #30
     968:	615f6567 	cmpvs	pc, r7, ror #10
     96c:	636f6c6c 	cmnvs	pc, #27648	; 0x6c00
     970:	5f756600 	svcpl	0x00756600
     974:	68756372 	ldmdavs	r5!, {r1, r4, r5, r6, r8, r9, sp, lr}^
     978:	00646165 	rsbeq	r6, r4, r5, ror #2
     97c:	706f5f73 	rsbvc	r5, pc, r3, ror pc
     980:	646f6d00 	strbtvs	r6, [pc], #3328	; 988 <.debug_str+0x988>
     984:	6f666e69 	svcvs	0x00666e69
     988:	7474615f 	ldrbtvc	r6, [r4], #-351	; 0x15f
     98c:	72007372 	andvc	r7, r0, #-939524095	; 0xc8000001
     990:	6e656365 	cdpvs	3, 6, cr6, cr5, cr5, {3}
     994:	63735f74 	cmnvs	r3, #464	; 0x1d0
     998:	656e6e61 	strbvs	r6, [lr, #-3681]!	; 0xe61
     99c:	5f5f0064 	svcpl	0x005f0064
     9a0:	72003875 	andvc	r3, r0, #7667712	; 0x750000
     9a4:	78696461 	stmdavc	r9!, {r0, r5, r6, sl, sp, lr}^
     9a8:	6572745f 	ldrbvs	r7, [r2, #-1119]!	; 0x45f
     9ac:	6f6e5f65 	svcvs	0x006e5f65
     9b0:	73006564 	movwvc	r6, #1380	; 0x564
     9b4:	73667379 	cmnvc	r6, #-469762047	; 0xe4000001
     9b8:	73706f5f 	cmnvc	r0, #380	; 0x17c
     9bc:	5f737100 	svcpl	0x00737100
     9c0:	72617769 	rsbvc	r7, r1, #27525120	; 0x1a40000
     9c4:	6d696c6e 	stclvs	12, cr6, [r9, #-440]!	; 0xfffffe48
     9c8:	69007469 	stmdbvs	r0, {r0, r3, r5, r6, sl, ip, sp, lr}
     9cc:	6564725f 	strbvs	r7, [r4, #-607]!	; 0x25f
     9d0:	6c6c0076 	stclvs	0, cr0, [ip], #-472	; 0xfffffe28
     9d4:	6b656573 	blvs	1959fa8 <tz_ioctl+0x1959d5c>
     9d8:	616c7000 	cmnvs	ip, r0
     9dc:	726f6674 	rsbvc	r6, pc, #121634816	; 0x7400000
     9e0:	61645f6d 	cmnvs	r4, sp, ror #30
     9e4:	66006174 	undefined instruction 0x66006174
     9e8:	796d5f6c 	stmdbvc	sp!, {r2, r3, r5, r6, r8, r9, sl, fp, ip, lr}^
     9ec:	7361656c 	cmnvc	r1, #452984832	; 0x1b000000
     9f0:	6f6c0065 	svcvs	0x006c0065
     9f4:	5f6c6163 	svcpl	0x006c6163
     9f8:	65646f6e 	strbvs	r6, [r4, #-3950]!	; 0xf6e
     9fc:	62716400 	rsbsvs	r6, r1, #0
     a00:	6c61765f 	stclvs	6, cr7, [r1], #-380	; 0xfffffe84
     a04:	69006469 	stmdbvs	r0, {r0, r3, r5, r6, sl, sp, lr}
     a08:	65646f6e 	strbvs	r6, [r4, #-3950]!	; 0xf6e
     a0c:	696c6100 	stmdbvs	ip!, {r8, sp, lr}^
     a10:	6e006e67 	cdpvs	14, 0, cr6, cr0, cr7, {3}
     a14:	665f7366 	ldrbvs	r7, [pc], -r6, ror #6
     a18:	7164006c 	cmnvc	r4, ip, rrx
     a1c:	72705f69 	rsbsvc	r5, r0, #420	; 0x1a4
     a20:	75007669 	strvc	r7, [r0, #-1641]	; 0x669
     a24:	6e696c6e 	cdpvs	12, 6, cr6, cr9, cr14, {3}
     a28:	6c66006b 	stclvs	0, cr0, [r6], #-428	; 0xfffffe54
     a2c:	6172675f 	cmnvs	r2, pc, asr r7
     a30:	6e00746e 	cdpvs	4, 0, cr7, cr0, cr14, {3}
     a34:	6c735f72 	ldclvs	15, cr5, [r3], #-456	; 0xfffffe38
     a38:	00736261 	rsbseq	r6, r3, r1, ror #4
     a3c:	72665f73 	rsbvc	r5, r6, #460	; 0x1cc
     a40:	6e657a6f 	vnmulvs.f32	s15, s10, s31
     a44:	6c614300 	stclvs	3, cr4, [r1]
     a48:	465a546c 	ldrbmi	r5, [sl], -ip, ror #8
     a4c:	74636e75 	strbtvc	r6, [r3], #-3701	; 0xe75
     a50:	006e6f69 	rsbeq	r6, lr, r9, ror #30
     a54:	63746162 	cmnvs	r4, #-2147483624	; 0x80000018
     a58:	75660068 	strbvc	r0, [r6, #-104]!	; 0x68
     a5c:	73696c5f 	cmnvc	r9, #24320	; 0x5f00
     a60:	72640074 	rsbvc	r0, r4, #116	; 0x74
     a64:	72657669 	rsbvc	r7, r5, #110100480	; 0x6900000
     a68:	615f7300 	cmpvs	pc, r0, lsl #6
     a6c:	006e6f6e 	rsbeq	r6, lr, lr, ror #30
     a70:	61636f6c 	cmnvs	r3, ip, ror #30
     a74:	00745f6c 	rsbseq	r5, r4, ip, ror #30
     a78:	65707573 	ldrbvs	r7, [r0, #-1395]!	; 0x573
     a7c:	6c625f72 	stclvs	15, cr5, [r2], #-456	; 0xfffffe38
     a80:	006b636f 	rsbeq	r6, fp, pc, ror #6
     a84:	5f4d5044 	svcpl	0x004d5044
     a88:	50535553 	subspl	r5, r3, r3, asr r5
     a8c:	49444e45 	stmdbmi	r4, {r0, r2, r6, r9, sl, fp, lr}^
     a90:	7300474e 	movwvc	r4, #1870	; 0x74e
     a94:	6c756f68 	ldclvs	15, cr6, [r5], #-416	; 0xfffffe60
     a98:	61775f64 	cmnvs	r7, r4, ror #30
     a9c:	7075656b 	rsbsvc	r6, r5, fp, ror #10
     aa0:	61727400 	cmnvs	r2, r0, lsl #8
     aa4:	6f706563 	svcvs	0x00706563
     aa8:	00746e69 	rsbseq	r6, r4, r9, ror #28
     aac:	6c665f69 	stclvs	15, cr5, [r6], #-420	; 0xfffffe5c
     ab0:	006b636f 	rsbeq	r6, fp, pc, ror #6
     ab4:	74766564 	ldrbtvc	r6, [r6], #-1380	; 0x564
     ab8:	645f6900 	ldrbvs	r6, [pc], #2304	; ac0 <.debug_str+0xac0>
     abc:	72746e65 	rsbsvc	r6, r4, #1616	; 0x650
     ac0:	6f6c0079 	svcvs	0x006c0079
     ac4:	635f6b63 	cmpvs	pc, #101376	; 0x18c00
     ac8:	7373616c 	cmnvc	r3, #27
     acc:	79656b5f 	stmdbvc	r5!, {r0, r1, r2, r3, r4, r6, r8, r9, fp, sp, lr}^
     ad0:	646f6e00 	strbtvs	r6, [pc], #3584	; ad8 <.debug_str+0xad8>
     ad4:	64695f65 	strbtvs	r5, [r9], #-3941	; 0xf65
     ad8:	45455400 	strbmi	r5, [r5, #-1024]	; 0x400
     adc:	45504f5f 	ldrbmi	r4, [r0, #-3935]	; 0xf5f
     ae0:	49544152 	ldmdbmi	r4, {r1, r4, r6, r8, lr}^
     ae4:	495f4e4f 	ldmdbmi	pc, {r0, r1, r2, r3, r6, r9, sl, fp, lr}^
     ae8:	4b4f564e 	blmi	13d6428 <tz_ioctl+0x13d61dc>
     aec:	4f435f45 	svcmi	0x00435f45
     af0:	4e414d4d 	cdpmi	13, 4, cr4, cr1, cr13, {2}
     af4:	5f730044 	svcpl	0x00730044
     af8:	646f6e69 	strbtvs	r6, [pc], #3689	; b00 <.debug_str+0xb00>
     afc:	70007365 	andvc	r7, r0, r5, ror #6
     b00:	61766972 	cmnvs	r6, r2, ror r9
     b04:	6c5f6574 	cfldr64vs	mvdx6, [pc], {116}	; 0x74
     b08:	00747369 	rsbseq	r7, r4, r9, ror #6
     b0c:	69766564 	ldmdbvs	r6!, {r2, r5, r6, r8, sl, sp, lr}^
     b10:	615f6563 	cmpvs	pc, r3, ror #10
     b14:	69727474 	ldmdbvs	r2!, {r2, r4, r5, r6, sl, ip, sp, lr}^
     b18:	65747562 	ldrbvs	r7, [r4, #-1378]!	; 0x562
     b1c:	65696600 	strbvs	r6, [r9, #-1536]!	; 0x600
     b20:	5f70616d 	svcpl	0x0070616d
     b24:	65747865 	ldrbvs	r7, [r4, #-2149]!	; 0x865
     b28:	6900746e 	stmdbvs	r0, {r1, r2, r3, r5, r6, sl, ip, sp, lr}
     b2c:	69746f6e 	ldmdbvs	r4!, {r1, r2, r3, r5, r6, r8, r9, sl, fp, sp, lr}^
     b30:	775f7966 	ldrbvc	r7, [pc, -r6, ror #18]
     b34:	68637461 	stmdavs	r3!, {r0, r5, r6, sl, ip, sp, lr}^
     b38:	62007365 	andvs	r7, r0, #-1811939327	; 0x94000001
     b3c:	706f5f64 	rsbvc	r5, pc, r4, ror #30
     b40:	72656e65 	rsbvc	r6, r5, #1616	; 0x650
     b44:	6f6d0073 	svcvs	0x006d0073
     b48:	72006564 	andvc	r6, r0, #419430400	; 0x19000000
     b4c:	6f747365 	svcvs	0x00747365
     b50:	6e5f6572 	mrcvs	5, 2, r6, cr15, cr2, {3}
     b54:	7172696f 	cmnvc	r2, pc, ror #18
     b58:	6b5f5f00 	blvs	17d8760 <tz_ioctl+0x17d8514>
     b5c:	656e7265 	strbvs	r7, [lr, #-613]!	; 0x265
     b60:	6f6c5f6c 	svcvs	0x006c5f6c
     b64:	745f6666 	ldrbvc	r6, [pc], #1638	; b6c <.debug_str+0xb6c>
     b68:	5f6c6600 	svcpl	0x006c6600
     b6c:	656e776f 	strbvs	r7, [lr, #-1903]!	; 0x76f
     b70:	00745f72 	rsbseq	r5, r4, r2, ror pc
     b74:	75646f6d 	strbvc	r6, [r4, #-3949]!	; 0xf6d
     b78:	735f656c 	cmpvc	pc, #452984832	; 0x1b000000
     b7c:	65746174 	ldrbvs	r6, [r4, #-372]!	; 0x174
     b80:	61636400 	cmnvs	r3, r0, lsl #8
     b84:	5f656863 	svcpl	0x00656863
     b88:	6b636f6c 	blvs	18dc940 <tz_ioctl+0x18dc6f4>
     b8c:	626f6b00 	rsbvs	r6, pc, #0
     b90:	6572006a 	ldrbvs	r0, [r2, #-106]!	; 0x6a
     b94:	69616c63 	stmdbvs	r1!, {r0, r1, r5, r6, sl, fp, sp, lr}^
     b98:	74735f6d 	ldrbtvc	r5, [r3], #-3949	; 0xf6d
     b9c:	66007461 	strvs	r7, [r0], -r1, ror #8
     ba0:	776f5f6c 	strbvc	r5, [pc, -ip, ror #30]!
     ba4:	0072656e 	rsbseq	r6, r2, lr, ror #10
     ba8:	5f746567 	svcpl	0x00746567
     bac:	6564726f 	strbvs	r7, [r4, #-623]!	; 0x26f
     bb0:	6e690072 	mcrvs	0, 3, r0, cr9, cr2, {3}
     bb4:	74006f66 	strvc	r6, [r0], #-3942	; 0xf66
     bb8:	6e695f7a 	mcrvs	15, 3, r5, cr9, cr10, {3}
     bbc:	665f7469 	ldrbvs	r7, [pc], -r9, ror #8
     bc0:	5f6c6961 	svcpl	0x006c6961
     bc4:	7a740030 	bvc	1d00c8c <tz_ioctl+0x1d00a40>
     bc8:	696e695f 	stmdbvs	lr!, {r0, r1, r2, r3, r4, r6, r8, fp, sp, lr}^
     bcc:	61665f74 	smcvs	26100	; 0x65f4
     bd0:	315f6c69 	cmpcc	pc, r9, ror #24
     bd4:	5f7a7400 	svcpl	0x007a7400
     bd8:	74696e69 	strbtvc	r6, [r9], #-3689	; 0xe69
     bdc:	6961665f 	stmdbvs	r1!, {r0, r1, r2, r3, r4, r6, r9, sl, sp, lr}^
     be0:	00335f6c 	eorseq	r5, r3, ip, ror #30
     be4:	72745f5f 	rsbsvc	r5, r4, #380	; 0x17c
     be8:	70656361 	rsbvc	r6, r5, r1, ror #6
     bec:	746e696f 	strbtvc	r6, [lr], #-2415	; 0x96f
     bf0:	5f6d6d5f 	svcpl	0x006d6d5f
     bf4:	65676170 	strbvs	r6, [r7, #-368]!	; 0x170
     bf8:	6c6c615f 	stfvse	f6, [ip], #-380	; 0xfffffe84
     bfc:	655f636f 	ldrbvs	r6, [pc, #-879]	; 895 <.debug_str+0x895>
     c00:	72667478 	rsbvc	r7, r6, #2013265920	; 0x78000000
     c04:	61006761 	tstvs	r0, r1, ror #14
     c08:	696d6f74 	stmdbvs	sp!, {r2, r4, r5, r6, r8, r9, sl, fp, sp, lr}^
     c0c:	00745f63 	rsbseq	r5, r4, r3, ror #30
     c10:	74725f64 	ldrbtvc	r5, [r2], #-3940	; 0xf64
     c14:	6d697462 	cfstrdvs	mvd7, [r9, #-392]!	; 0xfffffe78
     c18:	70007265 	andvc	r7, r0, r5, ror #4
     c1c:	5f737968 	svcpl	0x00737968
     c20:	72646461 	rsbvc	r6, r4, #1627389952	; 0x61000000
     c24:	7500745f 	strvc	r7, [r0, #-1119]	; 0x45f
     c28:	6769736e 	strbvs	r7, [r9, -lr, ror #6]!
     c2c:	2064656e 	rsbcs	r6, r4, lr, ror #10
     c30:	72616863 	rsbvc	r6, r1, #6488064	; 0x630000
     c34:	70786500 	rsbsvc	r6, r8, r0, lsl #10
     c38:	5f74726f 	svcpl	0x0074726f
     c3c:	7265706f 	rsbvc	r7, r5, #111	; 0x6f
     c40:	6f697461 	svcvs	0x00697461
     c44:	6600736e 	strvs	r7, [r0], -lr, ror #6
     c48:	6c665f69 	stclvs	15, cr5, [r6], #-420	; 0xfffffe5c
     c4c:	00736761 	rsbseq	r6, r3, r1, ror #14
     c50:	6e5f6c66 	cdpvs	12, 5, cr6, cr15, cr6, {3}
     c54:	64697073 	strbtvs	r7, [r9], #-115	; 0x73
     c58:	69617700 	stmdbvs	r1!, {r8, r9, sl, ip, sp, lr}^
     c5c:	696c5f74 	stmdbvs	ip!, {r2, r4, r5, r6, r8, r9, sl, fp, ip, lr}^
     c60:	62007473 	andvs	r7, r0, #1929379840	; 0x73000000
     c64:	69736b6c 	ldmdbvs	r3!, {r2, r3, r5, r6, r8, r9, fp, sp, lr}^
     c68:	6600657a 	undefined instruction 0x6600657a
     c6c:	70757869 	rsbsvc	r7, r5, r9, ror #16
     c70:	6c777200 	lfmvs	f7, 2, [r7]	; (ldclvs 2, cr7, [r7])
     c74:	5f6b636f 	svcpl	0x006b636f
     c78:	75710074 	ldrbvc	r0, [r1, #-116]!	; 0x74
     c7c:	5f61746f 	svcpl	0x0061746f
     c80:	6f666e69 	svcvs	0x00666e69
     c84:	61657200 	cmnvs	r5, r0, lsl #4
     c88:	65645f64 	strbvs	r5, [r4, #-3940]!	; 0xf64
     c8c:	69726373 	ldmdbvs	r2!, {r0, r1, r4, r5, r6, r8, r9, sp, lr}^
     c90:	726f7470 	rsbvc	r7, pc, #1879048192	; 0x70000000
     c94:	6400745f 	strvs	r7, [r0], #-1119	; 0x45f
     c98:	645f6971 	ldrbvs	r6, [pc], #2417	; ca0 <.debug_str+0xca0>
     c9c:	79747269 	ldmdbvc	r4!, {r0, r3, r5, r6, r9, ip, sp, lr}^
     ca0:	73696c5f 	cmnvc	r9, #24320	; 0x5f00
     ca4:	5f5f0074 	svcpl	0x005f0074
     ca8:	6e72656b 	cdpvs	5, 7, cr6, cr2, cr11, {3}
     cac:	645f6c65 	ldrbvs	r6, [pc], #3173	; cb4 <.debug_str+0xcb4>
     cb0:	745f7665 	ldrbvc	r7, [pc], #1637	; cb8 <.debug_str+0xcb8>
     cb4:	6f726400 	svcvs	0x00726400
     cb8:	65730070 	ldrbvs	r0, [r3, #-112]!	; 0x70
     cbc:	69665f71 	stmdbvs	r6!, {r0, r4, r5, r6, r8, r9, sl, fp, ip, lr}^
     cc0:	6300656c 	movwvs	r6, #1388	; 0x56c
     cc4:	7373616c 	cmnvc	r3, #27
     cc8:	745f5f00 	ldrbvc	r5, [pc], #3840	; cd0 <.debug_str+0xcd0>
     ccc:	65636172 	strbvs	r6, [r3, #-370]!	; 0x172
     cd0:	6e696f70 	mcrvs	15, 3, r6, cr9, cr0, {3}
     cd4:	6d6d5f74 	stclvs	15, cr5, [sp, #-464]!	; 0xfffffe30
     cd8:	6761705f 	undefined instruction 0x6761705f
     cdc:	63705f65 	cmnvs	r0, #404	; 0x194
     ce0:	645f7570 	ldrbvs	r7, [pc], #1392	; ce8 <.debug_str+0xce8>
     ce4:	6e696172 	mcrvs	1, 3, r6, cr9, cr2, {3}
     ce8:	79736100 	ldmdbvc	r3!, {r8, sp, lr}^
     cec:	735f636e 	cmpvc	pc, #-1207959551	; 0xb8000001
     cf0:	00657a69 	rsbeq	r7, r5, r9, ror #20
     cf4:	5f757063 	svcpl	0x00757063
     cf8:	746e6f63 	strbtvc	r6, [lr], #-3939	; 0xf63
     cfc:	00747865 	rsbseq	r7, r4, r5, ror #16
     d00:	72745f5f 	rsbsvc	r5, r4, #380	; 0x17c
     d04:	70656361 	rsbvc	r6, r5, r1, ror #6
     d08:	746e696f 	strbtvc	r6, [lr], #-2415	; 0x96f
     d0c:	5f6d6d5f 	svcpl	0x006d6d5f
     d10:	65676170 	strbvs	r6, [r7, #-368]!	; 0x170
     d14:	6572665f 	ldrbvs	r6, [r2, #-1631]!	; 0x65f
     d18:	69645f65 	stmdbvs	r4!, {r0, r2, r5, r6, r8, r9, sl, fp, ip, lr}^
     d1c:	74636572 	strbtvc	r6, [r3], #-1394	; 0x572
     d20:	72706600 	rsbsvc	r6, r0, #0
     d24:	00736765 	rsbseq	r6, r3, r5, ror #14
     d28:	7261706b 	rsbvc	r7, r1, #107	; 0x6b
     d2c:	615f6d61 	cmpvs	pc, r1, ror #26
     d30:	79617272 	stmdbvc	r1!, {r1, r4, r5, r6, r9, ip, sp, lr}^
     d34:	675f6900 	ldrbvs	r6, [pc, -r0, lsl #18]
     d38:	72656e65 	rsbvc	r6, r5, #1616	; 0x650
     d3c:	6f697461 	svcvs	0x00697461
     d40:	6573006e 	ldrbvs	r0, [r3, #-110]!	; 0x6e
     d44:	74617874 	strbtvc	r7, [r1], #-2164	; 0x874
     d48:	65007274 	strvs	r7, [r0, #-628]	; 0x274
     d4c:	736d656c 	cmnvc	sp, #452984832	; 0x1b000000
     d50:	00657a69 	rsbeq	r7, r5, r9, ror #20
     d54:	746f7571 	strbtvc	r7, [pc], #1393	; d5c <.debug_str+0xd5c>
     d58:	79735f61 	ldmdbvc	r3!, {r0, r5, r6, r8, r9, sl, fp, ip, lr}^
     d5c:	6900636e 	stmdbvs	r0, {r1, r2, r3, r5, r6, r8, r9, sp, lr}
     d60:	74756d5f 	ldrbtvc	r6, [r5], #-3423	; 0xd5f
     d64:	645f7865 	ldrbvs	r7, [pc], #2149	; d6c <.debug_str+0xd6c>
     d68:	6b5f7269 	blvs	17dd714 <tz_ioctl+0x17dd4c8>
     d6c:	74007965 	strvc	r7, [r0], #-2405	; 0x965
     d70:	48656d69 	stmdami	r5!, {r0, r3, r5, r6, r8, sl, fp, sp, lr}^
     d74:	646e4169 	strbtvs	r4, [lr], #-361	; 0x169
     d78:	73726556 	cmnvc	r2, #360710144	; 0x15800000
     d7c:	006e6f69 	rsbeq	r6, lr, r9, ror #30
     d80:	756d5f69 	strbvc	r5, [sp, #-3945]!	; 0xf69
     d84:	00786574 	rsbseq	r6, r8, r4, ror r5
     d88:	5f6d6c6e 	svcpl	0x006d6c6e
     d8c:	6b636f6c 	blvs	18dcb44 <tz_ioctl+0x18dc8f8>
     d90:	656e776f 	strbvs	r7, [lr, #-1903]!	; 0x76f
     d94:	5f5f0072 	svcpl	0x005f0072
     d98:	63617274 	cmnvs	r1, #1073741831	; 0x40000007
     d9c:	696f7065 	stmdbvs	pc!, {r0, r2, r5, r6, ip, sp, lr}^
     da0:	6d5f746e 	cfldrdvs	mvd7, [pc, #-440]	; 0xfffffe48
     da4:	6c75646f 	cfldrdvs	mvd6, [r5], #-444	; 0xfffffe44
     da8:	6f6c5f65 	svcvs	0x006c5f65
     dac:	73006461 	movwvc	r6, #1121	; 0x461
     db0:	6f6d755f 	svcvs	0x006d755f
     db4:	00746e75 	rsbseq	r6, r4, r5, ror lr
     db8:	696c7073 	stmdbvs	ip!, {r0, r1, r4, r5, r6, ip, sp, lr}^
     dbc:	775f6563 	ldrbvc	r6, [pc, -r3, ror #10]
     dc0:	65746972 	ldrbvs	r6, [r4, #-2418]!	; 0x972
     dc4:	675f6900 	ldrbvs	r6, [pc, -r0, lsl #18]
     dc8:	63006469 	movwvs	r6, #1129	; 0x469
     dcc:	625f7570 	subsvs	r7, pc, #469762048	; 0x1c000000
     dd0:	625f7469 	subsvs	r7, pc, #1761607680	; 0x69000000
     dd4:	616d7469 	cmnvs	sp, r9, ror #8
     dd8:	4f5f0070 	svcmi	0x005f0070
     ddc:	5f4e4550 	svcpl	0x004e4550
     de0:	53534553 	cmppl	r3, #348127232	; 0x14c00000
     de4:	5f4e4f49 	svcpl	0x004e4f49
     de8:	41544144 	cmpmi	r4, r4, asr #2
     dec:	5f687300 	svcpl	0x00687300
     df0:	6f666e69 	svcvs	0x00666e69
     df4:	665f6900 	ldrbvs	r6, [pc], -r0, lsl #18
     df8:	7300706f 	movwvc	r7, #111	; 0x6f
     dfc:	6964625f 	stmdbvs	r4!, {r0, r1, r2, r3, r4, r6, r9, sp, lr}^
     e00:	5f667100 	svcpl	0x00667100
     e04:	7478656e 	ldrbtvc	r6, [r8], #-1390	; 0x56e
     e08:	65736b00 	ldrbvs	r6, [r3, #-2816]!	; 0xb00
     e0c:	65755f74 	ldrbvs	r5, [r5, #-3956]!	; 0xf74
     e10:	746e6576 	strbtvc	r6, [lr], #-1398	; 0x576
     e14:	73706f5f 	cmnvc	r0, #380	; 0x17c
     e18:	646f6d00 	strbtvs	r6, [pc], #3328	; e20 <.debug_str+0xe20>
     e1c:	5f656c75 	svcpl	0x00656c75
     e20:	65726f63 	ldrbvs	r6, [r2, #-3939]!	; 0xf63
     e24:	6f6c6600 	svcvs	0x006c6600
     e28:	68006b63 	stmdavs	r0, {r0, r1, r5, r6, r8, r9, fp, sp, lr}
     e2c:	00686769 	rsbeq	r6, r8, r9, ror #14
     e30:	74636573 	strbtvc	r6, [r3], #-1395	; 0x573
     e34:	745f726f 	ldrbvc	r7, [pc], #623	; e3c <.debug_str+0xe3c>
     e38:	75726300 	ldrbvc	r6, [r2, #-768]!	; 0x300
     e3c:	5f68636e 	svcpl	0x0068636e
     e40:	74617473 	strbtvc	r7, [r1], #-1139	; 0x473
     e44:	6e690065 	cdpvs	0, 6, cr0, cr9, cr5, {3}
     e48:	73007469 	movwvc	r7, #1129	; 0x469
     e4c:	74726174 	ldrbtvc	r6, [r2], #-372	; 0x174
     e50:	64006465 	strvs	r6, [r0], #-1125	; 0x465
     e54:	725f7665 	subsvc	r7, pc, #105906176	; 0x6500000
     e58:	61656c65 	cmnvs	r5, r5, ror #24
     e5c:	64006573 	strvs	r6, [r0], #-1395	; 0x573
     e60:	625f6971 	subsvs	r6, pc, #1851392	; 0x1c4000
     e64:	63617267 	cmnvs	r1, #1879048198	; 0x70000006
     e68:	73710065 	cmnvc	r1, #101	; 0x65
     e6c:	5f657a69 	svcpl	0x00657a69
     e70:	5f660074 	svcpl	0x00660074
     e74:	67616c66 	strbvs	r6, [r1, -r6, ror #24]!
     e78:	6c610073 	stclvs	0, cr0, [r1], #-460	; 0xfffffe34
     e7c:	5f636f6c 	svcpl	0x00636f6c
     e80:	6f757164 	svcvs	0x00757164
     e84:	72700074 	rsbsvc	r0, r0, #116	; 0x74
     e88:	0065626f 	rsbeq	r6, r5, pc, ror #4
     e8c:	69776e75 	ldmdbvs	r7!, {r0, r2, r4, r5, r6, r9, sl, fp, sp, lr}^
     e90:	635f646e 	cmpvs	pc, #1845493760	; 0x6e000000
     e94:	0065726f 	rsbeq	r7, r5, pc, ror #4
     e98:	65657266 	strbvs	r7, [r5, #-614]!	; 0x266
     e9c:	6c69665f 	stclvs	6, cr6, [r9], #-380	; 0xfffffe84
     ea0:	6e695f65 	cdpvs	15, 6, cr5, cr9, cr5, {3}
     ea4:	73006f66 	movwvc	r6, #3942	; 0xf66
     ea8:	696c6269 	stmdbvs	ip!, {r0, r3, r5, r6, r9, sp, lr}^
     eac:	6400676e 	strvs	r6, [r0], #-1902	; 0x76e
     eb0:	616e645f 	cmnvs	lr, pc, asr r4
     eb4:	6400656d 	strvs	r6, [r0], #-1389	; 0x56d
     eb8:	61685f71 	smcvs	34289	; 0x85f1
     ebc:	62006873 	andvs	r6, r0, #7536640	; 0x730000
     ec0:	656c6675 	strbvs	r6, [ip, #-1653]!	; 0x675
     ec4:	7277006e 	rsbsvc	r0, r7, #110	; 0x6e
     ec8:	65747469 	ldrbvs	r7, [r4, #-1129]!	; 0x469
     ecc:	4554006e 	ldrbmi	r0, [r4, #-110]	; 0x6e
tz_init():
/home/luojing/share/projects/2014-01-16/trustzone/tz_driver/tz_driver.c:273
     ed0:	504f5f45 	subpl	r5, pc, r5, asr #30
     ed4:	54415245 	strbpl	r5, [r1], #-581	; 0x245
     ed8:	5f4e4f49 	svcpl	0x004e4f49
     edc:	534f4c43 	movtpl	r4, #64579	; 0xfc43
/home/luojing/share/projects/2014-01-16/trustzone/tz_driver/tz_driver.c:277
     ee0:	45535f45 	ldrbmi	r5, [r3, #-3909]	; 0xf45
     ee4:	4f495353 	svcmi	0x00495353
/home/luojing/share/projects/2014-01-16/trustzone/tz_driver/tz_driver.c:275
     ee8:	7277004e 	rsbsvc	r0, r7, #78	; 0x4e
     eec:	62657469 	rsbvs	r7, r5, #1761607680	; 0x69000000
/home/luojing/share/projects/2014-01-16/trustzone/tz_driver/tz_driver.c:277
     ef0:	5f6b6361 	svcpl	0x006b6361
     ef4:	65646e69 	strbvs	r6, [r4, #-3689]!	; 0xe69
     ef8:	6c630078 	stclvs	0, cr0, [r3], #-480	; 0xfffffe20
     efc:	746e6569 	strbtvc	r6, [lr], #-1385	; 0x569
     f00:	6975755f 	ldmdbvs	r5!, {r0, r1, r2, r3, r4, r6, r8, sl, ip, sp, lr}^
/home/luojing/share/projects/2014-01-16/trustzone/tz_driver/tz_driver.c:278
     f04:	726e0064 	rsbvc	r0, lr, #100	; 0x64
/home/luojing/share/projects/2014-01-16/trustzone/tz_driver/tz_driver.c:279
     f08:	6572665f 	ldrbvs	r6, [r2, #-1631]!	; 0x65f
/home/luojing/share/projects/2014-01-16/trustzone/tz_driver/tz_driver.c:278
     f0c:	706f0065 	rsbvc	r0, pc, r5, rrx
/home/luojing/share/projects/2014-01-16/trustzone/tz_driver/tz_driver.c:282
     f10:	73006e65 	movwvc	r6, #3685	; 0xe65
     f14:	66746174 	undefined instruction 0x66746174
/home/luojing/share/projects/2014-01-16/trustzone/tz_driver/tz_driver.c:284
     f18:	74610073 	strbtvc	r0, [r1], #-115	; 0x73
     f1c:	00737274 	rsbseq	r7, r3, r4, ror r2
     f20:	69645f73 	stmdbvs	r4!, {r0, r1, r4, r5, r6, r8, r9, sl, fp, ip, lr}^
     f24:	66007472 	undefined instruction 0x66007472
/home/luojing/share/projects/2014-01-16/trustzone/tz_driver/tz_driver.c:285
     f28:	736f705f 	cmnvc	pc, #95	; 0x5f
/home/luojing/share/projects/2014-01-16/trustzone/tz_driver/tz_driver.c:284
     f2c:	69726400 	ldmdbvs	r2!, {sl, sp, lr}^
/home/luojing/share/projects/2014-01-16/trustzone/tz_driver/tz_driver.c:285
     f30:	73726576 	cmnvc	r2, #494927872	; 0x1d800000
/home/luojing/share/projects/2014-01-16/trustzone/tz_driver/tz_driver.c:287
     f34:	7269645f 	rsbvc	r6, r9, #1593835520	; 0x5f000000
     f38:	78656800 	stmdavc	r5!, {fp, sp, lr}^
     f3c:	6373615f 	cmnvs	r3, #-1073741801	; 0xc0000017
/home/luojing/share/projects/2014-01-16/trustzone/tz_driver/tz_driver.c:288
     f40:	70757300 	rsbsvc	r7, r5, r0, lsl #6
/home/luojing/share/projects/2014-01-16/trustzone/tz_driver/tz_driver.c:290
     f44:	73657270 	cmnvc	r5, #7
     f48:	69625f73 	stmdbvs	r2!, {r0, r1, r4, r5, r6, r8, r9, sl, fp, ip, lr}^
/home/luojing/share/projects/2014-01-16/trustzone/tz_driver/tz_driver.c:292
     f4c:	615f646e 	cmpvs	pc, lr, ror #8
     f50:	73727474 	cmnvc	r2, #1946157056	; 0x74000000
     f54:	5f616600 	svcpl	0x00616600
     f58:	64006466 	strvs	r6, [r0], #-1126	; 0x466
     f5c:	705f616d 	subsvc	r6, pc, sp, ror #2
     f60:	736d7261 	cmnvc	sp, #268435462	; 0x10000006
/home/luojing/share/projects/2014-01-16/trustzone/tz_driver/tz_driver.c:294
     f64:	665f6900 	ldrbvs	r6, [pc], -r0, lsl #18
/home/luojing/share/projects/2014-01-16/trustzone/tz_driver/tz_driver.c:292
     f68:	746f6e73 	strbtvc	r6, [pc], #3699	; f70 <.debug_str+0xf70>
/home/luojing/share/projects/2014-01-16/trustzone/tz_driver/tz_driver.c:294
     f6c:	5f796669 	svcpl	0x00796669
/home/luojing/share/projects/2014-01-16/trustzone/tz_driver/tz_driver.c:296
     f70:	6b72616d 	blvs	1c9952c <tz_ioctl+0x1c992e0>
     f74:	746e655f 	strbtvc	r6, [lr], #-1375	; 0x55f
     f78:	73656972 	cmnvc	r5, #1867776	; 0x1c8000
/home/luojing/share/projects/2014-01-16/trustzone/tz_driver/tz_driver.c:297
     f7c:	6c617600 	stclvs	6, cr7, [r1]
/home/luojing/share/projects/2014-01-16/trustzone/tz_driver/tz_driver.c:299
     f80:	6d006575 	cfstr32vs	mvfx6, [r0, #-468]	; 0xfffffe2c
     f84:	6c75646f 	cfldrdvs	mvd6, [r5], #-444	; 0xfffffe44
/home/luojing/share/projects/2014-01-16/trustzone/tz_driver/tz_driver.c:302
     f88:	6f6b5f65 	svcvs	0x006b5f65
     f8c:	63656a62 	cmnvs	r5, #401408	; 0x62000
     f90:	68740074 	ldmdavs	r4!, {r2, r4, r5, r6}^
/home/luojing/share/projects/2014-01-16/trustzone/tz_driver/tz_driver.c:303
     f94:	70007761 	andvc	r7, r0, r1, ror #14
     f98:	656d5f6d 	strbvs	r5, [sp, #-3949]!	; 0xf6d
     f9c:	67617373 	undefined instruction 0x67617373
     fa0:	5f5f0065 	svcpl	0x005f0065
/home/luojing/share/projects/2014-01-16/trustzone/tz_driver/tz_driver.c:304
     fa4:	5f646f6d 	svcpl	0x00646f6d
     fa8:	63736564 	cmnvs	r3, #419430400	; 0x19000000
/home/luojing/share/projects/2014-01-16/trustzone/tz_driver/tz_driver.c:305
     fac:	74706972 	ldrbtvc	r6, [r0], #-2418	; 0x972
     fb0:	336e6f69 	cmncc	lr, #420	; 0x1a4
/home/luojing/share/projects/2014-01-16/trustzone/tz_driver/tz_driver.c:316
     fb4:	5f003234 	svcpl	0x00003234
     fb8:	766e695f 	undefined instruction 0x766e695f
     fbc:	64696c61 	strbtvs	r6, [r9], #-3169	; 0xc61
     fc0:	7a69735f 	bvc	1a5dd44 <tz_ioctl+0x1a5daf8>
/home/luojing/share/projects/2014-01-16/trustzone/tz_driver/tz_driver.c:308
     fc4:	72615f65 	rsbvc	r5, r1, #404	; 0x194
     fc8:	656d7567 	strbvs	r7, [sp, #-1383]!	; 0x567
/home/luojing/share/projects/2014-01-16/trustzone/tz_driver/tz_driver.c:310
     fcc:	665f746e 	ldrbvs	r7, [pc], -lr, ror #8
/home/luojing/share/projects/2014-01-16/trustzone/tz_driver/tz_driver.c:318
     fd0:	495f726f 	ldmdbmi	pc, {r0, r1, r2, r3, r5, r6, r9, ip, sp, lr}^
     fd4:	7400434f 	strvc	r4, [r0], #-847	; 0x34f
     fd8:	736b7361 	cmnvc	fp, #-2080374783	; 0x84000001
/home/luojing/share/projects/2014-01-16/trustzone/tz_driver/tz_driver.c:320
     fdc:	73657400 	cmnvc	r5, #0
     fe0:	5f690074 	svcpl	0x00690074
     fe4:	6e696c6e 	cdpvs	12, 6, cr6, cr9, cr14, {3}
     fe8:	6c66006b 	stclvs	0, cr0, [r6], #-428	; 0xfffffe54
/home/luojing/share/projects/2014-01-16/trustzone/tz_driver/tz_driver.c:323
     fec:	6e696c5f 	mcrvs	12, 3, r6, cr9, cr15, {2}
     ff0:	7461006b 	strbtvc	r0, [r1], #-107	; 0x6b
     ff4:	62697274 	rsbvs	r7, r9, #1073741831	; 0x40000007
     ff8:	5f657475 	svcpl	0x00657475
     ffc:	756f7267 	strbvc	r7, [pc, #-615]!	; d9d <.debug_str+0xd9d>
    1000:	72660070 	rsbvc	r0, r6, #112	; 0x70
    1004:	65006d6f 	strvs	r6, [r0, #-3439]	; 0xd6f
    1008:	00746978 	rsbseq	r6, r4, r8, ror r9
    100c:	70616d6d 	rsbvc	r6, r1, sp, ror #26
    1010:	73696d5f 	cmnvc	r9, #6080	; 0x17c0
    1014:	45540073 	ldrbmi	r0, [r4, #-115]	; 0x73
    1018:	41505f45 	cmpmi	r0, r5, asr #30
    101c:	5f4d4152 	svcpl	0x004d4152
    1020:	45505954 	ldrbmi	r5, [r0, #-2388]	; 0x954
    1024:	4d454d5f 	stclmi	13, cr4, [r5, #-380]	; 0xfffffe84
    1028:	5f464552 	svcpl	0x00464552
    102c:	5054554f 	subspl	r5, r4, pc, asr #10
    1030:	64005455 	strvs	r5, [r0], #-1109	; 0x455
    1034:	65727665 	ldrbvs	r7, [r2, #-1637]!	; 0x665
    1038:	6f6c5f73 	svcvs	0x006c5f73
    103c:	70006b63 	andvc	r6, r0, r3, ror #22
    1040:	5f656761 	svcpl	0x00656761
    1044:	65657274 	strbvs	r7, [r5, #-628]!	; 0x274
    1048:	73667100 	cmnvc	r6, #0
    104c:	78656e5f 	stmdavc	r5!, {r0, r1, r2, r3, r4, r6, r9, sl, fp, sp, lr}^
    1050:	746e6574 	strbtvc	r6, [lr], #-1396	; 0x574
    1054:	5f730073 	svcpl	0x00730073
    1058:	6974706f 	ldmdbvs	r4!, {r0, r1, r2, r3, r5, r6, ip, sp, lr}^
    105c:	00736e6f 	rsbseq	r6, r3, pc, ror #28
    1060:	6f6c5f69 	svcvs	0x006c5f69
    1064:	4d006b63 	vstrmi	d6, [r0, #-396]	; 0xfffffe74
    1068:	4c55444f 	cfldrdmi	mvd4, [r5], {79}	; 0x4f
    106c:	54535f45 	ldrbpl	r5, [r3], #-3909	; 0xf45
    1070:	5f455441 	svcpl	0x00455441
    1074:	4e494f47 	cdpmi	15, 4, cr4, cr9, cr7, {2}
    1078:	6c660047 	stclvs	0, cr0, [r6], #-284	; 0xfffffee4
    107c:	646e655f 	strbtvs	r6, [lr], #-1375	; 0x55f
    1080:	616d6b00 	cmnvs	sp, r0, lsl #22
    1084:	636f6c6c 	cmnvs	pc, #27648	; 0x6c00
    1088:	616c735f 	cmnvs	ip, pc, asr r3
    108c:	65670062 	strbvs	r0, [r7, #-98]!	; 0x62
    1090:	6e695f74 	mcrvs	15, 3, r5, cr9, cr4, {3}
    1094:	6d006f66 	stcvs	15, cr6, [r0, #-408]	; 0xfffffe68
    1098:	78657475 	stmdavc	r5!, {r0, r2, r4, r5, r6, sl, ip, sp, lr}^
    109c:	7a697300 	bvc	1a5dca4 <tz_ioctl+0x1a5da58>
    10a0:	756e0065 	strbvc	r0, [lr, #-101]!	; 0x65
    10a4:	70675f6d 	rsbvc	r5, r7, sp, ror #30
    10a8:	75665f6c 	strbvc	r5, [r6, #-3948]!	; 0xf6c
    10ac:	65727574 	ldrbvs	r7, [r2, #-1396]!	; 0x574
    10b0:	6d79735f 	ldclvs	3, cr7, [r9, #-380]!	; 0xfffffe84
    10b4:	72770073 	rsbsvc	r0, r7, #115	; 0x73
    10b8:	70657469 	rsbvc	r7, r5, r9, ror #8
    10bc:	00656761 	rsbeq	r6, r5, r1, ror #14
    10c0:	656c6966 	strbvs	r6, [ip, #-2406]!	; 0x966
    10c4:	74735f73 	ldrbtvc	r5, [r3], #-3955	; 0xf73
    10c8:	74637572 	strbtvc	r7, [r3], #-1394	; 0x572
    10cc:	6c696600 	stclvs	6, cr6, [r9]
    10d0:	706f5f65 	rsbvc	r5, pc, r5, ror #30
    10d4:	74617265 	strbtvc	r7, [r1], #-613	; 0x265
    10d8:	736e6f69 	cmnvc	lr, #420	; 0x1a4
    10dc:	70716400 	rsbsvc	r6, r1, r0, lsl #8
    10e0:	735f7274 	cmpvc	pc, #1073741831	; 0x40000007
    10e4:	72006d65 	andvc	r6, r0, #6464	; 0x1940
    10e8:	74686769 	strbtvc	r6, [r8], #-1897	; 0x769
    10ec:	73616600 	cmnvc	r1, #0
    10f0:	5f636e79 	svcpl	0x00636e79
    10f4:	75727473 	ldrbvc	r7, [r2, #-1139]!	; 0x473
    10f8:	63007463 	movwvs	r7, #1123	; 0x463
    10fc:	5f65726f 	svcpl	0x0065726f
    1100:	5f6d756e 	svcpl	0x006d756e
    1104:	736d7973 	cmnvc	sp, #1884160	; 0x1cc000
    1108:	74746100 	ldrbtvc	r6, [r4], #-256	; 0x100
    110c:	75626972 	strbvc	r6, [r2, #-2418]!	; 0x972
    1110:	64006574 	strvs	r6, [r0], #-1396	; 0x574
    1114:	75726c5f 	ldrbvc	r6, [r2, #-3167]!	; 0xc5f
    1118:	6e776f00 	cdpvs	15, 7, cr6, cr7, cr0, {0}
    111c:	63007265 	movwvs	r7, #613	; 0x265
    1120:	6e65696c 	cdpvs	9, 6, cr6, cr5, cr12, {3}
    1124:	61645f74 	smcvs	17908	; 0x45f4
    1128:	73006174 	movwvc	r6, #372	; 0x174
    112c:	7571645f 	ldrbvc	r6, [r1, #-1119]!	; 0x45f
    1130:	7200746f 	andvc	r7, r0, #1862270976	; 0x6f000000
    1134:	725f7563 	subsvc	r7, pc, #415236096	; 0x18c00000
    1138:	5f646165 	svcpl	0x00646165
    113c:	6b636f6c 	blvs	18dcef4 <tz_ioctl+0x18dcca8>
    1140:	6863735f 	stmdavs	r3!, {r0, r1, r2, r3, r4, r6, r8, r9, ip, sp, lr}^
    1144:	6e5f6465 	cdpvs	4, 5, cr6, cr15, cr5, {3}
    1148:	6172746f 	cmnvs	r2, pc, ror #8
    114c:	64006563 	strvs	r6, [r0], #-1379	; 0x563
    1150:	6f6e695f 	svcvs	0x006e695f
    1154:	666f735f 	undefined instruction 0x666f735f
    1158:	6d696c74 	stclvs	12, cr6, [r9, #-464]!	; 0xfffffe30
    115c:	66007469 	strvs	r7, [r0], -r9, ror #8
    1160:	61665f6c 	cmnvs	r6, ip, ror #30
    1164:	636e7973 	cmnvs	lr, #1884160	; 0x1cc000
    1168:	72726500 	rsbsvc	r6, r2, #0
    116c:	7300726f 	movwvc	r7, #623	; 0x26f
    1170:	5f657a69 	svcpl	0x00657a69
    1174:	756e0074 	strbvc	r0, [lr, #-116]!	; 0x74
    1178:	72745f6d 	rsbsvc	r5, r4, #436	; 0x1b4
    117c:	5f656361 	svcpl	0x00656361
    1180:	6e657665 	cdpvs	6, 6, cr7, cr5, cr5, {3}
    1184:	73007374 	movwvc	r7, #884	; 0x374
    1188:	69735f68 	ldmdbvs	r3!, {r3, r5, r6, r8, r9, sl, fp, ip, lr}^
    118c:	6e00657a 	cfrshl64vs	mvdx0, mvdx10, r6
    1190:	5f347366 	svcpl	0x00347366
    1194:	6b636f6c 	blvs	18dcf4c <tz_ioctl+0x18dcd00>
    1198:	6174735f 	cmnvs	r4, pc, asr r3
    119c:	75006574 	strvc	r6, [r0, #-1396]	; 0x574
    11a0:	38746e69 	ldmdacc	r4!, {r0, r3, r5, r6, r9, sl, fp, sp, lr}^
    11a4:	6400745f 	strvs	r7, [r0], #-1119	; 0x45f
    11a8:	79745f71 	ldmdbvc	r4!, {r0, r4, r5, r6, r8, r9, sl, fp, ip, lr}^
    11ac:	63006570 	movwvs	r6, #1392	; 0x570
    11b0:	00766564 	rsbseq	r6, r6, r4, ror #10
    11b4:	5f6c7067 	svcpl	0x006c7067
    11b8:	736d7973 	cmnvc	sp, #1884160	; 0x1cc000
    11bc:	6c696600 	stclvs	6, cr6, [r9]
    11c0:	7269646c 	rsbvc	r6, r9, #1811939328	; 0x6c000000
    11c4:	6d00745f 	cfstrsvs	mvf7, [r0, #-380]	; 0xfffffe84
    11c8:	635f6e69 	cmpvs	pc, #1680	; 0x690
    11cc:	746e756f 	strbtvc	r7, [lr], #-1391	; 0x56f
    11d0:	616d6400 	cmnvs	sp, r0, lsl #8
    11d4:	686f635f 	stmdavs	pc!, {r0, r1, r2, r3, r4, r6, r8, r9, sp, lr}^
    11d8:	6e657265 	cdpvs	2, 6, cr7, cr5, cr5, {3}
    11dc:	656d5f74 	strbvs	r5, [sp, #-3956]!	; 0xf74
    11e0:	6572006d 	ldrbvs	r0, [r2, #-109]!	; 0x6d
    11e4:	7361656c 	cmnvc	r1, #452984832	; 0x1b000000
    11e8:	71645f65 	cmnvc	r4, r5, ror #30
    11ec:	00746f75 	rsbseq	r6, r4, r5, ror pc
    11f0:	5345535f 	movtpl	r5, #21343	; 0x535f
    11f4:	4e4f4953 	mcrmi	9, 2, r4, cr15, cr3, {2}
    11f8:	4e4f435f 	mcrmi	3, 2, r4, cr15, cr15, {2}
    11fc:	54584554 	ldrbpl	r4, [r8], #-1364	; 0x554
    1200:	5f616900 	svcpl	0x00616900
    1204:	00646975 	rsbeq	r6, r4, r5, ror r9
    1208:	726e5f73 	rsbvc	r5, lr, #460	; 0x1cc
    120c:	6e65645f 	mcrvs	4, 3, r6, cr5, cr15, {2}
    1210:	5f797274 	svcpl	0x00797274
    1214:	73756e75 	cmnvc	r5, #1872	; 0x750
    1218:	5f006465 	svcpl	0x00006465
    121c:	6172745f 	cmnvs	r2, pc, asr r4
    1220:	6f706563 	svcvs	0x00706563
    1224:	5f746e69 	svcpl	0x00746e69
    1228:	6d656d6b 	stclvs	13, cr6, [r5, #-428]!	; 0xfffffe54
    122c:	6361635f 	cmnvs	r1, #2080374785	; 0x7c000001
    1230:	665f6568 	ldrbvs	r6, [pc], -r8, ror #10
    1234:	00656572 	rsbeq	r6, r5, r2, ror r5
    1238:	65676170 	strbvs	r6, [r7, #-368]!	; 0x170
    123c:	735f6900 	cmpvc	pc, #0
    1240:	696c5f62 	stmdbvs	ip!, {r1, r5, r6, r8, r9, sl, fp, ip, lr}^
    1244:	61007473 	tstvs	r0, r3, ror r4
    1248:	636f6c6c 	cmnvs	pc, #27648	; 0x6c00
    124c:	6170735f 	cmnvs	r0, pc, asr r3
    1250:	68006563 	stmdavs	r0, {r0, r1, r5, r6, r8, sl, sp, lr}
    1254:	65646c6f 	strbvs	r6, [r4, #-3183]!	; 0xc6f
    1258:	645f7372 	ldrbvs	r7, [pc], #882	; 1260 <.debug_str+0x1260>
    125c:	73007269 	movwvc	r7, #617	; 0x269
    1260:	696c5f68 	stmdbvs	ip!, {r3, r5, r6, r8, r9, sl, fp, ip, lr}^
    1264:	70006b6e 	andvc	r6, r0, lr, ror #22
    1268:	5f766572 	svcpl	0x00766572
    126c:	00736f70 	rsbseq	r6, r3, r0, ror pc
    1270:	5f746567 	svcpl	0x00746567
    1274:	71006273 	tstvc	r0, r3, ror r2
    1278:	77625f73 	undefined instruction 0x77625f73
    127c:	6c6e7261 	sfmvs	f7, 2, [lr], #-388	; (stclvs 2, cr7, [lr], #-388)	; 0xfffffe7c
    1280:	74696d69 	strbtvc	r6, [r9], #-3433	; 0xd69
    1284:	775f7300 	ldrbvc	r7, [pc, -r0, lsl #6]
    1288:	5f746961 	svcpl	0x00746961
    128c:	72666e75 	rsbvc	r6, r6, #1872	; 0x750
    1290:	6e657a6f 	vnmulvs.f32	s15, s10, s31
    1294:	735f5f00 	cmpvc	pc, #0
    1298:	61003631 	tstvs	r0, r1, lsr r6
    129c:	00726464 	rsbseq	r6, r2, r4, ror #8
    12a0:	65766f69 	ldrbvs	r6, [r6, #-3945]!	; 0xf69
    12a4:	6e690063 	cdpvs	0, 6, cr0, cr9, cr3, {3}
    12a8:	696c6176 	stmdbvs	ip!, {r1, r2, r4, r5, r6, r8, sp, lr}^
    12ac:	65746164 	ldrbvs	r6, [r4, #-356]!	; 0x164
    12b0:	65676170 	strbvs	r6, [r7, #-368]!	; 0x170
    12b4:	656d6b00 	strbvs	r6, [sp, #-2816]!	; 0xb00
    12b8:	61635f6d 	cmnvs	r3, sp, ror #30
    12bc:	00656863 	rsbeq	r6, r5, r3, ror #16
    12c0:	7473696c 	ldrbtvc	r6, [r3], #-2412	; 0x96c
    12c4:	5f730073 	svcpl	0x00730073
    12c8:	65707974 	ldrbvs	r7, [r0, #-2420]!	; 0x974
    12cc:	6d756e00 	ldclvs	14, cr6, [r5]
    12d0:	6172745f 	cmnvs	r2, pc, asr r4
    12d4:	625f6563 	subsvs	r6, pc, #415236096	; 0x18c00000
    12d8:	6e697270 	mcrvs	2, 3, r7, cr9, cr0, {3}
    12dc:	665f6b74 	undefined instruction 0x665f6b74
    12e0:	7700746d 	strvc	r7, [r0, -sp, ror #8]
    12e4:	5f746961 	svcpl	0x00746961
    12e8:	6c626174 	stfvse	f6, [r2], #-464	; 0xfffffe30
    12ec:	64620065 	strbtvs	r0, [r2], #-101	; 0x65
    12f0:	6f6e695f 	svcvs	0x006e695f
    12f4:	00736564 	rsbseq	r6, r3, r4, ror #10
    12f8:	5f6d7064 	svcpl	0x006d7064
    12fc:	74617473 	strbtvc	r7, [r1], #-1139	; 0x473
    1300:	6c6e0065 	stclvs	0, cr0, [lr], #-404	; 0xfffffe6c
    1304:	006b6e69 	rsbeq	r6, fp, r9, ror #28
    1308:	6c616d6b 	stclvs	13, cr6, [r1], #-428	; 0xfffffe54
    130c:	5f636f6c 	svcpl	0x00636f6c
    1310:	6772616c 	ldrbvs	r6, [r2, -ip, ror #2]!
    1314:	73640065 	cmnvc	r4, #101	; 0x65
    1318:	00637370 	rsbeq	r7, r3, r0, ror r3
    131c:	646e6573 	strbtvs	r6, [lr], #-1395	; 0x573
    1320:	65676170 	strbvs	r6, [r7, #-368]!	; 0x170
    1324:	656c6300 	strbvs	r6, [ip, #-768]!	; 0x300
    1328:	695f7261 	ldmdbvs	pc, {r0, r5, r6, r9, ip, sp, lr}^
    132c:	65646f6e 	strbvs	r6, [r4, #-3950]!	; 0xf6e
    1330:	72696600 	rsbvc	r6, r9, #0
    1334:	74007473 	strvc	r7, [r0], #-1139	; 0x473
    1338:	5f747365 	svcpl	0x00747365
    133c:	745f6974 	ldrbvc	r6, [pc], #2420	; 1344 <.debug_str+0x1344>
    1340:	61657268 	cmnvs	r5, r8, ror #4
    1344:	6c665f64 	stclvs	15, cr5, [r6], #-400	; 0xfffffe70
    1348:	66006761 	strvs	r6, [r0], -r1, ror #14
    134c:	6c665f65 	stclvs	15, cr5, [r6], #-404	; 0xfffffe6c
    1350:	00736761 	rsbseq	r6, r3, r1, ror #14
    1354:	726d656d 	rsbvc	r6, sp, #457179136	; 0x1b400000
    1358:	69006665 	stmdbvs	r0, {r0, r2, r5, r6, r9, sl, sp, lr}
    135c:	7461645f 	strbtvc	r6, [r1], #-1119	; 0x45f
    1360:	69660061 	stmdbvs	r6!, {r0, r5, r6}^
    1364:	0073656c 	rsbseq	r6, r3, ip, ror #10
    1368:	6d676573 	cfstr64vs	mvdx6, [r7, #-460]!	; 0xfffffe34
    136c:	5f746e65 	svcpl	0x00746e65
    1370:	6e756f62 	cdpvs	15, 7, cr6, cr5, cr2, {3}
    1374:	79726164 	ldmdbvc	r2!, {r2, r5, r6, r8, sp, lr}^
    1378:	73616d5f 	cmnvc	r1, #6080	; 0x17c0
    137c:	696b006b 	stmdbvs	fp!, {r0, r1, r3, r5, r6}^
    1380:	0062636f 	rsbeq	r6, r2, pc, ror #6
    1384:	656c6966 	strbvs	r6, [ip, #-2406]!	; 0x966
    1388:	705f6400 	subsvc	r6, pc, r0, lsl #8
    138c:	6e657261 	cdpvs	2, 6, cr7, cr5, cr1, {3}
    1390:	6c630074 	stclvs	0, cr0, [r3], #-464	; 0xfffffe30
    1394:	5f737361 	svcpl	0x00737361
    1398:	76697270 	undefined instruction 0x76697270
    139c:	00657461 	rsbeq	r7, r5, r1, ror #8
    13a0:	68637261 	stmdavs	r3!, {r0, r5, r6, r9, ip, sp, lr}^
    13a4:	61746164 	cmnvs	r4, r4, ror #2
    13a8:	64697000 	strbtvs	r7, [r9]
    13ac:	6168635f 	cmnvs	r8, pc, asr r3
    13b0:	69006e69 	stmdbvs	r0, {r0, r3, r5, r6, r9, sl, fp, sp, lr}
    13b4:	61765f61 	cmnvs	r6, r1, ror #30
    13b8:	0064696c 	rsbeq	r6, r4, ip, ror #18
    13bc:	33735f5f 	cmncc	r3, #380	; 0x17c
    13c0:	50440032 	subpl	r0, r4, r2, lsr r0
    13c4:	464f5f4d 	strbmi	r5, [pc], -sp, asr #30
    13c8:	52495f46 	subpl	r5, r9, #280	; 0x118
    13cc:	75720051 	ldrbvc	r0, [r2, #-81]!	; 0x51
    13d0:	6d69746e 	cfstrdvs	mvd7, [r9, #-440]!	; 0xfffffe48
    13d4:	75735f65 	ldrbvc	r5, [r3, #-3941]!	; 0xf65
    13d8:	6e657073 	mcrvs	0, 3, r7, cr5, cr3, {3}
    13dc:	5f730064 	svcpl	0x00730064
    13e0:	636f6c62 	cmnvs	pc, #25088	; 0x6200
    13e4:	7a69736b 	bvc	1a5e198 <tz_ioctl+0x1a5df4c>
    13e8:	696c0065 	stmdbvs	ip!, {r0, r2, r5, r6}^
    13ec:	6b007473 	blvs	1e5c0 <tz_ioctl+0x1e374>
    13f0:	656a626f 	strbvs	r6, [sl, #-623]!	; 0x26f
    13f4:	61007463 	tstvs	r0, r3, ror #8
    13f8:	636f7373 	cmnvs	pc, #-872415231	; 0xcc000001
    13fc:	70616d5f 	rsbvc	r6, r1, pc, asr sp
    1400:	676e6970 	undefined instruction 0x676e6970
    1404:	74657300 	strbtvc	r7, [r5], #-768	; 0x300
    1408:	72747461 	rsbsvc	r7, r4, #1627389952	; 0x61000000
    140c:	5f746900 	svcpl	0x00746900
    1410:	636e7566 	cmnvs	lr, #427819008	; 0x19800000
    1414:	5f747300 	svcpl	0x00747300
    1418:	6f666e69 	svcvs	0x00666e69
    141c:	67697300 	strbvs	r7, [r9, -r0, lsl #6]!
    1420:	006d756e 	rsbeq	r7, sp, lr, ror #10
    1424:	64695f64 	strbtvs	r5, [r9], #-3940	; 0xf64
    1428:	72747300 	rsbsvc	r7, r4, #0
    142c:	00626174 	rsbeq	r6, r2, r4, ror r1
    1430:	725f6c66 	subsvc	r6, pc, #26112	; 0x6600
    1434:	61656c65 	cmnvs	r5, r5, ror #24
    1438:	705f6573 	subsvc	r6, pc, r3, ror r5
    143c:	61766972 	cmnvs	r6, r2, ror r9
    1440:	64006574 	strvs	r6, [r0], #-1396	; 0x574
    1444:	756f635f 	strbvc	r6, [pc, #-863]!	; 10ed <.debug_str+0x10ed>
    1448:	7700746e 	strvc	r7, [r0, -lr, ror #8]
    144c:	5f746961 	svcpl	0x00746961
    1450:	6c626174 	stfvse	f6, [r2], #-464	; 0xfffffe30
    1454:	61685f65 	cmnvs	r8, r5, ror #30
    1458:	6e5f6873 	mrcvs	8, 2, r6, cr15, cr3, {3}
    145c:	6e655f72 	mcrvs	15, 3, r5, cr5, cr2, {3}
    1460:	65697274 	strbvs	r7, [r9, #-628]!	; 0x274
    1464:	68730073 	ldmdavs	r3!, {r0, r1, r4, r5, r6}^
    1468:	6464615f 	strbtvs	r6, [r4], #-351	; 0x15f
    146c:	45540072 	ldrbmi	r0, [r4, #-114]	; 0x72
    1470:	4f5f4345 	svcmi	0x005f4345
    1474:	61726570 	cmnvs	r2, r0, ror r5
    1478:	6e6f6974 	mcrvs	9, 3, r6, cr15, cr4, {3}
    147c:	725f6400 	subsvc	r6, pc, #0
    1480:	69007563 	stmdbvs	r0, {r0, r1, r5, r6, r8, sl, ip, sp, lr}
    1484:	6b6c625f 	blvs	1b19e08 <tz_ioctl+0x1b19bbc>
    1488:	73746962 	cmnvc	r4, #1605632	; 0x188000
    148c:	66657200 	strbtvs	r7, [r5], -r0, lsl #4
    1490:	6e756f63 	cdpvs	15, 7, cr6, cr5, cr3, {3}
    1494:	79730074 	ldmdbvc	r3!, {r2, r4, r5, r6}^
    1498:	6c616373 	stclvs	3, cr6, [r1], #-460	; 0xfffffe34
    149c:	6169006c 	cmnvs	r9, ip, rrx
    14a0:	7a69735f 	bvc	1a5e224 <tz_ioctl+0x1a5dfd8>
    14a4:	6e750065 	cdpvs	0, 7, cr0, cr5, cr5, {3}
    14a8:	65735f77 	ldrbvs	r5, [r3, #-3959]!	; 0xf77
    14ac:	6f635f63 	svcvs	0x00635f63
    14b0:	64006572 	strvs	r6, [r0], #-1394	; 0x572
    14b4:	615f7672 	cmpvs	pc, r2, ror r6
    14b8:	73727474 	cmnvc	r2, #1946157056	; 0x74000000
    14bc:	6d5f6600 	ldclvs	6, cr6, [pc]
    14c0:	0065646f 	rsbeq	r6, r5, pc, ror #8
    14c4:	61726170 	cmnvs	r2, r0, ror r1
    14c8:	6600736d 	strvs	r7, [r0], -sp, ror #6
    14cc:	61685f70 	smcvs	34288	; 0x85f0
    14d0:	735f6472 	cmpvc	pc, #1912602624	; 0x72000000
    14d4:	63757274 	cmnvs	r5, #1073741831	; 0x40000007
    14d8:	49500074 	ldmdbmi	r0, {r2, r4, r5, r6}^
    14dc:	50595444 	subspl	r5, r9, r4, asr #8
    14e0:	49505f45 	ldmdbmi	r0, {r0, r2, r6, r8, r9, sl, fp, ip, lr}^
    14e4:	66710044 	ldrbtvs	r0, [r1], -r4, asr #32
    14e8:	73706f5f 	cmnvc	r0, #380	; 0x17c
    14ec:	666c6500 	strbtvs	r6, [ip], -r0, lsl #10
    14f0:	6377685f 	cmnvs	r7, #6225920	; 0x5f0000
    14f4:	63007061 	movwvs	r7, #97	; 0x61
    14f8:	69746e6f 	ldmdbvs	r4!, {r0, r1, r2, r3, r5, r6, r9, sl, fp, sp, lr}^
    14fc:	61705f67 	cmnvs	r0, r7, ror #30
    1500:	645f6567 	ldrbvs	r6, [pc], #1383	; 1508 <.debug_str+0x1508>
    1504:	00617461 	rsbeq	r7, r1, r1, ror #8
    1508:	74617473 	strbtvc	r7, [r1], #-1139	; 0x473
    150c:	6e695f65 	cdpvs	15, 6, cr5, cr9, cr5, {3}
    1510:	61697469 	cmnvs	r9, r9, ror #8
    1514:	657a696c 	ldrbvs	r6, [sl, #-2412]!	; 0x96c
    1518:	75730064 	ldrbvc	r0, [r3, #-100]!	; 0x64
    151c:	5f726570 	svcpl	0x00726570
    1520:	7265706f 	rsbvc	r7, r5, #111	; 0x6f
    1524:	6f697461 	svcvs	0x00697461
    1528:	7000736e 	andvc	r7, r0, lr, ror #6
    152c:	6d656572 	cfstr64vs	mvdx6, [r5, #-456]!	; 0xfffffe38
    1530:	635f7470 	cmpvs	pc, #1879048192	; 0x70000000
    1534:	746e756f 	strbtvc	r7, [lr], #-1391	; 0x56f
    1538:	736e6900 	cmnvc	lr, #0
    153c:	7270006e 	rsbsvc	r0, r0, #110	; 0x6e
    1540:	745f6f69 	ldrbvc	r6, [pc], #3945	; 1548 <.debug_str+0x1548>
    1544:	5f656572 	svcpl	0x00656572
    1548:	65646f6e 	strbvs	r6, [r4, #-3950]!	; 0xf6e
    154c:	655f7300 	ldrbvs	r7, [pc, #-768]	; 1254 <.debug_str+0x1254>
    1550:	726f7078 	rsbvc	r7, pc, #120	; 0x78
    1554:	706f5f74 	rsbvc	r5, pc, r4, ror pc
    1558:	6f746300 	svcvs	0x00746300
    155c:	64007372 	strvs	r7, [r0], #-882	; 0x372
    1560:	75616665 	strbvc	r6, [r1, #-1637]!	; 0x665
    1564:	615f746c 	cmpvs	pc, ip, ror #8
    1568:	73727474 	cmnvc	r2, #1946157056	; 0x74000000
    156c:	6d656d00 	stclvs	13, cr6, [r5]
    1570:	6365735f 	cmnvs	r5, #2080374785	; 0x7c000001
    1574:	6e6f6974 	mcrvs	9, 3, r6, cr15, cr4, {3}
    1578:	6f6c6200 	svcvs	0x006c6200
    157c:	645f6b63 	ldrbvs	r6, [pc], #2915	; 1584 <.debug_str+0x1584>
    1580:	63697665 	cmnvs	r9, #105906176	; 0x6500000
    1584:	696c0065 	stmdbvs	ip!, {r0, r2, r5, r6}^
    1588:	61787473 	cmnvs	r8, r3, ror r4
    158c:	00727474 	rsbseq	r7, r2, r4, ror r4
    1590:	65725f64 	ldrbvs	r5, [r2, #-3940]!	; 0xf64
    1594:	7361656c 	cmnvc	r1, #452984832	; 0x1b000000
    1598:	6c610065 	stclvs	0, cr0, [r1], #-404	; 0xfffffe6c
    159c:	66636f6c 	strbtvs	r6, [r3], -ip, ror #30
    15a0:	7367616c 	cmnvc	r7, #27
    15a4:	72726500 	rsbsvc	r6, r2, #0
    15a8:	725f726f 	subsvc	r7, pc, #-268435450	; 0xf0000006
    15ac:	766f6d65 	strbtvc	r6, [pc], -r5, ror #26
    15b0:	61705f65 	cmnvs	r0, r5, ror #30
    15b4:	67006567 	strvs	r6, [r0, -r7, ror #10]
    15b8:	74617465 	strbtvc	r7, [r1], #-1125	; 0x465
    15bc:	74007274 	strvc	r7, [r0], #-628	; 0x274
    15c0:	73656d69 	cmnvc	r5, #6720	; 0x1a40
    15c4:	00636570 	rsbeq	r6, r3, r0, ror r5
    15c8:	646f6e72 	strbtvs	r6, [pc], #3698	; 15d0 <.debug_str+0x15d0>
    15cc:	71640065 	cmnvc	r4, r5, rrx
    15d0:	616d5f69 	cmnvs	sp, r9, ror #30
    15d4:	696c6978 	stmdbvs	ip!, {r3, r4, r5, r6, r8, fp, sp, lr}^
    15d8:	0074696d 	rsbseq	r6, r4, sp, ror #18
    15dc:	64616572 	strbtvs	r6, [r1], #-1394	; 0x572
    15e0:	6c69665f 	stclvs	6, cr6, [r9], #-380	; 0xfffffe84
    15e4:	6e695f65 	cdpvs	15, 6, cr5, cr9, cr5, {3}
    15e8:	72006f66 	andvc	r6, r0, #408	; 0x198
    15ec:	72757465 	rsbsvc	r7, r5, #1694498816	; 0x65000000
    15f0:	726f5f6e 	rsbvc	r5, pc, #440	; 0x1b8
    15f4:	6e696769 	cdpvs	7, 6, cr6, cr9, cr9, {3}
    15f8:	5f716400 	svcpl	0x00716400
    15fc:	6e756f63 	cdpvs	15, 7, cr6, cr5, cr3, {3}
    1600:	71640074 	smcvc	16388	; 0x4004
    1604:	6961775f 	stmdbvs	r1!, {r0, r1, r2, r3, r4, r6, r8, r9, sl, ip, sp, lr}^
    1608:	6e755f74 	mrcvs	15, 3, r5, cr5, cr4, {3}
    160c:	64657375 	strbtvs	r7, [r5], #-885	; 0x375
    1610:	676f6c00 	strbvs	r6, [pc, -r0, lsl #24]!
    1614:	745f6e69 	ldrbvc	r6, [pc], #3689	; 161c <.debug_str+0x161c>
    1618:	00657079 	rsbeq	r7, r5, r9, ror r0
    161c:	65766575 	ldrbvs	r6, [r6, #-1397]!	; 0x575
    1620:	6f5f746e 	svcvs	0x005f746e
    1624:	69007370 	stmdbvs	r0, {r4, r5, r6, r8, r9, ip, sp, lr}
    1628:	5f74696e 	svcpl	0x0074696e
    162c:	656d616e 	strbvs	r6, [sp, #-366]!	; 0x16e
    1630:	5f616600 	svcpl	0x00616600
    1634:	656c6966 	strbvs	r6, [ip, #-2406]!	; 0x966
    1638:	75727400 	ldrbvc	r7, [r2, #-1024]!	; 0x400
    163c:	7461636e 	strbtvc	r6, [r1], #-878	; 0x36e
    1640:	78650065 	stmdavc	r5!, {r0, r2, r5, r6}^
    1644:	6c626174 	stfvse	f6, [r2], #-464	; 0xfffffe30
    1648:	7a740065 	bvc	1d017e4 <tz_ioctl+0x1d01598>
    164c:	696e695f 	stmdbvs	lr!, {r0, r1, r2, r3, r4, r6, r8, fp, sp, lr}^
    1650:	69660074 	stmdbvs	r6!, {r2, r4, r5, r6}^
    1654:	70616d65 	rsbvc	r6, r1, r5, ror #26
    1658:	74657300 	strbtvc	r7, [r5], #-768	; 0x300
    165c:	7473785f 	ldrbtvc	r7, [r3], #-2143	; 0x85f
    1660:	00657461 	rsbeq	r7, r5, r1, ror #8
    1664:	6b736174 	blvs	1cd9c3c <tz_ioctl+0x1cd99f0>
    1668:	7274735f 	rsbsvc	r7, r4, #2080374785	; 0x7c000001
    166c:	00746375 	rsbseq	r6, r4, r5, ror r3
    1670:	656b5f5f 	strbvs	r5, [fp, #-3935]!	; 0xf5f
    1674:	696c0079 	stmdbvs	ip!, {r0, r3, r4, r5, r6}^
    1678:	7a006b6e 	bvc	1c438 <tz_ioctl+0x1c1ec>
    167c:	6c656e6f 	stclvs	14, cr6, [r5], #-444	; 0xfffffe44
    1680:	00747369 	rsbseq	r7, r4, r9, ror #6
    1684:	656c6572 	strbvs	r6, [ip, #-1394]!	; 0x572
    1688:	5f657361 	svcpl	0x00657361
    168c:	6c627164 	stfvse	f7, [r2], #-400	; 0xfffffe70
    1690:	6170006b 	cmnvs	r0, fp, rrx
    1694:	65736567 	ldrbvs	r6, [r3, #-1383]!	; 0x567
    1698:	70670074 	rsbvc	r0, r7, r4, ror r0
    169c:	75665f6c 	strbvc	r5, [r6, #-3948]!	; 0xf6c
    16a0:	65727574 	ldrbvs	r7, [r2, #-1396]!	; 0x574
    16a4:	6d79735f 	ldclvs	3, cr7, [r9, #-380]!	; 0xfffffe84
    16a8:	73660073 	cmnvc	r6, #115	; 0x73
    16ac:	6966715f 	stmdbvs	r6!, {r0, r1, r2, r3, r4, r6, r8, ip, sp, lr}^
    16b0:	7473656c 	ldrbtvc	r6, [r3], #-1388	; 0x56c
    16b4:	7a007461 	bvc	1e840 <tz_ioctl+0x1e5f4>
    16b8:	5f656e6f 	svcpl	0x00656e6f
    16bc:	0075726c 	rsbseq	r7, r5, ip, ror #4
    16c0:	746f7571 	strbtvc	r7, [pc], #1393	; 16c8 <.debug_str+0x16c8>
    16c4:	6f665f61 	svcvs	0x00665f61
    16c8:	74616d72 	strbtvc	r6, [r1], #-3442	; 0xd72
    16cc:	73706f5f 	cmnvc	r0, #380	; 0x17c
    16d0:	74657300 	strbtvc	r7, [r5], #-768	; 0x300
    16d4:	666e695f 	undefined instruction 0x666e695f
    16d8:	756e006f 	strbvc	r0, [lr, #-111]!	; 0x6f
    16dc:	78655f6d 	stmdavc	r5!, {r0, r2, r3, r5, r6, r8, r9, sl, fp, ip, lr}^
    16e0:	72746e65 	rsbsvc	r6, r4, #1616	; 0x650
    16e4:	00736569 	rsbseq	r6, r3, r9, ror #10
    16e8:	76657270 	undefined instruction 0x76657270
    16ec:	6972705f 	ldmdbvs	r2!, {r0, r1, r2, r3, r4, r6, ip, sp, lr}^
    16f0:	7469726f 	strbtvc	r7, [r9], #-623	; 0x26f
    16f4:	6c660079 	stclvs	0, cr0, [r6], #-484	; 0xfffffe1c
    16f8:	6200755f 	andvs	r7, r0, #398458880	; 0x17c00000
    16fc:	75735f64 	ldrbvc	r5, [r3, #-3940]!	; 0xf64
    1700:	00726570 	rsbseq	r6, r2, r0, ror r5
    1704:	72747865 	rsbsvc	r7, r4, #6619136	; 0x650000
    1708:	5f660061 	svcpl	0x00660061
    170c:	7000706f 	andvc	r7, r0, pc, rrx
    1710:	6d617261 	sfmvs	f7, 2, [r1, #-388]!	; (stclvs 2, cr7, [r1, #-388]!)	; 0xfffffe7c
    1714:	7465735f 	strbtvc	r7, [r5], #-863	; 0x35f
    1718:	006e665f 	rsbeq	r6, lr, pc, asr r6
    171c:	5f706676 	svcpl	0x00706676
    1720:	64726168 	ldrbtvs	r6, [r2], #-360	; 0x168
    1724:	7274735f 	rsbsvc	r7, r4, #2080374785	; 0x7c000001
    1728:	00746375 	rsbseq	r6, r4, r5, ror r3
    172c:	65747962 	ldrbvs	r7, [r4, #-2402]!	; 0x962
    1730:	65725f73 	ldrbvs	r5, [r2, #-3955]!	; 0xf73
    1734:	73710071 	cmnvc	r1, #113	; 0x71
    1738:	74007274 	strvc	r7, [r0], #-628	; 0x274
    173c:	706f5f7a 	rsbvc	r5, pc, sl, ror pc
    1740:	6f006e65 	svcvs	0x00006e65
    1744:	5f6e6570 	svcpl	0x006e6570
    1748:	73736573 	cmnvc	r3, #482344960	; 0x1cc00000
    174c:	5f6e6f69 	svcpl	0x006e6f69
    1750:	61746164 	cmnvs	r4, r4, ror #2
    1754:	45455400 	strbmi	r5, [r5, #-1024]	; 0x400
    1758:	5241505f 	subpl	r5, r1, #95	; 0x5f
    175c:	545f4d41 	ldrbpl	r4, [pc], #3393	; 1764 <.debug_str+0x1764>
    1760:	5f455059 	svcpl	0x00455059
    1764:	554c4156 	strbpl	r4, [ip, #-342]	; 0x156
    1768:	554f5f45 	strbpl	r5, [pc, #-3909]	; 82b <.debug_str+0x82b>
    176c:	54555054 	ldrbpl	r5, [r5], #-84	; 0x54
    1770:	6f6d6600 	svcvs	0x006d6600
    1774:	745f6564 	ldrbvc	r6, [pc], #1380	; 177c <.debug_str+0x177c>
    1778:	5f646200 	svcpl	0x00646200
    177c:	72667366 	rsbvc	r7, r6, #-1744830463	; 0x98000001
    1780:	657a6565 	ldrbvs	r6, [sl, #-1381]!	; 0x565
    1784:	74756d5f 	ldrbtvc	r6, [r5], #-3423	; 0xd5f
    1788:	64007865 	strvs	r7, [r0], #-2149	; 0x865
    178c:	665f7665 	ldrbvs	r7, [pc], -r5, ror #12
    1790:	0073706f 	rsbseq	r7, r3, pc, rrx
    1794:	5f646970 	svcpl	0x00646970
    1798:	65707974 	ldrbvs	r7, [r0, #-2420]!	; 0x974
    179c:	746f6e00 	strbtvc	r6, [pc], #3584	; 17a4 <.debug_str+0x17a4>
    17a0:	615f7365 	cmpvs	pc, r5, ror #6
    17a4:	73727474 	cmnvc	r2, #1946157056	; 0x74000000
    17a8:	67616d00 	strbvs	r6, [r1, -r0, lsl #26]!
    17ac:	70006369 	andvc	r6, r0, r9, ror #6
    17b0:	7265776f 	rsbvc	r7, r5, #29097984	; 0x1bc0000
    17b4:	6174735f 	cmnvs	r4, pc, asr r3
    17b8:	73006574 	movwvc	r6, #1396	; 0x574
    17bc:	7665645f 	undefined instruction 0x7665645f
    17c0:	665f7300 	ldrbvs	r7, [pc], -r0, lsl #6
    17c4:	7367616c 	cmnvc	r7, #27
    17c8:	76617300 	strbtvc	r7, [r1], -r0, lsl #6
    17cc:	73660065 	cmnvc	r6, #101	; 0x65
    17d0:	6966715f 	stmdbvs	r6!, {r0, r1, r2, r3, r4, r6, r8, ip, sp, lr}^
    17d4:	7473656c 	ldrbtvc	r6, [r3], #-1388	; 0x56c
    17d8:	745f7461 	ldrbvc	r7, [pc], #1121	; 17e0 <.debug_str+0x17e0>
    17dc:	6c5f7300 	mrrcvs	3, 0, r7, pc, cr0
    17e0:	006b636f 	rsbeq	r6, fp, pc, ror #6
    17e4:	635f7a74 	cmpvs	pc, #475136	; 0x74000
    17e8:	7373616c 	cmnvc	r3, #27
    17ec:	6d616e00 	stclvs	14, cr6, [r1]
    17f0:	6f6e0065 	svcvs	0x006e0065
    17f4:	7a5f6564 	bvc	17dad8c <tz_ioctl+0x17dab40>
    17f8:	6c656e6f 	stclvs	14, cr6, [r5], #-444	; 0xfffffe44
    17fc:	73747369 	cmnvc	r4, #-1543503871	; 0xa4000001
    1800:	6d5f5f00 	ldclvs	15, cr5, [pc]
    1804:	6c5f646f 	cfldrdvs	mvd6, [pc], {111}	; 0x6f
    1808:	6e656369 	cdpvs	3, 6, cr6, cr5, cr9, {3}
    180c:	34336573 	ldrtcc	r6, [r3], #-1395	; 0x573
    1810:	6f7a0031 	svcvs	0x007a0031
    1814:	725f656e 	subsvc	r6, pc, #461373440	; 0x1b800000
    1818:	616c6365 	cmnvs	ip, r5, ror #6
    181c:	735f6d69 	cmpvc	pc, #6720	; 0x1a40
    1820:	00746174 	rsbseq	r6, r4, r4, ror r1
    1824:	6d6d5f69 	stclvs	15, cr5, [sp, #-420]!	; 0xfffffe5c
    1828:	775f7061 	ldrbvc	r7, [pc, -r1, rrx]
    182c:	61746972 	cmnvs	r4, r2, ror r9
    1830:	00656c62 	rsbeq	r6, r5, r2, ror #24
    1834:	655f7a74 	ldrbvs	r7, [pc, #-2676]	; dc8 <.debug_str+0xdc8>
    1838:	00746978 	rsbseq	r6, r4, r8, ror r9
    183c:	61685f64 	cmnvs	r8, r4, ror #30
    1840:	69006873 	stmdbvs	r0, {r0, r1, r4, r5, r6, fp, sp, lr}
    1844:	6e73665f 	mrcvs	6, 3, r6, cr3, cr15, {2}
    1848:	6669746f 	strbtvs	r7, [r9], -pc, ror #8
    184c:	616d5f79 	smcvs	54777	; 0xd5f9
    1850:	65006b73 	strvs	r6, [r0, #-2931]	; 0xb73
    1854:	72697078 	rsbvc	r7, r9, #120	; 0x78
    1858:	5f007365 	svcpl	0x00007365
    185c:	6172745f 	cmnvs	r2, pc, asr r4
    1860:	6f706563 	svcvs	0x00706563
    1864:	5f746e69 	svcpl	0x00746e69
    1868:	6d656d6b 	stclvs	13, cr6, [r5, #-428]!	; 0xfffffe54
    186c:	6361635f 	cmnvs	r1, #2080374785	; 0x7c000001
    1870:	615f6568 	cmpvs	pc, r8, ror #10
    1874:	636f6c6c 	cmnvs	pc, #27648	; 0x6c00
    1878:	616c6600 	cmnvs	ip, r0, lsl #12
    187c:	65720067 	ldrbvs	r0, [r2, #-103]!	; 0x67
    1880:	656d7573 	strbvs	r7, [sp, #-1395]!	; 0x573
    1884:	685f5f00 	ldmdavs	pc, {r8, r9, sl, fp, ip, lr}^
    1888:	00657265 	rsbeq	r7, r5, r5, ror #4
    188c:	5f737562 	svcpl	0x00737562
    1890:	72747461 	rsbsvc	r7, r4, #1627389952	; 0x61000000
    1894:	74756269 	ldrbtvc	r6, [r5], #-617	; 0x269
    1898:	6e750065 	cdpvs	0, 7, cr0, cr5, cr5, {3}
    189c:	65735f77 	ldrbvs	r5, [r3, #-3959]!	; 0xf77
    18a0:	65645f63 	strbvs	r5, [r4, #-3939]!	; 0xf63
    18a4:	696e6976 	stmdbvs	lr!, {r1, r2, r4, r5, r6, r8, fp, sp, lr}^
    18a8:	6f660074 	svcvs	0x00660074
    18ac:	735f6e77 	cmpvc	pc, #1904	; 0x770
    18b0:	63757274 	cmnvs	r5, #1073741831	; 0x40000007
    18b4:	73750074 	cmnvc	r5, #116	; 0x74
    18b8:	745f7265 	ldrbvc	r7, [pc], #613	; 18c0 <.debug_str+0x18c0>
    18bc:	5f636565 	svcpl	0x00636565
    18c0:	7265706f 	rsbvc	r7, r5, #111	; 0x6f
    18c4:	6f697461 	svcvs	0x00697461
    18c8:	6c66006e 	stclvs	0, cr0, [r6], #-440	; 0xfffffe48
    18cc:	6c69665f 	stclvs	6, cr6, [r9], #-380	; 0xfffffe84
    18d0:	65720065 	ldrbvs	r0, [r2, #-101]!	; 0x65
    18d4:	656d7573 	strbvs	r7, [sp, #-1395]!	; 0x573
    18d8:	696f6e5f 	stmdbvs	pc!, {r0, r1, r2, r3, r4, r6, r9, sl, fp, sp, lr}^
    18dc:	73007172 	movwvc	r7, #370	; 0x172
    18e0:	6275735f 	rsbsvs	r7, r5, #2080374785	; 0x7c000001
    18e4:	65707974 	ldrbvs	r7, [r0, #-2420]!	; 0x974
    18e8:	666c4500 	strbtvs	r4, [ip], -r0, lsl #10
    18ec:	535f3233 	cmppl	pc, #805306371	; 0x30000003
    18f0:	64006d79 	strvs	r6, [r0], #-3449	; 0xd79
    18f4:	00706f5f 	rsbseq	r6, r0, pc, asr pc
    18f8:	55444f4d 	strbpl	r4, [r4, #-3917]	; 0xf4d
    18fc:	535f454c 	cmppl	pc, #318767104	; 0x13000000
    1900:	45544154 	ldrbmi	r4, [r4, #-340]	; 0x154
    1904:	56494c5f 	undefined instruction 0x56494c5f
    1908:	656b0045 	strbvs	r0, [fp, #-69]!	; 0x45
    190c:	6c656e72 	stclvs	14, cr6, [r5], #-456	; 0xfffffe38
    1910:	6d79735f 	ldclvs	3, cr7, [r9, #-380]!	; 0xfffffe84
    1914:	006c6f62 	rsbeq	r6, ip, r2, ror #30
    1918:	65736572 	ldrbvs	r6, [r3, #-1394]!	; 0x572
    191c:	5f657672 	svcpl	0x00657672
    1920:	63617073 	cmnvs	r1, #115	; 0x73
    1924:	6f630065 	svcvs	0x00630065
    1928:	745f7970 	ldrbvc	r7, [pc], #2416	; 1930 <.debug_str+0x1930>
    192c:	73755f6f 	cmnvc	r5, #444	; 0x1bc
    1930:	64007265 	strvs	r7, [r0], #-613	; 0x265
    1934:	705f7665 	subsvc	r7, pc, r5, ror #12
    1938:	6e695f6d 	cdpvs	15, 6, cr5, cr9, cr13, {3}
    193c:	65006f66 	strvs	r6, [r0, #-3942]	; 0xf66
    1940:	5f636578 	svcpl	0x00636578
    1944:	616d6f64 	cmnvs	sp, r4, ror #30
    1948:	69006e69 	stmdbvs	r0, {r0, r3, r5, r6, r9, sl, fp, sp, lr}
    194c:	7665645f 	undefined instruction 0x7665645f
    1950:	73656369 	cmnvc	r5, #-1543503871	; 0xa4000001
    1954:	5f616900 	svcpl	0x00616900
    1958:	6d69746d 	cfstrdvs	mvd7, [r9, #-436]!	; 0xfffffe4c
    195c:	5f640065 	svcpl	0x00640065
    1960:	756f6369 	strbvc	r6, [pc, #-873]!	; 15ff <.debug_str+0x15ff>
    1964:	6600746e 	strvs	r7, [r0], -lr, ror #8
    1968:	73636e75 	cmnvc	r3, #1872	; 0x750
    196c:	6c5f6400 	cfldrdvs	mvd6, [pc], {0}
    1970:	006b636f 	rsbeq	r6, fp, pc, ror #6
    1974:	61725f66 	cmnvs	r2, r6, ror #30
    1978:	73657200 	cmnvc	r5, #0
    197c:	65726f74 	ldrbvs	r6, [r2, #-3956]!	; 0xf74
    1980:	78616d00 	stmdavc	r1!, {r8, sl, fp, sp, lr}^
    1984:	6765735f 	undefined instruction 0x6765735f
    1988:	746e656d 	strbtvc	r6, [lr], #-1389	; 0x56d
    198c:	7a69735f 	bvc	1a5e710 <tz_ioctl+0x1a5e4c4>
    1990:	66710065 	ldrbtvs	r0, [r1], -r5, rrx
    1994:	6e695f73 	mcrvs	15, 3, r5, cr9, cr3, {3}
    1998:	6e6b006f 	cdpvs	0, 6, cr0, cr11, cr15, {3}
    199c:	5f65646f 	svcpl	0x0065646f
    19a0:	73616c63 	cmnvc	r1, #25344	; 0x6300
    19a4:	72660073 	rsbvc	r0, r6, #115	; 0x73
    19a8:	657a6565 	ldrbvs	r6, [sl, #-1381]!	; 0x565
    19ac:	0073665f 	rsbseq	r6, r3, pc, asr r6
    19b0:	66676572 	undefined instruction 0x66676572
    19b4:	00636e75 	rsbeq	r6, r3, r5, ror lr
    19b8:	77616874 	undefined instruction 0x77616874
    19bc:	696f6e5f 	stmdbvs	pc!, {r0, r1, r2, r3, r4, r6, r9, sl, fp, sp, lr}^
    19c0:	62007172 	andvs	r7, r0, #-2147483620	; 0x8000001c
    19c4:	696b6361 	stmdbvs	fp!, {r0, r5, r6, r8, r9, sp, lr}^
    19c8:	645f676e 	ldrbvs	r6, [pc], #1902	; 19d0 <.debug_str+0x19d0>
    19cc:	695f7665 	ldmdbvs	pc, {r0, r2, r5, r6, r9, sl, ip, sp, lr}^
    19d0:	006f666e 	rsbeq	r6, pc, lr, ror #12
    19d4:	696c6770 	stmdbvs	ip!, {r4, r5, r6, r8, r9, sl, sp, lr}^
    19d8:	645f7473 	ldrbvs	r7, [pc], #1139	; 19e0 <.debug_str+0x19e0>
    19dc:	00617461 	rsbeq	r7, r1, r1, ror #8
    19e0:	726f6873 	rsbvc	r6, pc, #7536640	; 0x730000
    19e4:	6e752074 	mrcvs	0, 3, r2, cr5, cr4, {3}
    19e8:	6e676973 	mcrvs	9, 3, r6, cr7, cr3, {3}
    19ec:	69206465 	stmdbvs	r0!, {r0, r2, r5, r6, sl, sp, lr}
    19f0:	6400746e 	strvs	r7, [r0], #-1134	; 0x46e
    19f4:	635f6271 	cmpvs	pc, #268435463	; 0x10000007
    19f8:	6e697275 	mcrvs	2, 3, r7, cr9, cr5, {3}
    19fc:	7365646f 	cmnvc	r5, #1862270976	; 0x6f000000
    1a00:	67697300 	strbvs	r7, [r9, -r0, lsl #6]!
    1a04:	2064656e 	rsbcs	r6, r4, lr, ror #10
    1a08:	72616863 	rsbvc	r6, r1, #6488064	; 0x630000
    1a0c:	6d5f6400 	cfldrdvs	mvd6, [pc]
    1a10:	746e756f 	strbtvc	r7, [lr], #-1391	; 0x56f
    1a14:	45006465 	strmi	r6, [r0, #-1125]	; 0x465
    1a18:	3233666c 	eorscc	r6, r3, #113246208	; 0x6c00000
    1a1c:	726f575f 	rsbvc	r5, pc, #24903680	; 0x17c0000
    1a20:	74730064 	ldrbtvc	r0, [r3], #-100	; 0x64
    1a24:	00747261 	rsbseq	r7, r4, r1, ror #4
    1a28:	6e5f6873 	mrcvs	8, 2, r6, cr15, cr3, {3}
    1a2c:	00656d61 	rsbeq	r6, r5, r1, ror #26
    1a30:	65776f70 	ldrbvs	r6, [r7, #-3952]!	; 0xf70
    1a34:	66666f72 	uqsub16vs	r6, r6, r2
    1a38:	69727700 	ldmdbvs	r2!, {r8, r9, sl, ip, sp, lr}^
    1a3c:	61626574 	smcvs	9812	; 0x2654
    1a40:	635f6b63 	cmpvs	pc, #101376	; 0x18c00
    1a44:	72746e6f 	rsbsvc	r6, r4, #1776	; 0x6f0
    1a48:	70006c6f 	andvc	r6, r0, pc, ror #24
    1a4c:	696d7265 	stmdbvs	sp!, {r0, r2, r5, r6, r9, ip, sp, lr}^
    1a50:	6f697373 	svcvs	0x00697373
    1a54:	6f6e006e 	svcvs	0x006e006e
    1a58:	735f6564 	cmpvc	pc, #419430400	; 0x19000000
    1a5c:	74726174 	ldrbtvc	r6, [r2], #-372	; 0x174
    1a60:	6e66705f 	mcrvs	0, 3, r7, cr6, cr15, {2}
    1a64:	61747300 	cmnvs	r4, r0, lsl #6
    1a68:	00737574 	rsbseq	r7, r3, r4, ror r5
    1a6c:	72745f5f 	rsbsvc	r5, r4, #380	; 0x17c
    1a70:	70656361 	rsbvc	r6, r5, r1, ror #6
    1a74:	746e696f 	strbtvc	r6, [lr], #-2415	; 0x96f
    1a78:	646f6d5f 	strbtvs	r6, [pc], #3423	; 1a80 <.debug_str+0x1a80>
    1a7c:	5f656c75 	svcpl	0x00656c75
    1a80:	00746567 	rsbseq	r6, r4, r7, ror #10
    1a84:	6e756f63 	cdpvs	15, 7, cr6, cr5, cr3, {3}
    1a88:	5f690074 	svcpl	0x00690074
    1a8c:	006f6e69 	rsbeq	r6, pc, r9, ror #28
    1a90:	78746567 	ldmdavc	r4!, {r0, r1, r2, r5, r6, r8, sl, sp, lr}^
    1a94:	72747461 	rsbsvc	r7, r4, #1627389952	; 0x61000000
    1a98:	75706300 	ldrbvc	r6, [r0, #-768]!	; 0x300
    1a9c:	616c735f 	cmnvs	ip, pc, asr r3
    1aa0:	64620062 	strbtvs	r0, [r2], #-98	; 0x62
    1aa4:	6f6c625f 	svcvs	0x006c625f
    1aa8:	735f6b63 	cmpvc	pc, #101376	; 0x18c00
    1aac:	00657a69 	rsbeq	r7, r5, r9, ror #20
    1ab0:	6b636f6c 	blvs	18dd868 <tz_ioctl+0x18dd61c>
    1ab4:	6e616d5f 	mcrvs	13, 3, r6, cr1, cr15, {2}
    1ab8:	72656761 	rsbvc	r6, r5, #25427968	; 0x1840000
    1abc:	65706f5f 	ldrbvs	r6, [r0, #-3935]!	; 0xf5f
    1ac0:	69746172 	ldmdbvs	r4!, {r1, r4, r5, r6, r8, sp, lr}^
    1ac4:	00736e6f 	rsbseq	r6, r3, pc, ror #28
    1ac8:	695f7371 	ldmdbvs	pc, {r0, r4, r5, r6, r8, r9, ip, sp, lr}^
    1acc:	656d6974 	strbvs	r6, [sp, #-2420]!	; 0x974
    1ad0:	696d696c 	stmdbvs	sp!, {r2, r3, r5, r6, r8, fp, sp, lr}^
    1ad4:	656d0074 	strbvs	r0, [sp, #-116]!	; 0x74
    1ad8:	71645f6d 	cmnvc	r4, sp, ror #30
    1adc:	6f666e69 	svcvs	0x00666e69
    1ae0:	69727000 	ldmdbvs	r2!, {ip, sp, lr}^
    1ae4:	72745f6f 	rsbsvc	r5, r4, #444	; 0x1bc
    1ae8:	725f6565 	subsvc	r6, pc, #423624704	; 0x19400000
    1aec:	00746f6f 	rsbseq	r6, r4, pc, ror #30
    1af0:	76656462 	strbtvc	r6, [r5], -r2, ror #8
    1af4:	7972745f 	ldmdbvc	r2!, {r0, r1, r2, r3, r4, r6, sl, ip, sp, lr}^
    1af8:	5f6f745f 	svcpl	0x006f745f
    1afc:	65657266 	strbvs	r7, [r5, #-614]!	; 0x266
    1b00:	6761705f 	undefined instruction 0x6761705f
    1b04:	5f640065 	svcpl	0x00640065
    1b08:	756f6362 	strbvc	r6, [pc, #-866]!	; 17ae <.debug_str+0x17ae>
    1b0c:	7700746e 	strvc	r7, [r0, -lr, ror #8]
    1b10:	5f746961 	svcpl	0x00746961
    1b14:	6b636f6c 	blvs	18dd8cc <tz_ioctl+0x18dd680>
    1b18:	6c756600 	ldclvs	6, cr6, [r5]
    1b1c:	6f63006c 	svcvs	0x0063006c
    1b20:	6c6f736e 	stclvs	3, cr7, [pc], #-440	; 0xfffffe48
    1b24:	72705f65 	rsbsvc	r5, r0, #404	; 0x194
    1b28:	6b746e69 	blvs	1d1d4d4 <tz_ioctl+0x1d1d288>
    1b2c:	6e757200 	cdpvs	2, 7, cr7, cr5, cr0, {0}
    1b30:	656d6974 	strbvs	r6, [sp, #-2420]!	; 0x974
    1b34:	6c64695f 	stclvs	9, cr6, [r4], #-380	; 0xfffffe84
    1b38:	656c0065 	strbvs	r0, [ip, #-101]!	; 0x65
    1b3c:	006c6576 	rsbeq	r6, ip, r6, ror r5
    1b40:	706f5f69 	rsbvc	r5, pc, r9, ror #30
    1b44:	65726b00 	ldrbvs	r6, [r2, #-2816]!	; 0xb00
    1b48:	74730066 	ldrbtvc	r0, [r3], #-102	; 0x66
    1b4c:	676e6972 	undefined instruction 0x676e6972
    1b50:	6e616e00 	cdpvs	14, 6, cr6, cr1, cr0, {0}
    1b54:	656c736f 	strbvs	r7, [ip, #-879]!	; 0x36f
    1b58:	5f007065 	svcpl	0x00007065
    1b5c:	3631755f 	undefined instruction 0x3631755f
    1b60:	75726c00 	ldrbvc	r6, [r2, #-3072]!	; 0xc00
    1b64:	636f6c5f 	cmnvs	pc, #24320	; 0x5f00
    1b68:	6e75006b 	cdpvs	0, 7, cr0, cr5, cr11, {3}
    1b6c:	646e6977 	strbtvs	r6, [lr], #-2423	; 0x977
    1b70:	6261745f 	rsbvs	r7, r1, #1593835520	; 0x5f000000
    1b74:	7300656c 	movwvc	r6, #1388	; 0x56c
    1b78:	65746174 	ldrbvs	r6, [r4, #-372]!	; 0x174
    1b7c:	6e797300 	cdpvs	3, 7, cr7, cr9, cr0, {0}
    1b80:	73665f63 	cmnvc	r6, #396	; 0x18c
    1b84:	6d797300 	ldclvs	3, cr7, [r9]
    1b88:	00626174 	rsbeq	r6, r2, r4, ror r1
    1b8c:	6c746573 	cfldr64vs	mvdx6, [r4], #-460	; 0xfffffe34
    1b90:	65736165 	ldrbvs	r6, [r3, #-357]!	; 0x165
    1b94:	69617700 	stmdbvs	r1!, {r8, r9, sl, ip, sp, lr}^
    1b98:	00726574 	rsbseq	r6, r2, r4, ror r5
    1b9c:	77695f64 	strbvc	r5, [r9, -r4, ror #30]!
    1ba0:	736e7261 	cmnvc	lr, #268435462	; 0x10000006
    1ba4:	75637200 	strbvc	r7, [r3, #-512]!	; 0x200
    1ba8:	6165685f 	cmnvs	r5, pc, asr r8
    1bac:	64620064 	strbtvs	r0, [r2], #-100	; 0x64
    1bb0:	73696c5f 	cmnvc	r9, #24320	; 0x5f00
    1bb4:	61700074 	cmnvs	r0, r4, ror r0
    1bb8:	6b006874 	blvs	1bd90 <tz_ioctl+0x1bb44>
    1bbc:	656e7265 	strbvs	r7, [lr, #-613]!	; 0x265
    1bc0:	61705f6c 	cmnvs	r0, ip, ror #30
    1bc4:	006d6172 	rsbeq	r6, sp, r2, ror r1
    1bc8:	62735f64 	rsbsvs	r5, r3, #400	; 0x190
    1bcc:	776f6c00 	strbvc	r6, [pc, -r0, lsl #24]!
    1bd0:	5f6d656d 	svcpl	0x006d656d
    1bd4:	65736572 	ldrbvs	r6, [r3, #-1394]!	; 0x572
    1bd8:	00657672 	rsbeq	r7, r5, r2, ror r6
    1bdc:	5f697164 	svcpl	0x00697164
    1be0:	61726769 	cmnvs	r2, r9, ror #14
    1be4:	71006563 	tstvc	r0, r3, ror #10
    1be8:	61705f73 	cmnvs	r0, r3, ror pc
    1bec:	6b6d0064 	blvs	1b41d84 <tz_ioctl+0x1b41b38>
    1bf0:	00646f6e 	rsbeq	r6, r4, lr, ror #30
    1bf4:	78657066 	stmdavc	r5!, {r1, r2, r5, r6, ip, sp, lr}^
    1bf8:	69660063 	stmdbvs	r6!, {r0, r1, r5, r6}^
    1bfc:	7265746c 	rsbvc	r7, r5, #1811939328	; 0x6c000000
    1c00:	745f5f00 	ldrbvc	r5, [pc], #3840	; 1c08 <.debug_str+0x1c08>
    1c04:	65636172 	strbvs	r6, [r3, #-370]!	; 0x172
    1c08:	6e696f70 	mcrvs	15, 3, r6, cr9, cr0, {3}
    1c0c:	6d6d5f74 	stclvs	15, cr5, [sp, #-464]!	; 0xfffffe30
    1c10:	6761705f 	undefined instruction 0x6761705f
    1c14:	6c615f65 	stclvs	15, cr5, [r1], #-404	; 0xfffffe6c
    1c18:	5f636f6c 	svcpl	0x00636f6c
    1c1c:	656e6f7a 	strbvs	r6, [lr, #-3962]!	; 0xf7a
    1c20:	636f6c5f 	cmnvs	pc, #24320	; 0x5f00
    1c24:	0064656b 	rsbeq	r6, r4, fp, ror #10
    1c28:	656b5f5f 	strbvs	r5, [fp, #-3935]!	; 0xf5f
    1c2c:	6c656e72 	stclvs	14, cr6, [r5], #-456	; 0xfffffe38
    1c30:	646f6d5f 	strbtvs	r6, [pc], #3423	; 1c38 <.debug_str+0x1c38>
    1c34:	00745f65 	rsbseq	r5, r4, r5, ror #30
    1c38:	6c625f69 	stclvs	15, cr5, [r2], #-420	; 0xfffffe5c
    1c3c:	736b636f 	cmnvc	fp, #-1140850687	; 0xbc000001
    1c40:	635f6400 	cmpvs	pc, #0
    1c44:	61706d6f 	cmnvs	r0, pc, ror #26
    1c48:	6d006572 	cfstr32vs	mvfx6, [r0, #-456]	; 0xfffffe38
    1c4c:	6c75646f 	cfldrdvs	mvd6, [r5], #-444	; 0xfffffe44
    1c50:	5f730065 	svcpl	0x00730065
    1c54:	746f6f72 	strbtvc	r6, [pc], #3954	; 1c5c <.debug_str+0x1c5c>
    1c58:	6e657200 	cdpvs	2, 6, cr7, cr5, cr0, {0}
    1c5c:	00656d61 	rsbeq	r6, r5, r1, ror #26
    1c60:	6e757274 	mrcvs	2, 3, r7, cr5, cr4, {3}
    1c64:	65746163 	ldrbvs	r6, [r4, #-355]!	; 0x163
    1c68:	756f635f 	strbvc	r6, [pc, #-863]!	; 1911 <.debug_str+0x1911>
    1c6c:	7300746e 	movwvc	r7, #1134	; 0x46e
    1c70:	0074666f 	rsbseq	r6, r4, pc, ror #12
    1c74:	636e7566 	cmnvs	lr, #427819008	; 0x19800000
    1c78:	6d756e00 	ldclvs	14, cr6, [r5]
    1c7c:	6172745f 	cmnvs	r2, pc, asr r4
    1c80:	6f706563 	svcvs	0x00706563
    1c84:	73746e69 	cmnvc	r4, #1680	; 0x690
    1c88:	615f6900 	cmpvs	pc, r0, lsl #18
    1c8c:	74006c63 	strvc	r6, [r0], #-3171	; 0xc63
    1c90:	6c61746f 	cfstrdvs	mvd7, [r1], #-444	; 0xfffffe44
    1c94:	6a626f5f 	bvs	189da18 <tz_ioctl+0x189d7cc>
    1c98:	73746365 	cmnvc	r4, #-1811939327	; 0x94000001
    1c9c:	5f646200 	svcpl	0x00646200
    1ca0:	76697270 	undefined instruction 0x76697270
    1ca4:	00657461 	rsbeq	r7, r5, r1, ror #8
    1ca8:	74726964 	ldrbtvc	r6, [r2], #-2404	; 0x964
    1cac:	5f646569 	svcpl	0x00646569
    1cb0:	6e656877 	mcrvs	8, 3, r6, cr5, cr7, {3}
    1cb4:	73706600 	cmnvc	r0, #0
    1cb8:	5f007263 	svcpl	0x00007263
    1cbc:	3233755f 	eorscc	r7, r3, #398458880	; 0x17c00000
    1cc0:	5f656600 	svcpl	0x00656600
    1cc4:	73796870 	cmnvc	r9, #7340032	; 0x700000
    1cc8:	6c616369 	stclvs	3, cr6, [r1], #-420	; 0xfffffe5c
    1ccc:	6d657200 	sfmvs	f7, 2, [r5]	; (stclvs 2, cr7, [r5])
    1cd0:	0065766f 	rsbeq	r7, r5, pc, ror #12
    1cd4:	65676170 	strbvs	r6, [r7, #-368]!	; 0x170
    1cd8:	6f72675f 	svcvs	0x0072675f
    1cdc:	625f7075 	subsvs	r7, pc, #117	; 0x75
    1ce0:	6f6d5f79 	svcvs	0x006d5f79
    1ce4:	696c6962 	stmdbvs	ip!, {r1, r5, r6, r8, fp, sp, lr}^
    1ce8:	645f7974 	ldrbvs	r7, [pc], #2420	; 1cf0 <.debug_str+0x1cf0>
    1cec:	62617369 	rsbvs	r7, r1, #-1543503871	; 0xa4000001
    1cf0:	0064656c 	rsbeq	r6, r4, ip, ror #10
    1cf4:	70766e65 	rsbsvc	r6, r6, r5, ror #28
    1cf8:	7864695f 	stmdavc	r4!, {r0, r1, r2, r3, r4, r6, r8, fp, sp, lr}^
    1cfc:	6d5f7300 	ldclvs	3, cr7, [pc]
    1d00:	74006474 	strvc	r6, [r0], #-1140	; 0x474
    1d04:	00656d69 	rsbeq	r6, r5, r9, ror #26
    1d08:	65657266 	strbvs	r7, [r5, #-614]!	; 0x266
    1d0c:	7473696c 	ldrbtvc	r6, [r3], #-2412	; 0x96c
    1d10:	76656400 	strbtvc	r6, [r5], -r0, lsl #8
    1d14:	5f656369 	svcpl	0x00656369
    1d18:	76697270 	undefined instruction 0x76697270
    1d1c:	00657461 	rsbeq	r7, r5, r1, ror #8
    1d20:	6d5f6d70 	ldclvs	13, cr6, [pc, #-448]	; 0xfffffe40
    1d24:	61737365 	cmnvs	r3, r5, ror #6
    1d28:	745f6567 	ldrbvc	r6, [pc], #1383	; 1d30 <.debug_str+0x1d30>
    1d2c:	6e6f6c00 	cdpvs	12, 6, cr6, cr15, cr0, {0}
    1d30:	6e692067 	cdpvs	0, 6, cr2, cr9, cr7, {3}
    1d34:	5f690074 	svcpl	0x00690074
    1d38:	70616d6d 	rsbvc	r6, r1, sp, ror #26
    1d3c:	706f6900 	rsbvc	r6, pc, r0, lsl #18
    1d40:	5f74726f 	svcpl	0x0074726f
    1d44:	6f736572 	svcvs	0x00736572
    1d48:	65637275 	strbvs	r7, [r3, #-629]!	; 0x275
    1d4c:	69617700 	stmdbvs	r1!, {r8, r9, sl, ip, sp, lr}^
    1d50:	61745f74 	cmnvs	r4, r4, ror pc
    1d54:	5f656c62 	svcpl	0x00656c62
    1d58:	73746962 	cmnvc	r4, #1605632	; 0x188000
    1d5c:	74796200 	ldrbtvc	r6, [r9], #-512	; 0x200
    1d60:	615f7365 	cmpvs	pc, r5, ror #6
    1d64:	636f6c6c 	cmnvs	pc, #27648	; 0x6c00
    1d68:	5f6c6600 	svcpl	0x006c6600
    1d6c:	74696177 	strbtvc	r6, [r9], #-375	; 0x177
    1d70:	5f7a7400 	svcpl	0x007a7400
    1d74:	656c6572 	strbvs	r6, [ip, #-1394]!	; 0x572
    1d78:	00657361 	rsbeq	r7, r5, r1, ror #6
    1d7c:	73696c6b 	cmnvc	r9, #27392	; 0x6b00
    1d80:	6f6e5f74 	svcvs	0x006e5f74
    1d84:	64006564 	strvs	r6, [r0], #-1380	; 0x564
    1d88:	64695f71 	strbtvs	r5, [r9], #-3953	; 0xf71
    1d8c:	5f6d7600 	svcpl	0x006d7600
    1d90:	74617473 	strbtvc	r7, [r1], #-1139	; 0x473
    1d94:	5f617200 	svcpl	0x00617200
    1d98:	65676170 	strbvs	r6, [r7, #-368]!	; 0x170
    1d9c:	61740073 	cmnvs	r4, r3, ror r0
    1da0:	6c5f6b73 	mrrcvs	11, 7, r6, pc, cr3
    1da4:	00747369 	rsbseq	r7, r4, r9, ror #6
    1da8:	5f736671 	svcpl	0x00736671
    1dac:	6b6c626e 	blvs	1b1a76c <tz_ioctl+0x1b1a520>
    1db0:	6c660073 	stclvs	0, cr0, [r6], #-460	; 0xfffffe34
    1db4:	746f6e5f 	strbtvc	r6, [pc], #3679	; 1dbc <.debug_str+0x1dbc>
    1db8:	00796669 	rsbseq	r6, r9, r9, ror #12
    1dbc:	5f6e696d 	svcpl	0x006e696d
    1dc0:	74726170 	ldrbtvc	r6, [r2], #-368	; 0x170
    1dc4:	006c6169 	rsbeq	r6, ip, r9, ror #2
    1dc8:	6c5f6566 	cfldr64vs	mvdx6, [pc], {102}	; 0x66
    1dcc:	74676e65 	strbtvc	r6, [r7], #-3685	; 0xe65
    1dd0:	65660068 	strbvs	r0, [r6, #-104]!	; 0x68
    1dd4:	676f6c5f 	undefined instruction 0x676f6c5f
    1dd8:	6c616369 	stclvs	3, cr6, [r1], #-420	; 0xfffffe5c
    1ddc:	5f646200 	svcpl	0x00646200
    1de0:	746e6f63 	strbtvc	r6, [lr], #-3939	; 0xf63
    1de4:	736e6961 	cmnvc	lr, #1589248	; 0x184000
    1de8:	755f6900 	ldrbvc	r6, [pc, #-2304]	; 14f0 <.debug_str+0x14f0>
    1dec:	70006469 	andvc	r6, r0, r9, ror #8
    1df0:	5f657069 	svcpl	0x00657069
    1df4:	646f6e69 	strbtvs	r6, [pc], #3689	; 1dfc <.debug_str+0x1dfc>
    1df8:	6e695f65 	cdpvs	15, 6, cr5, cr9, cr5, {3}
    1dfc:	73006f66 	movwvc	r6, #3942	; 0xf66
    1e00:	5f776f68 	svcpl	0x00776f68
    1e04:	6974706f 	ldmdbvs	r4!, {r0, r1, r2, r3, r5, r6, ip, sp, lr}^
    1e08:	00736e6f 	rsbseq	r6, r3, pc, ror #28
    1e0c:	6e65706f 	cdpvs	0, 6, cr7, cr5, cr15, {3}
    1e10:	7365735f 	cmnvc	r5, #2080374785	; 0x7c000001
    1e14:	6e6f6973 	mcrvs	9, 3, r6, cr15, cr3, {3}
    1e18:	5f666900 	svcpl	0x00666900
    1e1c:	6c627164 	stfvse	f7, [r2], #-400	; 0xfffffe70
    1e20:	7277006b 	rsbsvc	r0, r7, #107	; 0x6b
    1e24:	00657469 	rsbeq	r7, r5, r9, ror #8
    1e28:	65657266 	strbvs	r7, [r5, #-614]!	; 0x266
    1e2c:	73696c5f 	cmnvc	r9, #24320	; 0x5f00
    1e30:	69610074 	stmdbvs	r1!, {r2, r4, r5, r6}^
    1e34:	65725f6f 	ldrbvs	r5, [r2, #-3951]!	; 0xf6f
    1e38:	75006461 	strvc	r6, [r0, #-1121]	; 0x461
    1e3c:	6572666e 	ldrbvs	r6, [r2, #-1646]!	; 0x66e
    1e40:	5f657a65 	svcpl	0x00657a65
    1e44:	6c007366 	stcvs	3, cr7, [r0], {102}	; 0x66
    1e48:	00747361 	rsbseq	r7, r4, r1, ror #6
    1e4c:	776f5f66 	strbvc	r5, [pc, -r6, ror #30]!
    1e50:	0072656e 	rsbseq	r6, r2, lr, ror #10
    1e54:	74697277 	strbtvc	r7, [r9], #-631	; 0x277
    1e58:	6e655f65 	cdpvs	15, 6, cr5, cr5, cr5, {3}
    1e5c:	78650064 	stmdavc	r5!, {r2, r5, r6}^
    1e60:	74706563 	ldrbtvc	r6, [r0], #-1379	; 0x563
    1e64:	5f6e6f69 	svcpl	0x006e6f69
    1e68:	6c626174 	stfvse	f6, [r2], #-464	; 0xfffffe30
    1e6c:	6e655f65 	cdpvs	15, 6, cr5, cr5, cr5, {3}
    1e70:	00797274 	rsbseq	r7, r9, r4, ror r2
    1e74:	746e6975 	strbtvc	r6, [lr], #-2421	; 0x975
    1e78:	745f3233 	ldrbvc	r3, [pc], #563	; 1e80 <.debug_str+0x1e80>
    1e7c:	73756200 	cmnvc	r5, #0
    1e80:	7079745f 	rsbsvc	r7, r9, pc, asr r4
    1e84:	72705f65 	rsbsvc	r5, r0, #404	; 0x194
    1e88:	74617669 	strbtvc	r7, [r1], #-1641	; 0x669
    1e8c:	7a740065 	bvc	1d02028 <tz_ioctl+0x1d01ddc>
    1e90:	7665645f 	undefined instruction 0x7665645f
    1e94:	666c4500 	strbtvs	r4, [ip], -r0, lsl #10
    1e98:	415f3233 	cmpmi	pc, r3, lsr r2
    1e9c:	00726464 	rsbseq	r6, r2, r4, ror #8
    1ea0:	65726964 	ldrbvs	r6, [r2, #-2404]!	; 0x964
    1ea4:	495f7463 	ldmdbmi	pc, {r0, r1, r5, r6, sl, ip, sp, lr}^
    1ea8:	6c61004f 	stclvs	0, cr0, [r1], #-316	; 0xfffffec4
    1eac:	5f636f6c 	svcpl	0x00636f6c
    1eb0:	646f6e69 	strbtvs	r6, [pc], #3689	; 1eb8 <.debug_str+0x1eb8>
    1eb4:	68730065 	ldmdavs	r3!, {r0, r2, r5, r6}^
    1eb8:	6f647475 	svcvs	0x00647475
    1ebc:	71006e77 	tstvc	r0, r7, ror lr
    1ec0:	74725f73 	ldrbtvc	r5, [r2], #-3955	; 0xf73
    1ec4:	6d697462 	cfstrdvs	mvd7, [r9, #-392]!	; 0xfffffe78
    1ec8:	6d696c65 	stclvs	12, cr6, [r9, #-404]!	; 0xfffffe6c
    1ecc:	73007469 	movwvc	r7, #1129	; 0x469
    1ed0:	6564625f 	strbvs	r6, [r4, #-607]!	; 0x25f
    1ed4:	5f640076 	svcpl	0x00640076
    1ed8:	73726576 	cmnvc	r2, #494927872	; 0x1d800000
    1edc:	006e6f69 	rsbeq	r6, lr, r9, ror #30
    1ee0:	65646f6e 	strbvs	r6, [r4, #-3950]!	; 0xf6e
    1ee4:	6170735f 	cmnvs	r0, pc, asr r3
    1ee8:	64656e6e 	strbtvs	r6, [r5], #-3694	; 0xe6e
    1eec:	6761705f 	undefined instruction 0x6761705f
    1ef0:	66007365 	strvs	r7, [r0], -r5, ror #6
    1ef4:	78655f69 	stmdavc	r5!, {r0, r3, r5, r6, r8, r9, sl, fp, ip, lr}^
    1ef8:	746e6574 	strbtvc	r6, [lr], #-1396	; 0x574
    1efc:	616d5f73 	smcvs	54771	; 0xd5f3
    1f00:	64657070 	strbtvs	r7, [r5], #-112	; 0x70
    1f04:	76656400 	strbtvc	r6, [r5], -r0, lsl #8
    1f08:	00656369 	rsbeq	r6, r5, r9, ror #6
    1f0c:	61705f64 	cmnvs	r0, r4, ror #30
    1f10:	6e696464 	cdpvs	4, 6, cr6, cr9, cr4, {3}
    1f14:	5f003367 	svcpl	0x00003367
    1f18:	3436755f 	ldrtcc	r7, [r6], #-1375	; 0x55f
    1f1c:	615f6900 	cmpvs	pc, r0, lsl #18
    1f20:	636f6c6c 	cmnvs	pc, #27648	; 0x6c00
    1f24:	6d65735f 	stclvs	3, cr7, [r5, #-380]!	; 0xfffffe84
    1f28:	735f6900 	cmpvc	pc, #0
    1f2c:	00657a69 	rsbeq	r7, r5, r9, ror #20
    1f30:	6374616d 	cmnvs	r4, #1073741851	; 0x4000001b
    1f34:	66750068 	ldrbtvs	r0, [r5], -r8, rrx
    1f38:	69007364 	stmdbvs	r0, {r2, r5, r6, r8, r9, ip, sp, lr}
    1f3c:	636f6c5f 	cmnvs	pc, #24320	; 0x5f00
    1f40:	656b5f6b 	strbvs	r5, [fp, #-3947]!	; 0xf6b
    1f44:	65730079 	ldrbvs	r0, [r3, #-121]!	; 0x79
    1f48:	6f697373 	svcvs	0x00697373
    1f4c:	64695f6e 	strbtvs	r5, [r9], #-3950	; 0xf6e
    1f50:	5f6c6600 	svcpl	0x006c6600
    1f54:	79706f63 	ldmdbvc	r0!, {r0, r1, r5, r6, r8, r9, sl, fp, sp, lr}^
    1f58:	636f6c5f 	cmnvs	pc, #24320	; 0x5f00
    1f5c:	6c63006b 	stclvs	0, cr0, [r3], #-428	; 0xfffffe54
    1f60:	5f6d6961 	svcpl	0x006d6961
    1f64:	63617073 	cmnvs	r1, #115	; 0x73
    1f68:	5f5f0065 	svcpl	0x005f0065
    1f6c:	6e72656b 	cdpvs	5, 7, cr6, cr2, cr11, {3}
    1f70:	735f6c65 	cmpvc	pc, #25856	; 0x6500
    1f74:	657a6973 	ldrbvs	r6, [sl, #-2419]!	; 0x973
    1f78:	7700745f 	smlsdvc	r0, pc, r4, r7
    1f7c:	65746972 	ldrbvs	r6, [r4, #-2418]!	; 0x972
    1f80:	7075735f 	rsbsvc	r7, r5, pc, asr r3
    1f84:	6b007265 	blvs	1e920 <tz_ioctl+0x1e6d4>
    1f88:	5f6a626f 	svcpl	0x006a626f
    1f8c:	65707974 	ldrbvs	r7, [r0, #-2420]!	; 0x974
    1f90:	73696400 	cmnvc	r9, #0
    1f94:	79616c70 	stmdbvc	r1!, {r4, r5, r6, sl, fp, sp, lr}^
    1f98:	6975755f 	ldmdbvs	r5!, {r0, r1, r2, r3, r4, r6, r8, sl, ip, sp, lr}^
    1f9c:	5f690064 	svcpl	0x00690064
    1fa0:	73726576 	cmnvc	r2, #494927872	; 0x1d800000
    1fa4:	006e6f69 	rsbeq	r6, lr, r9, ror #30
    1fa8:	676e6f6c 	strbvs	r6, [lr, -ip, ror #30]!
    1fac:	736e7520 	cmnvc	lr, #134217728	; 0x8000000
    1fb0:	656e6769 	strbvs	r6, [lr, #-1897]!	; 0x769
    1fb4:	6e692064 	cdpvs	0, 6, cr2, cr9, cr4, {3}
    1fb8:	5f610074 	svcpl	0x00610074
    1fbc:	0073706f 	rsbseq	r7, r3, pc, rrx
    1fc0:	636b6c62 	cmnvs	fp, #25088	; 0x6200
    1fc4:	745f746e 	ldrbvc	r7, [pc], #1134	; 1fcc <.debug_str+0x1fcc>
    1fc8:	746e6500 	strbtvc	r6, [lr], #-1280	; 0x500
    1fcc:	54007972 	strpl	r7, [r0], #-2418	; 0x972
    1fd0:	5f434545 	svcpl	0x00434545
    1fd4:	61726150 	cmnvs	r2, r0, asr r1
    1fd8:	736b006d 	cmnvc	fp, #109	; 0x6d
    1fdc:	69007465 	stmdbvs	r0, {r0, r2, r5, r6, sl, ip, sp, lr}
    1fe0:	74756d5f 	ldrbtvc	r6, [r5], #-3423	; 0xd5f
    1fe4:	6b5f7865 	blvs	17e0180 <tz_ioctl+0x17dff34>
    1fe8:	63007965 	movwvs	r7, #2405	; 0x965
    1fec:	7265686f 	rsbvc	r6, r5, #7274496	; 0x6f0000
    1ff0:	5f746e65 	svcpl	0x00746e65
    1ff4:	5f616d64 	svcpl	0x00616d64
    1ff8:	6b73616d 	blvs	1cda5b4 <tz_ioctl+0x1cda368>
    1ffc:	72707000 	rsbsvc	r7, r0, #0
    2000:	70007665 	andvc	r7, r0, r5, ror #12
    2004:	7265776f 	rsbvc	r7, r5, #29097984	; 0x1bc0000
    2008:	76656400 	strbtvc	r6, [r5], -r0, lsl #8
    200c:	626f6b5f 	rsbvs	r6, pc, #97280	; 0x17c00
    2010:	5044006a 	subpl	r0, r4, sl, rrx
    2014:	4e495f4d 	cdpmi	15, 4, cr5, cr9, cr13, {2}
    2018:	494c4156 	stmdbmi	ip, {r1, r2, r4, r6, r8, lr}^
    201c:	79730044 	ldmdbvc	r3!, {r2, r6}^
    2020:	6e00736d 	cdpvs	3, 0, cr7, cr0, cr13, {3}
    2024:	646f6e5f 	strbtvs	r6, [pc], #3679	; 202c <.debug_str+0x202c>
    2028:	682f0065 	stmdavs	pc!, {r0, r2, r5, r6}
    202c:	2f656d6f 	svccs	0x00656d6f
    2030:	6a6f756c 	bvs	1bdf5e8 <tz_ioctl+0x1bdf39c>
    2034:	2f676e69 	svccs	0x00676e69
    2038:	72616873 	rsbvc	r6, r1, #7536640	; 0x730000
    203c:	72702f65 	rsbsvc	r2, r0, #404	; 0x194
    2040:	63656a6f 	cmnvs	r5, #454656	; 0x6f000
    2044:	6c2f7374 	stcvs	3, cr7, [pc], #-464	; 0xfffffe30
    2048:	78756e69 	ldmdavc	r5!, {r0, r3, r5, r6, r9, sl, fp, sp, lr}^
    204c:	72656b5f 	rsbvc	r6, r5, #97280	; 0x17c00
    2050:	5f6c656e 	svcpl	0x006c656e
    2054:	76703573 	undefined instruction 0x76703573
    2058:	2f303132 	svccs	0x00303132
    205c:	6e72656b 	cdpvs	5, 7, cr6, cr2, cr11, {3}
    2060:	64006c65 	strvs	r6, [r0], #-3173	; 0xc65
    2064:	705f616d 	subsvc	r6, pc, sp, ror #2
    2068:	736c6f6f 	cmnvc	ip, #444	; 0x1bc
    206c:	69727700 	ldmdbvs	r2!, {r8, r9, sl, ip, sp, lr}^
    2070:	645f6574 	ldrbvs	r6, [pc], #1396	; 2078 <.debug_str+0x2078>
    2074:	746f7571 	strbtvc	r7, [pc], #1393	; 207c <.debug_str+0x207c>
    2078:	74736b00 	ldrbtvc	r6, [r3], #-2816	; 0xb00
    207c:	73007461 	movwvc	r7, #1121	; 0x461
    2080:	785f7465 	ldmdavc	pc, {r0, r2, r5, r6, sl, ip, sp, lr}^
    2084:	746f7571 	strbtvc	r7, [pc], #1393	; 208c <.debug_str+0x208c>
    2088:	68630061 	stmdavs	r3!, {r0, r5, r6}^
    208c:	73007261 	movwvc	r7, #609	; 0x261
    2090:	705f7465 	subsvc	r7, pc, r5, ror #8
    2094:	5f656761 	svcpl	0x00656761
    2098:	74726964 	ldrbtvc	r6, [r2], #-2404	; 0x964
    209c:	72630079 	rsbvc	r0, r3, #121	; 0x79
    20a0:	62007363 	andvs	r7, r0, #-1946157055	; 0x8c000001
    20a4:	0070616d 	rsbseq	r6, r0, sp, ror #2
    20a8:	656e6f7a 	strbvs	r6, [lr, #-3962]!	; 0xf7a
    20ac:	00666572 	rsbeq	r6, r6, r2, ror r5
    20b0:	74746169 	ldrbtvc	r6, [r4], #-361	; 0x169
    20b4:	756e0072 	strbvc	r0, [lr, #-114]!	; 0x72
    20b8:	79735f6d 	ldmdbvc	r3!, {r0, r2, r3, r5, r6, r8, r9, sl, fp, ip, lr}^
    20bc:	6261746d 	rsbvs	r7, r1, #1828716544	; 0x6d000000
    20c0:	5f747300 	svcpl	0x00747300
    20c4:	656d616e 	strbvs	r6, [sp, #-366]!	; 0x16e
    20c8:	6e6f7a00 	vmulvs.f32	s15, s30, s0
    20cc:	74735f65 	ldrbtvc	r5, [r3], #-3941	; 0xf65
    20d0:	5f747261 	svcpl	0x00747261
    20d4:	006e6670 	rsbeq	r6, lr, r0, ror r6
    20d8:	72745f5f 	rsbsvc	r5, r4, #380	; 0x17c
    20dc:	70656361 	rsbvc	r6, r5, r1, ror #6
    20e0:	746e696f 	strbtvc	r6, [lr], #-2415	; 0x96f
    20e4:	646f6d5f 	strbtvs	r6, [pc], #3423	; 20ec <.debug_str+0x20ec>
    20e8:	5f656c75 	svcpl	0x00656c75
    20ec:	00747570 	rsbseq	r7, r4, r0, ror r5
    20f0:	646f6d75 	strbtvs	r6, [pc], #3445	; 20f8 <.debug_str+0x20f8>
    20f4:	00745f65 	rsbseq	r5, r4, r5, ror #30
    20f8:	5f4d5044 	svcpl	0x004d5044
    20fc:	55534552 	ldrbpl	r4, [r3, #-1362]	; 0x552
    2100:	474e494d 	strbmi	r4, [lr, -sp, asr #18]
    2104:	5f737100 	svcpl	0x00737100
    2108:	73726576 	cmnvc	r2, #494927872	; 0x1d800000
    210c:	006e6f69 	rsbeq	r6, lr, r9, ror #30
    2110:	64726168 	ldrbtvs	r6, [r2], #-360	; 0x168
    2114:	5f737100 	svcpl	0x00737100
    2118:	6f636e69 	svcvs	0x00636e69
    211c:	71646572 	smcvc	18002	; 0x4652
    2120:	71640073 	smcvc	16387	; 0x4003
    2124:	7269645f 	rsbvc	r6, r9, #1593835520	; 0x5f000000
    2128:	6d007974 	stcvs	9, cr7, [r0, #-464]	; 0xfffffe30
    212c:	6c75646f 	cfldrdvs	mvd6, [r5], #-444	; 0xfffffe44
    2130:	65735f65 	ldrbvs	r5, [r3, #-3941]!	; 0xf65
    2134:	615f7463 	cmpvs	pc, r3, ror #8
    2138:	73727474 	cmnvc	r2, #1946157056	; 0x74000000
    213c:	5f616600 	svcpl	0x00616600
    2140:	7478656e 	ldrbtvc	r6, [r8], #-1390	; 0x56e
    2144:	69716400 	ldmdbvs	r1!, {sl, sp, lr}^
    2148:	6c61765f 	stclvs	6, cr7, [r1], #-380	; 0xfffffe84
    214c:	66006469 	strvs	r6, [r0], -r9, ror #8
    2150:	5f656c69 	svcpl	0x00656c69
    2154:	74737973 	ldrbtvc	r7, [r3], #-2419	; 0x973
    2158:	745f6d65 	ldrbvc	r6, [pc], #3429	; 2160 <.debug_str+0x2160>
    215c:	00657079 	rsbeq	r7, r5, r9, ror r0
    2160:	645f6669 	ldrbvs	r6, [pc], #1641	; 2168 <.debug_str+0x2168>
    2164:	666e6971 	undefined instruction 0x666e6971
    2168:	7366006f 	cmnvc	r6, #111	; 0x6f
    216c:	7075735f 	rsbsvc	r7, r5, pc, asr r3
    2170:	00737265 	rsbseq	r7, r3, r5, ror #4
    2174:	665f7371 	undefined instruction 0x665f7371
    2178:	7367616c 	cmnvc	r7, #27
    217c:	74617700 	strbtvc	r7, [r1], #-1792	; 0x700
    2180:	616d7265 	cmnvs	sp, r5, ror #4
    2184:	75006b72 	strvc	r6, [r0, #-2930]	; 0xb72
    2188:	00646970 	rsbeq	r6, r4, r0, ror r9
    218c:	33666c65 	cmncc	r6, #25856	; 0x6500
    2190:	79735f32 	ldmdbvc	r3!, {r1, r4, r5, r8, r9, sl, fp, ip, lr}^
    2194:	6d64006d 	stclvs	0, cr0, [r4, #-436]!	; 0xfffffe4c
    2198:	656d5f61 	strbvs	r5, [sp, #-3937]!	; 0xf61
    219c:	6461006d 	strbtvs	r0, [r1], #-109	; 0x6d
    21a0:	73657264 	cmnvc	r5, #1073741830	; 0x40000006
    21a4:	70735f73 	rsbsvc	r5, r3, r3, ror pc
    21a8:	5f656361 	svcpl	0x00656361
    21ac:	7265706f 	rsbvc	r7, r5, #111	; 0x6f
    21b0:	6f697461 	svcvs	0x00697461
    21b4:	6100736e 	tstvs	r0, lr, ror #6
    21b8:	5f726464 	svcpl	0x00726464
    21bc:	696d696c 	stmdbvs	sp!, {r2, r3, r5, r6, r8, fp, sp, lr}^
    21c0:	61700074 	cmnvs	r0, r4, ror r0
    21c4:	5f6d6172 	svcpl	0x006d6172
    21c8:	65707974 	ldrbvs	r7, [r0, #-2420]!	; 0x974
    21cc:	616e6900 	cmnvs	lr, r0, lsl #18
    21d0:	76697463 	strbtvc	r7, [r9], -r3, ror #8
    21d4:	61725f65 	cmnvs	r2, r5, ror #30
    21d8:	006f6974 	rsbeq	r6, pc, r4, ror r9
    21dc:	5f766564 	svcpl	0x00766564
    21e0:	72747461 	rsbsvc	r7, r4, #1627389952	; 0x61000000
    21e4:	61680073 	smcvs	32771	; 0x8003
    21e8:	6b006873 	blvs	1c3bc <tz_ioctl+0x1c170>
    21ec:	6c6d656d 	cfstr64vs	mvdx6, [sp], #-436	; 0xfffffe4c
    21f0:	5f6b6165 	svcpl	0x006b6165
    21f4:	6f6c6c61 	svcvs	0x006c6c61
    21f8:	6f6e0063 	svcvs	0x006e0063
    21fc:	67006564 	strvs	r6, [r0, -r4, ror #10]
    2200:	665f7066 	ldrbvs	r7, [pc], -r6, rrx
    2204:	7367616c 	cmnvc	r7, #27
    2208:	65726300 	ldrbvs	r6, [r2, #-768]!	; 0x300
    220c:	61680064 	cmnvs	r8, r4, rrx
    2210:	69745f73 	ldmdbvs	r4!, {r0, r1, r4, r5, r6, r8, r9, sl, fp, ip, lr}^
    2214:	756f656d 	strbvc	r6, [pc, #-1389]!	; 1caf <.debug_str+0x1caf>
    2218:	6c450074 	mcrrvs	0, 7, r0, r5, cr4
    221c:	5f323366 	svcpl	0x00323366
    2220:	72646853 	rsbvc	r6, r4, #5439488	; 0x530000
    2224:	63726100 	cmnvs	r2, #0
    2228:	6f630068 	svcvs	0x00630068
    222c:	735f6572 	cmpvc	pc, #478150656	; 0x1c800000
    2230:	61747274 	cmnvs	r4, r4, ror r2
    2234:	6c630062 	stclvs	0, cr0, [r3], #-392	; 0xfffffe78
    2238:	696b636f 	stmdbvs	fp!, {r0, r1, r2, r3, r5, r6, r8, r9, sp, lr}^
    223c:	00745f64 	rsbseq	r5, r4, r4, ror #30
    2240:	74635f69 	strbtvc	r5, [r3], #-3945	; 0xf69
    2244:	00656d69 	rsbeq	r6, r5, r9, ror #26
    2248:	5f646f6d 	svcpl	0x00646f6d
    224c:	68637261 	stmdavs	r3!, {r0, r5, r6, r9, ip, sp, lr}^
    2250:	6570735f 	ldrbvs	r7, [r0, #-863]!	; 0x35f
    2254:	69666963 	stmdbvs	r6!, {r0, r1, r5, r6, r8, fp, sp, lr}^
    2258:	77720063 	ldrbvc	r0, [r2, -r3, rrx]!
    225c:	6d65735f 	stclvs	3, cr7, [r5, #-380]!	; 0xfffffe84
    2260:	6f687061 	svcvs	0x00687061
    2264:	6c006572 	cfstr32vs	mvfx6, [r0], {114}	; 0x72
    2268:	5f747369 	svcpl	0x00747369
    226c:	6b636f6c 	blvs	18de024 <tz_ioctl+0x18dddd8>
    2270:	5f716400 	svcpl	0x00716400
    2274:	5f00706f 	svcpl	0x0000706f
    2278:	656e6f7a 	strbvs	r6, [lr, #-3962]!	; 0xf7a
    227c:	73666572 	cmnvc	r6, #478150656	; 0x1c800000
    2280:	765f7300 	ldrbvc	r7, [pc], -r0, lsl #6
    2284:	725f7366 	subsvc	r7, pc, #-1744830463	; 0x98000001
    2288:	6d616e65 	stclvs	14, cr6, [r1, #-404]!	; 0xfffffe6c
    228c:	756d5f65 	strbvc	r5, [sp, #-3941]!	; 0xf65
    2290:	00786574 	rsbseq	r6, r8, r4, ror r5
    2294:	705f6462 	subsvc	r6, pc, r2, ror #8
    2298:	00747261 	rsbseq	r7, r4, r1, ror #4
    229c:	645f6462 	ldrbvs	r6, [pc], #1122	; 22a4 <.debug_str+0x22a4>
    22a0:	006b7369 	rsbeq	r7, fp, r9, ror #6
    22a4:	705f6462 	subsvc	r6, pc, r2, ror #8
    22a8:	5f747261 	svcpl	0x00747261
    22ac:	6e756f63 	cdpvs	15, 7, cr6, cr5, cr3, {3}
    22b0:	6f720074 	svcvs	0x00720074
    22b4:	6d75736b 	ldclvs	3, cr7, [r5, #-428]!	; 0xfffffe54
    22b8:	75726300 	ldrbvc	r6, [r2, #-768]!	; 0x300
    22bc:	7368636e 	cmnvc	r8, #-1207959551	; 0xb8000001
    22c0:	65746174 	ldrbvs	r6, [r4, #-372]!	; 0x174
    22c4:	44495000 	strbmi	r5, [r9]
    22c8:	45505954 	ldrbmi	r5, [r0, #-2388]	; 0x954
    22cc:	4449535f 	strbmi	r5, [r9], #-863	; 0x35f
    22d0:	69726400 	ldmdbvs	r2!, {sl, sp, lr}^
    22d4:	5f726576 	svcpl	0x00726576
    22d8:	76697270 	undefined instruction 0x76697270
    22dc:	00657461 	rsbeq	r7, r5, r1, ror #8
    22e0:	74696177 	strbtvc	r6, [r9], #-375	; 0x177
    22e4:	6575715f 	ldrbvs	r7, [r5, #-351]!	; 0x15f
    22e8:	685f6575 	ldmdavs	pc, {r0, r2, r4, r5, r6, r8, sl, sp, lr}^
    22ec:	5f646165 	svcpl	0x00646165
    22f0:	6f6c0074 	svcvs	0x006c0074
    22f4:	63006b63 	movwvs	r6, #2915	; 0xb63
    22f8:	6b636568 	blvs	18db8a0 <tz_ioctl+0x18db654>
    22fc:	6f75715f 	svcvs	0x0075715f
    2300:	665f6174 	undefined instruction 0x665f6174
    2304:	00656c69 	rsbeq	r6, r5, r9, ror #24
    2308:	706d6f63 	rsbvc	r6, sp, r3, ror #30
    230c:	6574656c 	ldrbvs	r6, [r4, #-1388]!	; 0x56c
    2310:	725f6400 	subsvc	r6, pc, #0
    2314:	6f636274 	svcvs	0x00636274
    2318:	00746e75 	rsbseq	r6, r4, r5, ror lr
    231c:	72745f5f 	rsbsvc	r5, r4, #380	; 0x17c
    2320:	70656361 	rsbvc	r6, r5, r1, ror #6
    2324:	746e696f 	strbtvc	r6, [lr], #-2415	; 0x96f
    2328:	646f6d5f 	strbtvs	r6, [pc], #3423	; 2330 <.debug_str+0x2330>
    232c:	5f656c75 	svcpl	0x00656c75
    2330:	65657266 	strbvs	r7, [r5, #-614]!	; 0x266
    2334:	6f6d7500 	svcvs	0x006d7500
    2338:	5f746e75 	svcpl	0x00746e75
    233c:	69676562 	stmdbvs	r7!, {r1, r5, r6, r8, sl, sp, lr}^
    2340:	6567006e 	strbvs	r0, [r7, #-110]!	; 0x6e
    2344:	65725f74 	ldrbvs	r5, [r2, #-3956]!	; 0xf74
    2348:	76726573 	undefined instruction 0x76726573
    234c:	735f6465 	cmpvc	pc, #1694498816	; 0x65000000
    2350:	65636170 	strbvs	r6, [r3, #-368]!	; 0x170
    2354:	5f737100 	svcpl	0x00737100
    2358:	6d697462 	cfstrdvs	mvd7, [r9, #-392]!	; 0xfffffe78
    235c:	6d696c65 	stclvs	12, cr6, [r9, #-404]!	; 0xfffffe6c
    2360:	69007469 	stmdbvs	r0, {r0, r3, r5, r6, sl, ip, sp, lr}
    2364:	65646f6e 	strbvs	r6, [r4, #-3950]!	; 0xf6e
    2368:	65706f5f 	ldrbvs	r6, [r0, #-3935]!	; 0xf5f
    236c:	69746172 	ldmdbvs	r4!, {r1, r4, r5, r6, r8, sp, lr}^
    2370:	00736e6f 	rsbseq	r6, r3, pc, ror #28
    2374:	5f706667 	svcpl	0x00706667
    2378:	75620074 	strbvc	r0, [r2, #-116]!	; 0x74
    237c:	72656666 	rsbvc	r6, r5, #106954752	; 0x6600000
    2380:	73757300 	cmnvc	r5, #0
    2384:	646e6570 	strbtvs	r6, [lr], #-1392	; 0x570
    2388:	646f6e00 	strbtvs	r6, [pc], #3584	; 2390 <.debug_str+0x2390>
    238c:	6f7a5f65 	svcvs	0x007a5f65
    2390:	0073656e 	rsbseq	r6, r3, lr, ror #10
    2394:	76697264 	strbtvc	r7, [r9], -r4, ror #4
    2398:	615f7265 	cmpvs	pc, r5, ror #4
    239c:	69727474 	ldmdbvs	r2!, {r2, r4, r5, r6, sl, ip, sp, lr}^
    23a0:	65747562 	ldrbvs	r7, [r4, #-1378]!	; 0x562
    23a4:	61657200 	cmnvs	r5, r0, lsl #4
    23a8:	71645f64 	cmnvc	r4, r4, ror #30
    23ac:	006b6c62 	rsbeq	r6, fp, r2, ror #24
    23b0:	705f726e 	subsvc	r7, pc, lr, ror #4
    23b4:	69747261 	ldmdbvs	r4!, {r0, r5, r6, r9, ip, sp, lr}^
    23b8:	6b006c61 	blvs	1d544 <tz_ioctl+0x1d2f8>
    23bc:	6c6c616d 	stfvse	f6, [ip], #-436	; 0xfffffe4c
    23c0:	695f636f 	ldmdbvs	pc, {r0, r1, r2, r3, r5, r6, r8, r9, sp, lr}^
    23c4:	7865646e 	stmdavc	r5!, {r1, r2, r3, r5, r6, sl, sp, lr}^
    23c8:	75727400 	ldrbvc	r7, [r2, #-1024]!	; 0x400
    23cc:	7461636e 	strbtvc	r6, [r1], #-878	; 0x36e
    23d0:	61725f65 	cmnvs	r2, r5, ror #30
    23d4:	0065676e 	rsbeq	r6, r5, lr, ror #14
    23d8:	73616c63 	cmnvc	r1, #25344	; 0x6300
    23dc:	65725f73 	ldrbvs	r5, [r2, #-3955]!	; 0xf73
    23e0:	7361656c 	cmnvc	r1, #452984832	; 0x1b000000
    23e4:	71640065 	cmnvc	r4, r5, rrx
    23e8:	6572665f 	ldrbvs	r6, [r2, #-1631]!	; 0x65f
    23ec:	65670065 	strbvs	r0, [r7, #-101]!	; 0x65
    23f0:	73785f74 	cmnvc	r8, #464	; 0x1d0
    23f4:	65746174 	ldrbvs	r6, [r4, #-372]!	; 0x174
    23f8:	62716400 	rsbsvs	r6, r1, #0
    23fc:	6168625f 	cmnvs	r8, pc, asr r2
    2400:	696c6472 	stmdbvs	ip!, {r1, r4, r5, r6, sl, sp, lr}^
    2404:	0074696d 	rsbseq	r6, r4, sp, ror #18
    2408:	6c5f6c66 	mrrcvs	12, 6, r6, pc, cr6
    240c:	73706f6d 	cmnvc	r0, #436	; 0x1b4
    2410:	6a626f00 	bvs	189e018 <tz_ioctl+0x189ddcc>
    2414:	657a6973 	ldrbvs	r6, [sl, #-2419]!	; 0x973
    2418:	5f656600 	svcpl	0x00656600
    241c:	65736572 	ldrbvs	r6, [r3, #-1394]!	; 0x572
    2420:	64657672 	strbtvs	r7, [r5], #-1650	; 0x672
    2424:	64003436 	strvs	r3, [r0], #-1078	; 0x436
    2428:	695f6271 	ldmdbvs	pc, {r0, r4, r5, r6, r9, sp, lr}^
    242c:	74666f73 	strbtvc	r6, [r6], #-3955	; 0xf73
    2430:	696d696c 	stmdbvs	sp!, {r2, r3, r5, r6, r8, fp, sp, lr}^
    2434:	61720074 	cmnvs	r2, r4, ror r0
    2438:	70735f77 	rsbsvc	r5, r3, r7, ror pc
    243c:	6f6c6e69 	svcvs	0x006c6e69
    2440:	745f6b63 	ldrbvc	r6, [pc], #2915	; 2448 <.debug_str+0x2448>
    2444:	5f747300 	svcpl	0x00747300
    2448:	756c6176 	strbvc	r6, [ip, #-374]!	; 0x176
    244c:	5f690065 	svcpl	0x00690065
    2450:	65747962 	ldrbvs	r7, [r4, #-2402]!	; 0x962
    2454:	65640073 	strbvs	r0, [r4, #-115]!	; 0x73
    2458:	65636976 	strbvs	r6, [r3, #-2422]!	; 0x976
    245c:	7079745f 	rsbsvc	r7, r9, pc, asr r4
    2460:	756e0065 	strbvc	r0, [lr, #-101]!	; 0x65
    2464:	74635f6d 	strbtvc	r5, [r3], #-3949	; 0xf6d
    2468:	0073726f 	rsbseq	r7, r3, pc, ror #4
    246c:	656b5f5f 	strbvs	r5, [fp, #-3935]!	; 0xf5f
    2470:	6c656e72 	stclvs	14, cr6, [r5], #-456	; 0xfffffe38
    2474:	6469675f 	strbtvs	r6, [r9], #-1887	; 0x75f
    2478:	745f3233 	ldrbvc	r3, [pc], #563	; 2480 <.debug_str+0x2480>
    247c:	73657200 	cmnvc	r5, #0
    2480:	6372756f 	cmnvs	r2, #465567744	; 0x1bc00000
    2484:	69735f65 	ldmdbvs	r3!, {r0, r2, r5, r6, r8, r9, sl, fp, ip, lr}^
    2488:	745f657a 	ldrbvc	r6, [pc], #1402	; 2490 <.debug_str+0x2490>
    248c:	70667600 	rsbvc	r7, r6, r0, lsl #12
    2490:	74617473 	strbtvc	r7, [r1], #-1139	; 0x473
    2494:	79730065 	ldmdbvc	r3!, {r0, r2, r5, r6}^
    2498:	6e696c6d 	cdpvs	12, 6, cr6, cr9, cr13, {3}
    249c:	6d6b006b 	stclvs	0, cr0, [fp, #-428]!	; 0xfffffe54
    24a0:	635f6d65 	cmpvs	pc, #6464	; 0x1940
    24a4:	65686361 	strbvs	r6, [r8, #-865]!	; 0x361
    24a8:	64726f5f 	ldrbtvs	r6, [r2], #-3935	; 0xf5f
    24ac:	6f5f7265 	svcvs	0x005f7265
    24b0:	63656a62 	cmnvs	r5, #401408	; 0x62000
    24b4:	64007374 	strvs	r7, [r0], #-884	; 0x374
    24b8:	6d616e5f 	stclvs	14, cr6, [r1, #-380]!	; 0xfffffe84
    24bc:	68730065 	ldmdavs	r3!, {r0, r2, r5, r6}^
    24c0:	616c665f 	cmnvs	ip, pc, asr r6
    24c4:	66007367 	strvs	r7, [r0], -r7, ror #6
    24c8:	5f656572 	svcpl	0x00656572
    24cc:	63617073 	cmnvs	r1, #115	; 0x73
    24d0:	65640065 	strbvs	r0, [r4, #-101]!	; 0x65
    24d4:	6f727473 	svcvs	0x00727473
    24d8:	6e695f79 	mcrvs	15, 3, r5, cr9, cr9, {3}
    24dc:	0065646f 	rsbeq	r6, r5, pc, ror #8
    24e0:	74696e69 	strbtvc	r6, [r9], #-3689	; 0xe69
    24e4:	696c6169 	stmdbvs	ip!, {r0, r3, r5, r6, r8, sp, lr}^
    24e8:	6f00657a 	svcvs	0x0000657a
    24ec:	61726570 	cmnvs	r2, r0, ror r5
    24f0:	6e6f6974 	mcrvs	9, 3, r6, cr15, cr4, {3}
    24f4:	7079745f 	rsbsvc	r7, r9, pc, asr r4
    24f8:	72610065 	rsbvc	r0, r1, #101	; 0x65
    24fc:	61003067 	tstvs	r0, r7, rrx
    2500:	00316772 	eorseq	r6, r1, r2, ror r7
    2504:	32677261 	rsbcc	r7, r7, #268435462	; 0x10000006
    2508:	67726100 	ldrbvs	r6, [r2, -r0, lsl #2]!
    250c:	4e470033 	mcrmi	0, 2, r0, cr7, cr3, {1}
    2510:	20432055 	subcs	r2, r3, r5, asr r0
    2514:	2e342e34 	mrccs	14, 1, r2, cr4, cr4, {1}
    2518:	65720031 	ldrbvs	r0, [r2, #-49]!	; 0x31
    251c:	7361656c 	cmnvc	r1, #452984832	; 0x1b000000
    2520:	65720065 	ldrbvs	r0, [r2, #-101]!	; 0x65
    2524:	696c6461 	stmdbvs	ip!, {r0, r5, r6, sl, sp, lr}^
    2528:	64006b6e 	strvs	r6, [r0], #-2926	; 0xb6e
    252c:	6275735f 	rsbsvs	r7, r5, #2080374785	; 0x7c000001
    2530:	73726964 	cmnvc	r2, #1638400	; 0x190000
    2534:	5f616900 	svcpl	0x00616900
    2538:	6d697461 	cfstrdvs	mvd7, [r9, #-388]!	; 0xfffffe7c
    253c:	5f640065 	svcpl	0x00640065
    2540:	5f6b6c62 	svcpl	0x006b6c62
    2544:	74666f73 	strbtvc	r6, [r6], #-3955	; 0xf73
    2548:	696d696c 	stmdbvs	sp!, {r2, r3, r5, r6, r8, fp, sp, lr}^
    254c:	6d760074 	ldclvs	0, cr0, [r6, #-464]!	; 0xfffffe30
    2550:	6572615f 	ldrbvs	r6, [r2, #-351]!	; 0x15f
    2554:	74735f61 	ldrbtvc	r5, [r3], #-3937	; 0xf61
    2558:	74637572 	strbtvc	r7, [r3], #-1394	; 0x572
    255c:	76656400 	strbtvc	r6, [r5], -r0, lsl #8
    2560:	5f656369 	svcpl	0x00656369
    2564:	5f616d64 	svcpl	0x00616d64
    2568:	61726170 	cmnvs	r2, r0, ror r1
    256c:	6574656d 	ldrbvs	r6, [r4, #-1389]!	; 0x56d
    2570:	6b007372 	blvs	1f340 <tz_ioctl+0x1f0f4>
    2574:	5f6d656d 	svcpl	0x006d656d
    2578:	68636163 	stmdavs	r3!, {r0, r1, r5, r6, r8, sp, lr}^
    257c:	6c615f65 	stclvs	15, cr5, [r1], #-404	; 0xfffffe6c
    2580:	5f636f6c 	svcpl	0x00636f6c
    2584:	72746f6e 	rsbsvc	r6, r4, #440	; 0x1b8
    2588:	00656361 	rsbeq	r6, r5, r1, ror #6
    258c:	74696e69 	strbtvc	r6, [r9], #-3689	; 0xe69
    2590:	7865745f 	stmdavc	r5!, {r0, r1, r2, r3, r4, r6, sl, ip, sp, lr}^
    2594:	69735f74 	ldmdbvs	r3!, {r2, r4, r5, r6, r8, r9, sl, fp, ip, lr}^
    2598:	5400657a 	strpl	r6, [r0], #-1402	; 0x57a
    259c:	505f4545 	subspl	r4, pc, r5, asr #10
    25a0:	4d415241 	sfmmi	f5, 2, [r1, #-260]	; (stclmi 2, cr5, [r1, #-260])	; 0xfffffefc
    25a4:	5059545f 	subspl	r5, r9, pc, asr r4
    25a8:	454d5f45 	strbmi	r5, [sp, #-3909]	; 0xf45
    25ac:	4645524d 	strbmi	r5, [r5], -sp, asr #4
    25b0:	4f4e495f 	svcmi	0x004e495f
    25b4:	71005455 	tstvc	r0, r5, asr r4
    25b8:	6d665f66 	stclvs	15, cr5, [r6, #-408]!	; 0xfffffe68
    25bc:	64695f74 	strbtvs	r5, [r9], #-3956	; 0xf74
    25c0:	74657300 	strbtvc	r7, [r5], #-768	; 0x300
    25c4:	69007075 	stmdbvs	r0, {r0, r2, r4, r5, r6, ip, sp, lr}
    25c8:	6665645f 	undefined instruction 0x6665645f
    25cc:	746c7561 	strbtvc	r7, [ip], #-1377	; 0x561
    25d0:	6c63615f 	stfvse	f6, [r3], #-380	; 0xfffffe84
    25d4:	76656400 	strbtvc	r6, [r5], -r0, lsl #8
    25d8:	5f6d705f 	svcpl	0x006d705f
    25dc:	0073706f 	rsbseq	r7, r3, pc, rrx
    25e0:	7a697373 	bvc	1a5f3b4 <tz_ioctl+0x1a5f168>
    25e4:	00745f65 	rsbseq	r5, r4, r5, ror #30
    25e8:	735f7164 	cmpvc	pc, #25
    25ec:	72610062 	rsbvc	r0, r1, #98	; 0x62
    25f0:	73007367 	movwvc	r7, #871	; 0x367
    25f4:	695f6365 	ldmdbvs	pc, {r0, r2, r5, r6, r8, r9, sp, lr}^
    25f8:	5f74696e 	svcpl	0x0074696e
    25fc:	74786574 	ldrbtvc	r6, [r8], #-1396	; 0x574
    2600:	6f687300 	svcvs	0x00687300
    2604:	74735f77 	ldrbtvc	r5, [r3], #-3959	; 0xf77
    2608:	00737461 	rsbseq	r7, r3, r1, ror #8
    260c:	61705f64 	cmnvs	r0, r4, ror #30
    2610:	6e696464 	cdpvs	4, 6, cr6, cr9, cr4, {3}
    2614:	63003267 	movwvs	r3, #615	; 0x267
    2618:	656d6974 	strbvs	r6, [sp, #-2420]!	; 0x974
    261c:	705f6400 	subsvc	r6, pc, r0, lsl #8
    2620:	69646461 	stmdbvs	r4!, {r0, r5, r6, sl, sp, lr}^
    2624:	0034676e 	eorseq	r6, r4, lr, ror #14
    2628:	74697277 	strbtvc	r7, [r9], #-631	; 0x277
    262c:	69665f65 	stmdbvs	r6!, {r0, r2, r5, r6, r8, r9, sl, fp, ip, lr}^
    2630:	695f656c 	ldmdbvs	pc, {r2, r3, r5, r6, r8, sl, sp, lr}^
    2634:	006f666e 	rsbeq	r6, pc, lr, ror #12
    2638:	5f646f6d 	svcpl	0x00646f6d
    263c:	656d616e 	strbvs	r6, [sp, #-366]!	; 0x16e
    2640:	73696c00 	cmnvc	r9, #0
    2644:	65685f74 	strbvs	r5, [r8, #-3956]!	; 0xf74
    2648:	74006461 	strvc	r6, [r0], #-1121	; 0x461
    264c:	4d656d69 	stclmi	13, cr6, [r5, #-420]!	; 0xfffffe5c
    2650:	69006469 	stmdbvs	r0, {r0, r3, r5, r6, sl, sp, lr}
    2654:	6c74636f 	ldclvs	3, cr6, [r4], #-444	; 0xfffffe44
    2658:	6c696600 	stclvs	6, cr6, [r9]
    265c:	61725f65 	cmnvs	r2, r5, ror #30
    2660:	6174735f 	cmnvs	r4, pc, asr r3
    2664:	66006574 	undefined instruction 0x66006574
    2668:	7461705f 	strbtvc	r7, [r1], #-95	; 0x5f
    266c:	61640068 	cmnvs	r4, r8, rrx
    2670:	73006174 	movwvc	r6, #372	; 0x174
    2674:	6b636f6c 	blvs	18de42c <tz_ioctl+0x18de1e0>
    2678:	6f696100 	svcvs	0x00696100
    267c:	7973665f 	ldmdbvc	r3!, {r0, r1, r2, r3, r4, r6, r9, sl, sp, lr}^
    2680:	7400636e 	strvc	r6, [r0], #-878	; 0x36e
    2684:	4c656d69 	stclmi	13, cr6, [r5], #-420	; 0xfffffe5c
    2688:	5400776f 	strpl	r7, [r0], #-1903	; 0x76f
    268c:	4d435f5a 	stclmi	15, cr5, [r3, #-360]	; 0xfffffe98
    2690:	41445f44 	cmpmi	r4, r4, asr #30
    2694:	72004154 	andvc	r4, r0, #21
    2698:	725f7761 	subsvc	r7, pc, #25427968	; 0x1840000
    269c:	636f6c77 	cmnvs	pc, #30464	; 0x7700
    26a0:	00745f6b 	rsbseq	r5, r4, fp, ror #30
    26a4:	72657375 	rsbvc	r7, r5, #-738197503	; 0xd4000001
    26a8:	7261705f 	rsbvc	r7, r1, #95	; 0x5f
    26ac:	00736d61 	rsbseq	r6, r3, r1, ror #26
    26b0:	5f6c7067 	svcpl	0x006c7067
    26b4:	73637263 	cmnvc	r3, #805306374	; 0x30000006
    26b8:	695f7300 	ldmdbvs	pc, {r8, r9, ip, sp, lr}^
    26bc:	6174736e 	cmnvs	r4, lr, ror #6
    26c0:	7365636e 	cmnvc	r5, #-1207959551	; 0xb8000001
    26c4:	6c696600 	stclvs	6, cr6, [r9]
    26c8:	6f6c5f65 	svcvs	0x006c5f65
    26cc:	69006b63 	stmdbvs	r0, {r0, r1, r5, r6, r8, r9, fp, sp, lr}
    26d0:	61705f73 	cmnvs	r0, r3, ror pc
    26d4:	61697472 	smcvs	38722	; 0x9742
    26d8:	5f796c6c 	svcpl	0x00796c6c
    26dc:	6f747075 	svcvs	0x00747075
    26e0:	65746164 	ldrbvs	r6, [r4, #-356]!	; 0x164
    26e4:	625f6400 	subsvs	r6, pc, #0
    26e8:	6e726177 	mrcvs	1, 3, r6, cr2, cr7, {3}
    26ec:	73660073 	cmnvc	r6, #115	; 0x73
    26f0:	00636e79 	rsbeq	r6, r3, r9, ror lr
    26f4:	6c6c6f70 	stclvs	15, cr6, [ip], #-448	; 0xfffffe40
    26f8:	646f6e00 	strbtvs	r6, [pc], #3584	; 2700 <.debug_str+0x2700>
    26fc:	72705f65 	rsbsvc	r5, r0, #404	; 0x194
    2700:	6e657365 	cdpvs	3, 6, cr7, cr5, cr5, {3}
    2704:	61705f74 	cmnvs	r0, r4, ror pc
    2708:	00736567 	rsbseq	r6, r3, r7, ror #10
    270c:	746f6f62 	strbtvc	r6, [pc], #3938	; 2714 <.debug_str+0x2714>
    2710:	5f6d656d 	svcpl	0x006d656d
    2714:	61746164 	cmnvs	r4, r4, ror #2
    2718:	73706600 	cmnvc	r0, #0
    271c:	65746174 	ldrbvs	r6, [r4, #-372]!	; 0x174
    2720:	5f737100 	svcpl	0x00737100
    2724:	6f757175 	svcvs	0x00757175
    2728:	73006174 	movwvc	r6, #372	; 0x174
    272c:	79745f68 	ldmdbvc	r4!, {r3, r5, r6, r8, r9, sl, fp, ip, lr}^
    2730:	44006570 	strmi	r6, [r0], #-1392	; 0x570
    2734:	4f5f4d50 	svcmi	0x005f4d50
    2738:	77004646 	strvc	r4, [r0, -r6, asr #12]
    273c:	65746972 	ldrbvs	r6, [r4, #-2418]!	; 0x972
    2740:	6765625f 	undefined instruction 0x6765625f
    2744:	66006e69 	strvs	r6, [r0], -r9, ror #28
    2748:	72625f6c 	rsbvc	r5, r2, #432	; 0x1b0
    274c:	006b6165 	rsbeq	r6, fp, r5, ror #2
    2750:	665f7366 	ldrbvs	r7, [pc], -r6, ror #6
    2754:	7367616c 	cmnvc	r7, #27
    2758:	66656c00 	strbtvs	r6, [r5], -r0, lsl #24
    275c:	65720074 	ldrbvs	r0, [r2, #-116]!	; 0x74
    2760:	7361656c 	cmnvc	r1, #452984832	; 0x1b000000
    2764:	73725f65 	cmnvc	r2, #404	; 0x194
    2768:	65720076 	ldrbvs	r0, [r2, #-118]!	; 0x76
    276c:	746e6563 	strbtvc	r6, [lr], #-1379	; 0x563
    2770:	746f725f 	strbtvc	r7, [pc], #607	; 2778 <.debug_str+0x2778>
    2774:	64657461 	strbtvs	r7, [r5], #-1121	; 0x461
    2778:	726f6300 	rsbvc	r6, pc, #0
    277c:	69735f65 	ldmdbvs	r3!, {r0, r2, r5, r6, r8, r9, sl, fp, ip, lr}^
    2780:	5400657a 	strpl	r6, [r0], #-1402	; 0x57a
    2784:	5f434545 	svcpl	0x00434545
    2788:	44495555 	strbmi	r5, [r9], #-1365	; 0x555
    278c:	73657200 	cmnvc	r5, #0
    2790:	6372756f 	cmnvs	r2, #465567744	; 0x1bc00000
    2794:	73660065 	cmnvc	r6, #101	; 0x65
    2798:	7369645f 	cmnvc	r9, #1593835520	; 0x5f000000
    279c:	75715f6b 	ldrbvc	r5, [r1, #-3947]!	; 0xf6b
    27a0:	0061746f 	rsbeq	r7, r1, pc, ror #8
    27a4:	33666c45 	cmncc	r6, #17664	; 0x4500
    27a8:	664f5f32 	undefined instruction 0x664f5f32
    27ac:	66670066 	strbtvs	r0, [r7], -r6, rrx
    27b0:	616c6670 	smcvs	50784	; 0xc660
    27b4:	76007367 	strvc	r7, [r0], -r7, ror #6
    27b8:	6f6d7366 	svcvs	0x006d7366
    27bc:	00746e75 	rsbseq	r6, r4, r5, ror lr
    27c0:	656b5f5f 	strbvs	r5, [fp, #-3935]!	; 0xf5f
    27c4:	6c656e72 	stclvs	14, cr6, [r5], #-456	; 0xfffffe38
    27c8:	6d69745f 	cfstrdvs	mvd7, [r9, #-380]!	; 0xfffffe84
    27cc:	00745f65 	rsbseq	r5, r4, r5, ror #30
    27d0:	65766575 	ldrbvs	r6, [r6, #-1397]!	; 0x575
    27d4:	7500746e 	strvc	r7, [r0, #-1134]	; 0x46e
    27d8:	5f646573 	svcpl	0x00646573
    27dc:	69007063 	stmdbvs	r0, {r0, r1, r5, r6, ip, sp, lr}
    27e0:	69765f73 	ldmdbvs	r6!, {r0, r1, r4, r5, r6, r8, r9, sl, fp, ip, lr}^
    27e4:	6c626973 	stclvs	9, cr6, [r2], #-460	; 0xfffffe34
    27e8:	64620065 	strbtvs	r0, [r2], #-101	; 0x65
    27ec:	7665645f 	undefined instruction 0x7665645f
    27f0:	69716400 	ldmdbvs	r1!, {sl, sp, lr}^
    27f4:	726f665f 	rsbvc	r6, pc, #99614720	; 0x5f00000
    27f8:	0074616d 	rsbseq	r6, r4, sp, ror #2
    27fc:	73665f64 	cmnvc	r6, #400	; 0x190
    2800:	61746164 	cmnvs	r4, r4, ror #2
    2804:	6d5f6600 	ldclvs	6, cr6, [pc]
    2808:	69707061 	ldmdbvs	r0!, {r0, r5, r6, ip, sp, lr}^
    280c:	6900676e 	stmdbvs	r0, {r1, r2, r3, r5, r6, r8, r9, sl, sp, lr}
    2810:	646f6d5f 	strbtvs	r6, [pc], #3423	; 2818 <.debug_str+0x2818>
    2814:	79740065 	ldmdbvc	r4!, {r0, r2, r5, r6}^
    2818:	73006570 	movwvc	r6, #1392	; 0x570
    281c:	73667379 	cmnvc	r6, #-469762047	; 0xe4000001
    2820:	7269645f 	rsbvc	r6, r9, #1593835520	; 0x5f000000
    2824:	00746e65 	rsbseq	r6, r4, r5, ror #28
    2828:	655f6966 	ldrbvs	r6, [pc, #-2406]	; 1eca <.debug_str+0x1eca>
    282c:	6e657478 	mcrvs	4, 3, r7, cr5, cr8, {3}
    2830:	735f7374 	cmpvc	pc, #-805306367	; 0xd0000001
    2834:	74726174 	ldrbtvc	r6, [r2], #-372	; 0x174
    2838:	61727400 	cmnvs	r2, r0, lsl #8
    283c:	655f6563 	ldrbvs	r6, [pc, #-1379]	; 22e1 <.debug_str+0x22e1>
    2840:	746e6576 	strbtvc	r6, [lr], #-1398	; 0x576
    2844:	6f6d0073 	svcvs	0x006d0073
    2848:	745f6564 	ldrbvc	r6, [pc], #1380	; 2850 <.debug_str+0x2850>
    284c:	73666e00 	cmnvc	r6, #0
    2850:	636f6c5f 	cmnvs	pc, #24320	; 0x5f00
    2854:	6e695f6b 	cdpvs	15, 6, cr5, cr9, cr11, {3}
    2858:	69006f66 	stmdbvs	r0, {r1, r2, r5, r6, r8, r9, sl, fp, sp, lr}
    285c:	70616d5f 	rsbvc	r6, r1, pc, asr sp
    2860:	676e6970 	undefined instruction 0x676e6970
    2864:	5f767400 	svcpl	0x00767400
    2868:	00636573 	rsbeq	r6, r3, r3, ror r5
    286c:	6b72616d 	blvs	1c9ae28 <tz_ioctl+0x1c9abdc>
    2870:	7269645f 	rsbvc	r6, r9, #1593835520	; 0x5f000000
    2874:	6b007974 	blvs	20e4c <tz_ioctl+0x20c00>
    2878:	5f6c6c69 	svcpl	0x006c6c69
    287c:	5f006273 	svcpl	0x00006273
    2880:	72656b5f 	rsbvc	r6, r5, #97280	; 0x17c00
    2884:	5f6c656e 	svcpl	0x006c656e
    2888:	636f6c63 	cmnvs	pc, #25344	; 0x6300
    288c:	5f64696b 	svcpl	0x0064696b
    2890:	6f6c0074 	svcvs	0x006c0074
    2894:	6c20676e 	stcvs	7, cr6, [r0], #-440	; 0xfffffe48
    2898:	20676e6f 	rsbcs	r6, r7, pc, ror #28
    289c:	69736e75 	ldmdbvs	r3!, {r0, r2, r4, r5, r6, r9, sl, fp, sp, lr}^
    28a0:	64656e67 	strbtvs	r6, [r5], #-3687	; 0xe67
    28a4:	746e6920 	strbtvc	r6, [lr], #-2336	; 0x920
    28a8:	766e6500 	strbtvc	r6, [lr], -r0, lsl #10
    28ac:	61700070 	cmnvs	r0, r0, ror r0
    28b0:	746e6572 	strbtvc	r6, [lr], #-1394	; 0x572
    28b4:	66666f00 	strbtvs	r6, [r6], -r0, lsl #30
    28b8:	00746573 	rsbseq	r6, r4, r3, ror r5
    28bc:	7364666e 	cmnvc	r4, #115343360	; 0x6e00000
    28c0:	725f6e00 	subsvc	r6, pc, #0
    28c4:	72006665 	andvc	r6, r0, #105906176	; 0x6500000
    28c8:	70646165 	rsbvc	r6, r4, r5, ror #2
    28cc:	00656761 	rsbeq	r6, r5, r1, ror #14
    28d0:	64646175 	strbtvs	r6, [r4], #-373	; 0x175
    28d4:	75003272 	strvc	r3, [r0, #-626]	; 0x272
    28d8:	6e657665 	cdpvs	6, 6, cr7, cr5, cr5, {3}
    28dc:	75735f74 	ldrbvc	r5, [r3, #-3956]!	; 0xf74
    28e0:	65727070 	ldrbvs	r7, [r2, #-112]!	; 0x70
    28e4:	75007373 	strvc	r7, [r0, #-883]	; 0x373
    28e8:	745f6469 	ldrbvc	r6, [pc], #1129	; 28f0 <.debug_str+0x28f0>
    28ec:	65727000 	ldrbvs	r7, [r2]!
    28f0:	746e6573 	strbtvc	r6, [lr], #-1395	; 0x573
    28f4:	6761705f 	undefined instruction 0x6761705f
    28f8:	6b007365 	blvs	1f694 <tz_ioctl+0x1f448>
    28fc:	61726170 	cmnvs	r2, r0, ror r1
    2900:	74735f6d 	ldrbtvc	r5, [r3], #-3949	; 0xf6d
    2904:	676e6972 	undefined instruction 0x676e6972
    2908:	635f6600 	cmpvs	pc, #0
    290c:	746e756f 	strbtvc	r7, [lr], #-1391	; 0x56f
    2910:	635f6400 	cmpvs	pc, #0
    2914:	646c6968 	strbtvs	r6, [ip], #-2408	; 0x968
    2918:	75716400 	ldrbvc	r6, [r1, #-1024]!	; 0x400
    291c:	7400746f 	strvc	r7, [r0], #-1135	; 0x46f
    2920:	746e6961 	strbtvc	r6, [lr], #-2401	; 0x961
    2924:	5f690073 	svcpl	0x00690073
    2928:	6d69746d 	cfstrdvs	mvd7, [r9, #-436]!	; 0xfffffe4c
    292c:	64620065 	strbtvs	r0, [r2], #-101	; 0x65
    2930:	6c6f685f 	stclvs	8, cr6, [pc], #-380	; 0xfffffe84
    2934:	00726564 	rsbseq	r6, r2, r4, ror #10
    2938:	6c6c6163 	stfvse	f6, [ip], #-396	; 0xfffffe74
    293c:	7469735f 	strbtvc	r7, [r9], #-863	; 0x35f
    2940:	69660065 	stmdbvs	r6!, {r0, r2, r5, r6}^
    2944:	6c5f656c 	cfldr64vs	mvdx6, [pc], {108}	; 0x6c
    2948:	5f6b636f 	svcpl	0x006b636f
    294c:	7265706f 	rsbvc	r7, r5, #111	; 0x6f
    2950:	6f697461 	svcvs	0x00697461
    2954:	7000736e 	andvc	r7, r0, lr, ror #6
    2958:	6e5f6469 	cdpvs	4, 5, cr6, cr15, cr9, {3}
    295c:	73656d61 	cmnvc	r5, #6208	; 0x1840
    2960:	65636170 	strbvs	r6, [r3, #-368]!	; 0x170
    2964:	626f6b00 	rsbvs	r6, pc, #0
    2968:	65755f6a 	ldrbvs	r5, [r5, #-3946]!	; 0xf6a
    296c:	746e6576 	strbtvc	r6, [lr], #-1398	; 0x576
    2970:	766e655f 	undefined instruction 0x766e655f
    2974:	745f7300 	ldrbvc	r7, [pc], #768	; 297c <.debug_str+0x297c>
    2978:	5f656d69 	svcpl	0x00656d69
    297c:	6e617267 	cdpvs	2, 6, cr7, cr1, cr7, {3}
    2980:	73756200 	cmnvc	r5, #0
    2984:	7474615f 	ldrbtvc	r6, [r4], #-351	; 0x15f
    2988:	45007372 	strmi	r7, [r0, #-882]	; 0x372
    298c:	3233666c 	eorscc	r6, r3, #113246208	; 0x6c00000
    2990:	6c61485f 	stclvs	8, cr4, [r1], #-380	; 0xfffffe84
    2994:	64620066 	strbtvs	r0, [r2], #-102	; 0x66
    2998:	6f6e695f 	svcvs	0x006e695f
    299c:	6d006564 	cfstr32vs	mvfx6, [r0, #-400]	; 0xfffffe70
    29a0:	00786176 	rsbseq	r6, r8, r6, ror r1
    29a4:	6d656966 	stclvs	9, cr6, [r5, #-408]!	; 0xfffffe68
    29a8:	655f7061 	ldrbvs	r7, [pc, #-97]	; 294f <.debug_str+0x294f>
    29ac:	6e657478 	mcrvs	4, 3, r7, cr5, cr8, {3}
    29b0:	6e695f74 	mcrvs	15, 3, r5, cr9, cr4, {3}
    29b4:	73006f66 	movwvc	r6, #3942	; 0xf66
    29b8:	65656e5f 	strbvs	r6, [r5, #-3679]!	; 0xe5f
    29bc:	79735f64 	ldmdbvc	r3!, {r2, r5, r6, r8, r9, sl, fp, ip, lr}^
    29c0:	6400636e 	strvs	r6, [r0], #-878	; 0x36e
    29c4:	6274725f 	rsbsvs	r7, r4, #-268435451	; 0xf0000005
    29c8:	7261685f 	rsbvc	r6, r1, #6225920	; 0x5f0000
    29cc:	6d696c64 	stclvs	12, cr6, [r9, #-400]!	; 0xfffffe70
    29d0:	69007469 	stmdbvs	r0, {r0, r3, r5, r6, sl, ip, sp, lr}
    29d4:	5f74696e 	svcpl	0x0074696e
    29d8:	657a6973 	ldrbvs	r6, [sl, #-2419]!	; 0x973
    29dc:	695f6400 	ldmdbvs	pc, {sl, sp, lr}^
    29e0:	656d616e 	strbvs	r6, [sp, #-366]!	; 0x16e
    29e4:	665f6400 	ldrbvs	r6, [pc], -r0, lsl #8
    29e8:	7367616c 	cmnvc	r7, #27
    29ec:	63657300 	cmnvs	r5, #0
    29f0:	7665645f 	undefined instruction 0x7665645f
    29f4:	74696e69 	strbtvc	r6, [r9], #-3689	; 0xe69
    29f8:	7865745f 	stmdavc	r5!, {r0, r1, r2, r3, r4, r6, sl, ip, sp, lr}^
    29fc:	5f640074 	svcpl	0x00640074
    2a00:	6d697469 	cfstrdvs	mvd7, [r9, #-420]!	; 0xfffffe5c
    2a04:	54007265 	strpl	r7, [r0], #-613	; 0x265
    2a08:	505f4545 	subspl	r4, pc, r5, asr #10
    2a0c:	4d415241 	sfmmi	f5, 2, [r1, #-260]	; (stclmi 2, cr5, [r1, #-260])	; 0xfffffefc
    2a10:	5059545f 	subspl	r5, r9, pc, asr r4
    2a14:	4f4e5f45 	svcmi	0x004e5f45
    2a18:	6900454e 	stmdbvs	r0, {r1, r2, r3, r6, r8, sl, lr}
    2a1c:	7361685f 	cmnvc	r1, #6225920	; 0x5f0000
    2a20:	6f630068 	svcvs	0x00630068
    2a24:	735f6572 	cmpvc	pc, #478150656	; 0x1c800000
    2a28:	61746d79 	cmnvs	r4, r9, ror sp
    2a2c:	616d0062 	cmnvs	sp, r2, rrx
    2a30:	6e656c78 	mcrvs	12, 3, r6, cr5, cr8, {3}
    2a34:	6f746100 	svcvs	0x00746100
    2a38:	5f63696d 	svcpl	0x0063696d
    2a3c:	676e6f6c 	strbvs	r6, [lr, -ip, ror #30]!
    2a40:	6900745f 	stmdbvs	r0, {r0, r1, r2, r3, r4, r6, sl, ip, sp, lr}
    2a44:	6f6d5f61 	svcvs	0x006d5f61
    2a48:	63006564 	movwvs	r6, #1380	; 0x564
    2a4c:	5f79706f 	svcpl	0x0079706f
    2a50:	6d6f7266 	sfmvs	f7, 2, [pc, #-408]!	; (stclvs 2, cr7, [pc, #-408]!)	; 0xfffffe68
    2a54:	6573755f 	ldrbvs	r7, [r3, #-1375]!	; 0x55f
    2a58:	6f700072 	svcvs	0x00700072
    2a5c:	64666c6c 	strbtvs	r6, [r6], #-3180	; 0xc6c
    2a60:	5f706600 	svcpl	0x00706600
    2a64:	74617473 	strbtvc	r7, [r1], #-1139	; 0x473
    2a68:	61690065 	cmnvs	r9, r5, rrx
    2a6c:	6974635f 	ldmdbvs	r4!, {r0, r1, r2, r3, r4, r6, r8, r9, sp, lr}^
    2a70:	6400656d 	strvs	r6, [r0], #-1389	; 0x56d
    2a74:	625f6271 	subsvs	r6, pc, #268435463	; 0x10000007
    2a78:	656d6974 	strbvs	r6, [sp, #-2420]!	; 0x974
    2a7c:	655f6600 	ldrbvs	r6, [pc, #-1536]	; 2484 <.debug_str+0x2484>
    2a80:	696c5f70 	stmdbvs	ip!, {r4, r5, r6, r8, r9, sl, fp, ip, lr}^
    2a84:	00736b6e 	rsbseq	r6, r3, lr, ror #22
    2a88:	72705f69 	rsbsvc	r5, r0, #420	; 0x1a4
    2a8c:	74617669 	strbtvc	r7, [r1], #-1641	; 0x669
    2a90:	6c660065 	stclvs	0, cr0, [r6], #-404	; 0xfffffe6c
    2a94:	78656e5f 	stmdavc	r5!, {r0, r1, r2, r3, r4, r6, r9, sl, fp, sp, lr}^
    2a98:	65640074 	strbvs	r0, [r4, #-116]!	; 0x74
    2a9c:	756e5f76 	strbvc	r5, [lr, #-3958]!	; 0xf76
    2aa0:	5f73006d 	svcpl	0x0073006d
    2aa4:	74746178 	ldrbtvc	r6, [r4], #-376	; 0x178
    2aa8:	63610072 	cmnvs	r1, #114	; 0x72
    2aac:	72697571 	rsbvc	r7, r9, #473956352	; 0x1c400000
    2ab0:	71645f65 	cmnvc	r4, r5, ror #30
    2ab4:	00746f75 	rsbseq	r6, r4, r5, ror pc
    2ab8:	5f6c7067 	svcpl	0x006c7067
    2abc:	75747566 	ldrbvc	r7, [r4, #-1382]!	; 0x566
    2ac0:	635f6572 	cmpvs	pc, #478150656	; 0x1c800000
    2ac4:	00736372 	rsbseq	r6, r3, r2, ror r3
    2ac8:	656d6974 	strbvs	r6, [sp, #-2420]!	; 0x974
    2acc:	6174735f 	cmnvs	r4, pc, asr r3
    2ad0:	00737574 	rsbseq	r7, r3, r4, ror r5
    2ad4:	5f6e6163 	svcpl	0x006e6163
    2ad8:	656b6177 	strbvs	r6, [fp, #-375]!	; 0x177
    2adc:	74007075 	strvc	r7, [r0], #-117	; 0x75
    2ae0:	6d635f7a 	stclvs	15, cr5, [r3, #-488]!	; 0xfffffe18
    2ae4:	61645f64 	cmnvs	r4, r4, ror #30
    2ae8:	6b006174 	blvs	1b0c0 <tz_ioctl+0x1ae74>
    2aec:	65707974 	ldrbvs	r7, [r0, #-2420]!	; 0x974
    2af0:	70667600 	rsbvc	r7, r6, r0, lsl #12
    2af4:	6174735f 	cmnvs	r4, pc, asr r3
    2af8:	69006574 	stmdbvs	r0, {r2, r4, r5, r6, r8, sl, sp, lr}
    2afc:	7069705f 	rsbvc	r7, r9, pc, asr r0
    2b00:	72740065 	rsbsvc	r0, r4, #101	; 0x65
    2b04:	5f656361 	svcpl	0x00656361
    2b08:	6c616d6b 	stclvs	13, cr6, [r1], #-428	; 0xfffffe54
    2b0c:	00636f6c 	rsbeq	r6, r3, ip, ror #30
    2b10:	735f7066 	cmpvc	pc, #102	; 0x66
    2b14:	5f74666f 	svcpl	0x0074666f
    2b18:	75727473 	ldrbvc	r7, [r2, #-1139]!	; 0x473
    2b1c:	71007463 	tstvc	r0, r3, ror #8
    2b20:	61746f75 	cmnvs	r4, r5, ror pc
    2b24:	006e6f5f 	rsbeq	r6, lr, pc, asr pc
    2b28:	5f697164 	svcpl	0x00697164
    2b2c:	67616c66 	strbvs	r6, [r1, -r6, ror #24]!
    2b30:	74730073 	ldrbtvc	r0, [r3], #-115	; 0x73
    2b34:	0065726f 	rsbeq	r7, r5, pc, ror #4
    2b38:	5f766564 	svcpl	0x00766564
    2b3c:	65720074 	ldrbvs	r0, [r2, #-116]!	; 0x74
    2b40:	61706461 	cmnvs	r0, r1, ror #8
    2b44:	00736567 	rsbseq	r6, r3, r7, ror #10
    2b48:	65676170 	strbvs	r6, [r7, #-368]!	; 0x170
    2b4c:	63735f73 	cmnvs	r3, #460	; 0x1cc
    2b50:	656e6e61 	strbvs	r6, [lr, #-3681]!	; 0xe61
    2b54:	5f730064 	svcpl	0x00730064
    2b58:	6278616d 	rsbsvs	r6, r8, #1073741851	; 0x4000001b
    2b5c:	73657479 	cmnvc	r5, #2030043136	; 0x79000000
    2b60:	69727700 	ldmdbvs	r2!, {r8, r9, sl, ip, sp, lr}^
    2b64:	61706574 	cmnvs	r0, r4, ror r5
    2b68:	00736567 	rsbseq	r6, r3, r7, ror #10
    2b6c:	665f7164 	ldrbvs	r7, [pc], -r4, ror #2
    2b70:	7367616c 	cmnvc	r7, #27
    2b74:	6e6f6c00 	cdpvs	12, 6, cr6, cr15, cr0, {0}
    2b78:	6f6c2067 	svcvs	0x006c2067
    2b7c:	6920676e 	stmdbvs	r0!, {r1, r2, r3, r5, r6, r8, r9, sl, sp, lr}
    2b80:	6300746e 	movwvs	r7, #1134	; 0x46e
    2b84:	696d6d6f 	stmdbvs	sp!, {r0, r1, r2, r3, r5, r6, r8, sl, fp, sp, lr}^
    2b88:	71645f74 	smcvc	17908	; 0x45f4
    2b8c:	006b6c62 	rsbeq	r6, fp, r2, ror #24
    2b90:	746e6564 	strbtvc	r6, [lr], #-1380	; 0x564
    2b94:	6f5f7972 	svcvs	0x005f7972
    2b98:	61726570 	cmnvs	r2, r0, ror r5
    2b9c:	6e6f6974 	mcrvs	9, 3, r6, cr15, cr4, {3}
    2ba0:	65670073 	strbvs	r0, [r7, #-115]!	; 0x73
    2ba4:	7369646e 	cmnvc	r9, #1845493760	; 0x6e000000
    2ba8:	5f5f006b 	svcpl	0x005f006b
    2bac:	63617274 	cmnvs	r1, #1073741831	; 0x40000007
    2bb0:	696f7065 	stmdbvs	pc!, {r0, r2, r5, r6, ip, sp, lr}^
    2bb4:	6d5f746e 	cfldrdvs	mvd7, [pc, #-440]	; 0xfffffe48
    2bb8:	6c75646f 	cfldrdvs	mvd6, [r5], #-444	; 0xfffffe44
    2bbc:	65725f65 	ldrbvs	r5, [r2, #-3941]!	; 0xf65
    2bc0:	73657571 	cmnvc	r5, #473956352	; 0x1c400000
    2bc4:	766d0074 	undefined instruction 0x766d0074
    2bc8:	6e007864 	cdpvs	8, 0, cr7, cr0, cr4, {3}
    2bcc:	675f6d75 	undefined instruction 0x675f6d75
    2bd0:	735f6c70 	cmpvc	pc, #28672	; 0x7000
    2bd4:	00736d79 	rsbseq	r6, r3, r9, ror sp
    2bd8:	66666f6c 	strbtvs	r6, [r6], -ip, ror #30
    2bdc:	7000745f 	andvc	r7, r0, pc, asr r4
    2be0:	6d617261 	sfmvs	f7, 2, [r1, #-388]!	; (stclvs 2, cr7, [r1, #-388]!)	; 0xfffffe7c
    2be4:	7465675f 	strbtvc	r6, [r5], #-1887	; 0x75f
    2be8:	006e665f 	rsbeq	r6, lr, pc, asr r6
    2bec:	5f747570 	svcpl	0x00747570
    2bf0:	6b6e696c 	blvs	1b9d1a8 <tz_ioctl+0x1b9cf5c>
    2bf4:	5f696600 	svcpl	0x00696600
    2bf8:	65747865 	ldrbvs	r7, [r4, #-2149]!	; 0x865
    2bfc:	5f73746e 	svcpl	0x0073746e
    2c00:	0078616d 	rsbseq	r6, r8, sp, ror #2
    2c04:	6e5f7674 	mrcvs	6, 2, r7, cr15, cr4, {3}
    2c08:	00636573 	rsbeq	r6, r3, r3, ror r5
    2c0c:	72766564 	rsbsvc	r6, r6, #419430400	; 0x19000000
    2c10:	685f7365 	ldmdavs	pc, {r0, r2, r5, r6, r8, r9, ip, sp, lr}^
    2c14:	00646165 	rsbeq	r6, r4, r5, ror #2
    2c18:	6d69746d 	cfstrdvs	mvd7, [r9, #-436]!	; 0xfffffe4c
    2c1c:	6f700065 	svcvs	0x00700065
    2c20:	5f786973 	svcpl	0x00786973
    2c24:	006c6361 	rsbeq	r6, ip, r1, ror #6
    2c28:	625f6c66 	subsvs	r6, pc, #26112	; 0x6600
    2c2c:	6b636f6c 	blvs	18de9e4 <tz_ioctl+0x18de798>
    2c30:	635f6600 	cmpvs	pc, #0
    2c34:	00646572 	rsbeq	r6, r4, r2, ror r5
    2c38:	6d6f682f 	stclvs	8, cr6, [pc, #-188]!	; 0xffffff44
    2c3c:	756c2f65 	strbvc	r2, [ip, #-3941]!	; 0xf65
    2c40:	6e696a6f 	vnmulvs.f32	s13, s18, s31
    2c44:	68732f67 	ldmdavs	r3!, {r0, r1, r2, r5, r6, r8, r9, sl, fp, sp}^
    2c48:	2f657261 	svccs	0x00657261
    2c4c:	6a6f7270 	bvs	1bdf614 <tz_ioctl+0x1bdf3c8>
    2c50:	73746365 	cmnvc	r4, #-1811939327	; 0x94000001
    2c54:	3130322f 	teqcc	r0, pc, lsr #4
    2c58:	31302d34 	teqcc	r0, r4, lsr sp
    2c5c:	2f36312d 	svccs	0x0036312d
    2c60:	73757274 	cmnvc	r5, #1073741831	; 0x40000007
    2c64:	6e6f7a74 	mcrvs	10, 3, r7, cr15, cr4, {3}
    2c68:	7a742f65 	bvc	1d0ea04 <tz_ioctl+0x1d0e7b8>
    2c6c:	6972645f 	ldmdbvs	r2!, {r0, r1, r2, r3, r4, r6, sl, sp, lr}^
    2c70:	2f726576 	svccs	0x00726576
    2c74:	645f7a74 	ldrbvs	r7, [pc], #2676	; 2c7c <.debug_str+0x2c7c>
    2c78:	65766972 	ldrbvs	r6, [r6, #-2418]!	; 0x972
    2c7c:	00632e72 	rsbeq	r2, r3, r2, ror lr
    2c80:	65657266 	strbvs	r7, [r5, #-614]!	; 0x266
    2c84:	7400657a 	strvc	r6, [r0], #-1402	; 0x57a
    2c88:	61765f70 	cmnvs	r6, r0, ror pc
    2c8c:	0065756c 	rsbeq	r7, r5, ip, ror #10
    2c90:	69746361 	ldmdbvs	r4!, {r0, r5, r6, r8, r9, sp, lr}^
    2c94:	79746976 	ldmdbvc	r4!, {r1, r2, r4, r5, r6, r8, fp, sp, lr}^
    2c98:	62716400 	rsbsvs	r6, r1, #0
    2c9c:	6f73625f 	svcvs	0x0073625f
    2ca0:	696c7466 	stmdbvs	ip!, {r1, r2, r5, r6, sl, ip, sp, lr}^
    2ca4:	0074696d 	rsbseq	r6, r4, sp, ror #18
    2ca8:	55444f4d 	strbpl	r4, [r4, #-3917]	; 0xf4d
    2cac:	535f454c 	cmppl	pc, #318767104	; 0x13000000
    2cb0:	45544154 	ldrbmi	r4, [r4, #-340]	; 0x154
    2cb4:	4d4f435f 	stclmi	3, cr4, [pc, #-380]	; 0xfffffe84
    2cb8:	00474e49 	subeq	r4, r7, r9, asr #28
    2cbc:	6c665f69 	stclvs	15, cr5, [r6], #-420	; 0xfffffe5c
    2cc0:	00736761 	rsbseq	r6, r3, r1, ror #14
    2cc4:	6e766564 	cdpvs	5, 7, cr6, cr6, cr4, {3}
    2cc8:	0065646f 	rsbeq	r6, r5, pc, ror #8
    2ccc:	6b736174 	blvs	1cdb2a4 <tz_ioctl+0x1cdb058>
    2cd0:	72657000 	rsbvc	r7, r5, #0
    2cd4:	00757063 	rsbseq	r7, r5, r3, rrx
    2cd8:	705f6c66 	subsvc	r6, pc, r6, ror #24
    2cdc:	73006469 	movwvc	r6, #1129	; 0x469
    2ce0:	666f5f68 	strbtvs	r5, [pc], -r8, ror #30
    2ce4:	74657366 	strbtvc	r7, [r5], #-870	; 0x366
    2ce8:	726f6300 	rsbvc	r6, pc, #0
    2cec:	65745f65 	ldrbvs	r5, [r4, #-3941]!	; 0xf65
    2cf0:	735f7478 	cmpvc	pc, #2013265920	; 0x78000000
    2cf4:	00657a69 	rsbeq	r7, r5, r9, ror #20
    2cf8:	75646f6d 	strbvc	r6, [r4, #-3949]!	; 0xf6d
    2cfc:	695f656c 	ldmdbvs	pc, {r2, r3, r5, r6, r8, sl, sp, lr}^
    2d00:	0074696e 	rsbseq	r6, r4, lr, ror #18
    2d04:	695f7164 	ldmdbvs	pc, {r2, r5, r6, r8, ip, sp, lr}^
    2d08:	6573756e 	ldrbvs	r7, [r3, #-1390]!	; 0x56e
    2d0c:	72657000 	rsbvc	r7, r5, #0
    2d10:	7063006d 	rsbvc	r0, r3, sp, rrx
    2d14:	6f645f75 	svcvs	0x00645f75
    2d18:	6e69616d 	powvsez	f6, f1, #5.0
    2d1c:	69727000 	ldmdbvs	r2!, {ip, sp, lr}^
    2d20:	65746176 	ldrbvs	r6, [r4, #-374]!	; 0x176
    2d24:	7461645f 	strbtvc	r6, [r1], #-1119	; 0x45f
    2d28:	71640061 	cmnvc	r4, r1, rrx
    2d2c:	6d665f69 	stclvs	15, cr5, [r6, #-420]!	; 0xfffffe5c
    2d30:	64695f74 	strbtvs	r5, [r9], #-3956	; 0xf74
    2d34:	695f6400 	ldmdbvs	pc, {sl, sp, lr}^
    2d38:	00747570 	rsbseq	r7, r4, r0, ror r5
    2d3c:	625f6c66 	subsvs	r6, pc, #26112	; 0x6600
    2d40:	6b616572 	blvs	185c310 <tz_ioctl+0x185c0c4>
    2d44:	6d69745f 	cfstrdvs	mvd7, [r9, #-380]!	; 0xfffffe84
    2d48:	5f660065 	svcpl	0x00660065
    2d4c:	6b636f6c 	blvs	18deb04 <tz_ioctl+0x18de8b8>
    2d50:	62716400 	rsbsvs	r6, r1, #0
    2d54:	7275635f 	rsbsvc	r6, r5, #2080374785	; 0x7c000001
    2d58:	63617073 	cmnvs	r1, #115	; 0x73
    2d5c:	5f5f0065 	svcpl	0x005f0065
    2d60:	74696177 	strbtvc	r6, [r9], #-375	; 0x177
    2d64:	6575715f 	ldrbvs	r7, [r5, #-351]!	; 0x15f
    2d68:	685f6575 	ldmdavs	pc, {r0, r2, r4, r5, r6, r8, sl, sp, lr}^
    2d6c:	00646165 	rsbeq	r6, r4, r5, ror #2
    2d70:	74726964 	ldrbtvc	r6, [r2], #-2404	; 0x964
    2d74:	6e695f79 	mcrvs	15, 3, r5, cr9, cr9, {3}
    2d78:	0065646f 	rsbeq	r6, r5, pc, ror #8
    2d7c:	5f616d64 	svcpl	0x00616d64
    2d80:	6b73616d 	blvs	1cdb33c <tz_ioctl+0x1cdb0f0>
    2d84:	62716400 	rsbsvs	r6, r1, #0
    2d88:	7673725f 	undefined instruction 0x7673725f
    2d8c:	63617073 	cmnvs	r1, #115	; 0x73
    2d90:	696d0065 	stmdbvs	sp!, {r0, r2, r5, r6}^
    2d94:	74617267 	strbtvc	r7, [r1], #-615	; 0x267
    2d98:	67617065 	strbvs	r7, [r1, -r5, rrx]!
    2d9c:	68730065 	ldmdavs	r3!, {r0, r2, r5, r6}^
    2da0:	746e655f 	strbtvc	r6, [lr], #-1375	; 0x55f
    2da4:	657a6973 	ldrbvs	r6, [sl, #-2419]!	; 0x973
    2da8:	5f716400 	svcpl	0x00716400
    2dac:	0066666f 	rsbeq	r6, r6, pc, ror #12
    2db0:	6d6d5f69 	stclvs	15, cr5, [sp, #-420]!	; 0xfffffe5c
    2db4:	6c5f7061 	mrrcvs	0, 6, r7, pc, cr1
    2db8:	006b636f 	rsbeq	r6, fp, pc, ror #6
    2dbc:	63715f73 	cmnvs	r1, #460	; 0x1cc
    2dc0:	7500706f 	strvc	r7, [r0, #-111]	; 0x6f
    2dc4:	6e69776e 	cdpvs	7, 6, cr7, cr9, cr14, {3}
    2dc8:	6e695f64 	cdpvs	15, 6, cr5, cr9, cr4, {3}
    2dcc:	6b007469 	blvs	1ff78 <tz_ioctl+0x1fd2c>
    2dd0:	5f6d656d 	svcpl	0x006d656d
    2dd4:	68636163 	stmdavs	r3!, {r0, r1, r5, r6, r8, sp, lr}^
    2dd8:	70635f65 	rsbvc	r5, r3, r5, ror #30
    2ddc:	65720075 	ldrbvs	r0, [r2, #-117]!	; 0x75
    2de0:	72617473 	rsbvc	r7, r1, #1929379840	; 0x73000000
    2de4:	6c625f74 	stclvs	15, cr5, [r2], #-464	; 0xfffffe30
    2de8:	006b636f 	rsbeq	r6, fp, pc, ror #6
    2dec:	675f7371 	undefined instruction 0x675f7371
    2df0:	746f7571 	strbtvc	r7, [pc], #1393	; 2df8 <.debug_str+0x2df8>
    2df4:	5f730061 	svcpl	0x00730061
    2df8:	695f7366 	ldmdbvs	pc, {r1, r2, r5, r6, r8, r9, ip, sp, lr}^
    2dfc:	006f666e 	rsbeq	r6, pc, lr, ror #12
    2e00:	3473666e 	ldrbtcc	r6, [r3], #-1646	; 0x66e
    2e04:	636f6c5f 	cmnvs	pc, #24320	; 0x5f00
    2e08:	6e695f6b 	cdpvs	15, 6, cr5, cr9, cr11, {3}
    2e0c:	64006f66 	strvs	r6, [r0], #-3942	; 0xf66
    2e10:	6274725f 	rsbsvs	r7, r4, #-268435451	; 0xf0000005
    2e14:	6e726177 	mrcvs	1, 3, r6, cr2, cr7, {3}
    2e18:	6f6d0073 	svcvs	0x006d0073
    2e1c:	656c7564 	strbvs	r7, [ip, #-1380]!	; 0x564
    2e20:	7261705f 	rsbvc	r7, r1, #95	; 0x5f
    2e24:	615f6d61 	cmpvs	pc, r1, ror #26
    2e28:	73727474 	cmnvc	r2, #1946157056	; 0x74000000
    2e2c:	76656400 	strbtvc	r6, [r5], -r0, lsl #8
    2e30:	5f656369 	svcpl	0x00656369
    2e34:	76697264 	strbtvc	r7, [r9], -r4, ror #4
    2e38:	66007265 	strvs	r7, [r0], -r5, ror #4
    2e3c:	706f5f6c 	rsbvc	r5, pc, ip, ror #30
    2e40:	65670073 	strbvs	r0, [r7, #-115]!	; 0x73
    2e44:	71785f74 	cmnvc	r8, r4, ror pc
    2e48:	61746f75 	cmnvs	r4, r5, ror pc
    2e4c:	6f757100 	svcvs	0x00757100
    2e50:	665f6174 	undefined instruction 0x665f6174
    2e54:	616d726f 	cmnvs	sp, pc, ror #4
    2e58:	79745f74 	ldmdbvc	r4!, {r2, r4, r5, r6, r8, r9, sl, fp, ip, lr}^
    2e5c:	73006570 	movwvc	r6, #1392	; 0x570
    2e60:	6e65645f 	mcrvs	4, 3, r6, cr5, cr15, {2}
    2e64:	5f797274 	svcpl	0x00797274
    2e68:	0075726c 	rsbseq	r7, r5, ip, ror #4
    2e6c:	6c6c6f66 	stclvs	15, cr6, [ip], #-408	; 0xfffffe68
    2e70:	6c5f776f 	mrrcvs	7, 6, r7, pc, cr15
    2e74:	006b6e69 	rsbeq	r6, fp, r9, ror #28
    2e78:	656e6f7a 	strbvs	r6, [lr, #-3962]!	; 0xf7a
    2e7c:	7864695f 	stmdavc	r4!, {r0, r1, r2, r3, r4, r6, r8, fp, sp, lr}^
    2e80:	72657600 	rsbvc	r7, r5, #0
    2e84:	6e6f6973 	mcrvs	9, 3, r6, cr15, cr3, {3}
    2e88:	61747300 	cmnvs	r4, r0, lsl #6
    2e8c:	615f6574 	cmpvs	pc, r4, ror r5
    2e90:	755f6464 	ldrbvc	r6, [pc, #-1124]	; 2a34 <.debug_str+0x2a34>
    2e94:	6e657665 	cdpvs	6, 6, cr7, cr5, cr5, {3}
    2e98:	65735f74 	ldrbvs	r5, [r3, #-3956]!	; 0xf74
    2e9c:	6400746e 	strvs	r7, [r0], #-1134	; 0x46e
    2ea0:	6b6c625f 	blvs	1b1b824 <tz_ioctl+0x1b1b5d8>
    2ea4:	7261685f 	rsbvc	r6, r1, #6225920	; 0x5f0000
    2ea8:	6d696c64 	stclvs	12, cr6, [r9, #-400]!	; 0xfffffe70
    2eac:	69007469 	stmdbvs	r0, {r0, r3, r5, r6, sl, ip, sp, lr}
    2eb0:	6564635f 	strbvs	r6, [r4, #-863]!	; 0x35f
    2eb4:	6d6b0076 	stclvs	0, cr0, [fp, #-472]!	; 0xfffffe28
    2eb8:	6f6c6c61 	svcvs	0x006c6c61
    2ebc:	50440063 	subpl	r0, r4, r3, rrx
    2ec0:	52505f4d 	subspl	r5, r0, #308	; 0x134
    2ec4:	52415045 	subpl	r5, r1, #69	; 0x45
    2ec8:	00474e49 	subeq	r4, r7, r9, asr #28
    2ecc:	69736e75 	ldmdbvs	r3!, {r0, r2, r4, r5, r6, r9, sl, fp, sp, lr}^
    2ed0:	64656e67 	strbtvs	r6, [r5], #-3687	; 0xe67
    2ed4:	746e6920 	strbtvc	r6, [lr], #-2336	; 0x920
    2ed8:	65726600 	ldrbvs	r6, [r2, #-1536]!	; 0x600
    2edc:	72615f65 	rsbvc	r5, r1, #404	; 0x194
    2ee0:	6d006165 	stfvss	f6, [r0, #-404]	; 0xfffffe6c
    2ee4:	6c75646f 	cfldrdvs	mvd6, [r5], #-444	; 0xfffffe44
    2ee8:	74615f65 	strbtvc	r5, [r1], #-3941	; 0xf65
    2eec:	62697274 	rsbvs	r7, r9, #1073741831	; 0x40000007
    2ef0:	00657475 	rsbeq	r7, r5, r5, ror r4
    2ef4:	6e617073 	mcrvs	0, 3, r7, cr1, cr3, {3}
    2ef8:	5f64656e 	svcpl	0x0064656e
    2efc:	65676170 	strbvs	r6, [r7, #-368]!	; 0x170
    2f00:	65720073 	ldrbvs	r0, [r2, #-115]!	; 0x73
    2f04:	65766f6d 	ldrbvs	r6, [r6, #-3949]!	; 0xf6d
    2f08:	74746178 	ldrbtvc	r6, [r4], #-376	; 0x178
    2f0c:	65720072 	ldrbvs	r0, [r2, #-114]!	; 0x72
    2f10:	69646461 	stmdbvs	r4!, {r0, r5, r6, sl, sp, lr}^
    2f14:	65730072 	ldrbvs	r0, [r3, #-114]!	; 0x72
    2f18:	71645f74 	smcvc	17908	; 0x45f4
    2f1c:	006b6c62 	rsbeq	r6, fp, r2, ror #24
    2f20:	69745f64 	ldmdbvs	r4!, {r2, r5, r6, r8, r9, sl, fp, ip, lr}^
    2f24:	6200656d 	andvs	r6, r0, #457179136	; 0x1b400000
    2f28:	65737469 	ldrbvs	r7, [r3, #-1129]!	; 0x469
    2f2c:	6e750074 	mrcvs	0, 3, r0, cr5, cr4, {3}
    2f30:	646e6977 	strbtvs	r6, [lr], #-2423	; 0x977
    2f34:	7665645f 	undefined instruction 0x7665645f
    2f38:	74696e69 	strbtvc	r6, [r9], #-3689	; 0xe69
    2f3c:	615f6400 	cmpvs	pc, r0, lsl #8
    2f40:	7361696c 	cmnvc	r1, #1769472	; 0x1b0000
    2f44:	6b5f6e00 	blvs	17de74c <tz_ioctl+0x17de500>
    2f48:	7473696c 	ldrbtvc	r6, [r3], #-2412	; 0x96c
    2f4c:	64617200 	strbtvs	r7, [r1], #-512	; 0x200
    2f50:	745f7869 	ldrbvc	r7, [pc], #2153	; 2f58 <.debug_str+0x2f58>
    2f54:	5f656572 	svcpl	0x00656572
    2f58:	746f6f72 	strbtvc	r6, [pc], #3954	; 2f60 <.debug_str+0x2f60>
    2f5c:	616c6300 	cmnvs	ip, r0, lsl #6
    2f60:	615f7373 	cmpvs	pc, r3, ror r3
    2f64:	73727474 	cmnvc	r2, #1946157056	; 0x74000000
    2f68:	6f6b6d00 	svcvs	0x006b6d00
    2f6c:	62006a62 	andvs	r6, r0, #401408	; 0x62000
    2f70:	6f685f64 	svcvs	0x00685f64
    2f74:	7265646c 	rsbvc	r6, r5, #1811939328	; 0x6c000000
    2f78:	68730073 	ldmdavs	r3!, {r0, r1, r4, r5, r6}^
    2f7c:	2074726f 	rsbscs	r7, r4, pc, ror #4
    2f80:	00746e69 	rsbseq	r6, r4, r9, ror #28
    2f84:	6c696863 	stclvs	8, cr6, [r9], #-396	; 0xfffffe74
    2f88:	736b0064 	cmnvc	fp, #100	; 0x64
    2f8c:	66746174 	undefined instruction 0x66746174
    2f90:	61700073 	cmnvs	r0, r3, ror r0
    2f94:	6c626567 	cfstr64vs	mvdx6, [r2], #-412	; 0xfffffe64
    2f98:	5f6b636f 	svcpl	0x006b636f
    2f9c:	67616c66 	strbvs	r6, [r1, -r6, ror #24]!
    2fa0:	6c660073 	stclvs	0, cr0, [r6], #-460	; 0xfffffe34
    2fa4:	7079745f 	rsbsvc	r7, r9, pc, asr r4
    2fa8:	504f0065 	subpl	r0, pc, r5, rrx
    2fac:	535f4e45 	cmppl	pc, #1104	; 0x450
    2fb0:	49535345 	ldmdbmi	r3, {r0, r2, r6, r8, r9, ip, lr}^
    2fb4:	445f4e4f 	ldrbmi	r4, [pc], #3663	; 2fbc <.debug_str+0x2fbc>
    2fb8:	00415441 	subeq	r5, r1, r1, asr #8
    2fbc:	6e697066 	cdpvs	0, 6, cr7, cr9, cr6, {3}
    2fc0:	70007473 	andvc	r7, r0, r3, ror r4
    2fc4:	00766572 	rsbseq	r6, r6, r2, ror r5
    2fc8:	735f726e 	cmpvc	pc, #-536870906	; 0xe0000006
    2fcc:	64657661 	strbtvs	r7, [r5], #-1633	; 0x661
    2fd0:	6163735f 	cmnvs	r3, pc, asr r3
    2fd4:	736b006e 	cmnvc	fp, #110	; 0x6e
    2fd8:	64706177 	ldrbtvs	r6, [r0], #-375	; 0x177
    2fdc:	6961775f 	stmdbvs	r1!, {r0, r1, r2, r3, r4, r6, r8, r9, sl, ip, sp, lr}^
    2fe0:	6d6d0074 	stclvs	0, cr0, [sp, #-464]!	; 0xfffffe30
    2fe4:	74007061 	strvc	r7, [r0], #-97	; 0x61
    2fe8:	5f656572 	svcpl	0x00656572
    2fec:	6b636f6c 	blvs	18deda4 <tz_ioctl+0x18deb58>
    2ff0:	6f757100 	svcvs	0x00757100
    2ff4:	6f5f6174 	svcvs	0x005f6174
    2ff8:	66006666 	strvs	r6, [r0], -r6, ror #12
    2ffc:	6f6c6c61 	svcvs	0x006c6c61
    3000:	65746163 	ldrbvs	r6, [r4, #-355]!	; 0x163
    3004:	5f646200 	svcpl	0x00646200
    3008:	6574756d 	ldrbvs	r7, [r4, #-1389]!	; 0x56d
    300c:	5f730078 	svcpl	0x00730078
    3010:	6967616d 	stmdbvs	r7!, {r0, r2, r3, r5, r6, r8, sp, lr}^
    3014:	5f690063 	svcpl	0x00690063
    3018:	66006273 	undefined instruction 0x66006273
    301c:	74735f6c 	ldrbtvc	r5, [r3], #-3948	; 0xf6c
    3020:	00747261 	rsbseq	r7, r4, r1, ror #4
    3024:	5f5f5f5f 	svcpl	0x005f5f5f
    3028:	5f5f5f5f 	svcpl	0x005f5f5f
    302c:	0031705f 	eorseq	r7, r1, pc, asr r0
    3030:	5f746567 	svcpl	0x00746567
    3034:	5f706978 	svcpl	0x00706978
    3038:	006d656d 	rsbeq	r6, sp, sp, ror #10
    303c:	64625f69 	strbtvs	r5, [r2], #-3945	; 0xf69
    3040:	66007665 	strvs	r7, [r0], -r5, ror #12
    3044:	7367616c 	cmnvc	r7, #27
    3048:	646d7200 	strbtvs	r7, [sp], #-512	; 0x200
    304c:	70007269 	andvc	r7, r0, r9, ror #4
    3050:	61706572 	cmnvs	r0, r2, ror r5
    3054:	5f006572 	svcpl	0x00006572
    3058:	6172745f 	cmnvs	r2, pc, asr r4
    305c:	6f706563 	svcvs	0x00706563
    3060:	5f746e69 	svcpl	0x00746e69
    3064:	6d656d6b 	stclvs	13, cr6, [r5, #-428]!	; 0xfffffe54
    3068:	6361635f 	cmnvs	r1, #2080374785	; 0x7c000001
    306c:	615f6568 	cmpvs	pc, r8, ror #10
    3070:	636f6c6c 	cmnvs	pc, #27648	; 0x6c00
    3074:	444f4d00 	strbmi	r4, [pc], #3328	; 307c <.debug_str+0x307c>
    3078:	5f454c55 	svcpl	0x00454c55
    307c:	54415453 	strbpl	r5, [r1], #-1107	; 0x453
    3080:	494c5f45 	stmdbmi	ip, {r0, r2, r6, r8, r9, sl, fp, ip, lr}^
    3084:	5f004556 	svcpl	0x00004556
    3088:	6172745f 	cmnvs	r2, pc, asr r4
    308c:	6f706563 	svcvs	0x00706563
    3090:	5f746e69 	svcpl	0x00746e69
    3094:	705f6d6d 	subsvc	r6, pc, sp, ror #26
    3098:	5f656761 	svcpl	0x00656761
    309c:	6f6c6c61 	svcvs	0x006c6c61
    30a0:	69730063 	ldmdbvs	r3!, {r0, r1, r5, r6}^
    30a4:	745f657a 	ldrbvc	r6, [pc], #1402	; 30ac <.debug_str+0x30ac>
    30a8:	63657300 	cmnvs	r5, #0
    30ac:	6e6f6974 	mcrvs	9, 3, r6, cr15, cr4, {3}
    30b0:	6d656d5f 	stclvs	13, cr6, [r5, #-380]!	; 0xfffffe84
    30b4:	70616d5f 	rsbvc	r6, r1, pc, asr sp
    30b8:	61707300 	cmnvs	r0, r0, lsl #6
    30bc:	64656e6e 	strbtvs	r6, [r5], #-3694	; 0xe6e
    30c0:	6761705f 	undefined instruction 0x6761705f
    30c4:	6f007365 	svcvs	0x00007365
    30c8:	72656e77 	rsbvc	r6, r5, #1904	; 0x770
    30cc:	5f6d7600 	svcpl	0x006d7600
    30d0:	74617473 	strbtvc	r7, [r1], #-1139	; 0x473
    30d4:	72657000 	rsbvc	r7, r5, #0
    30d8:	7570635f 	ldrbvc	r6, [r0, #-863]!	; 0x35f
    30dc:	6761705f 	undefined instruction 0x6761705f
    30e0:	5f007365 	svcpl	0x00007365
    30e4:	6172745f 	cmnvs	r2, pc, asr r4
    30e8:	6f706563 	svcvs	0x00706563
    30ec:	5f746e69 	svcpl	0x00746e69
    30f0:	705f6d6d 	subsvc	r6, pc, sp, ror #26
    30f4:	5f656761 	svcpl	0x00656761
    30f8:	6f6c6c61 	svcvs	0x006c6c61
    30fc:	78655f63 	stmdavc	r5!, {r0, r1, r5, r6, r8, r9, sl, fp, ip, lr}^
    3100:	61726674 	cmnvs	r2, r4, ror r6
    3104:	756e0067 	strbvc	r0, [lr, #-103]!	; 0x67
    3108:	72745f6d 	rsbsvc	r5, r4, #436	; 0x1b4
    310c:	5f656361 	svcpl	0x00656361
    3110:	6e657665 	cdpvs	6, 6, cr7, cr5, cr5, {3}
    3114:	7a007374 	bvc	1feec <tz_ioctl+0x1fca0>
    3118:	00656e6f 	rsbeq	r6, r5, pc, ror #28
    311c:	55444f4d 	strbpl	r4, [r4, #-3917]	; 0xf4d
    3120:	535f454c 	cmppl	pc, #318767104	; 0x13000000
    3124:	45544154 	ldrbmi	r4, [r4, #-340]	; 0x154
    3128:	494f475f 	stmdbmi	pc, {r0, r1, r2, r3, r4, r6, r8, r9, sl, lr}^
    312c:	6c00474e 	stcvs	7, cr4, [r0], {78}	; 0x4e
    3130:	5f747369 	svcpl	0x00747369
    3134:	64616568 	strbtvs	r6, [r1], #-1384	; 0x568
    3138:	6d797300 	ldclvs	3, cr7, [r9]
    313c:	00626174 	rsbeq	r6, r2, r4, ror r1
    3140:	76637273 	undefined instruction 0x76637273
    3144:	69737265 	ldmdbvs	r3!, {r0, r2, r5, r6, r9, ip, sp, lr}^
    3148:	5f006e6f 	svcpl	0x00006e6f
    314c:	3631755f 	undefined instruction 0x3631755f
    3150:	70666700 	rsbvc	r6, r6, r0, lsl #14
    3154:	6c6c615f 	stfvse	f6, [ip], #-380	; 0xfffffe84
    3158:	6465776f 	strbtvs	r7, [r5], #-1903	; 0x76f
    315c:	73616d5f 	cmnvc	r1, #6080	; 0x17c0
    3160:	7973006b 	ldmdbvc	r3!, {r0, r1, r3, r5, r6}^
    3164:	5f736673 	svcpl	0x00736673
    3168:	0073706f 	rsbseq	r7, r3, pc, rrx
    316c:	63746162 	cmnvs	r4, #-2147483624	; 0x80000018
    3170:	69740068 	ldmdbvs	r4!, {r3, r5, r6}^
    3174:	735f656d 	cmpvc	pc, #457179136	; 0x1b400000
    3178:	75746174 	ldrbvc	r6, [r4, #-372]!	; 0x174
    317c:	7a5f0073 	bvc	17c3350 <tz_ioctl+0x17c3104>
    3180:	72656e6f 	rsbvc	r6, r5, #1776	; 0x6f0
    3184:	00736665 	rsbseq	r6, r3, r5, ror #12
    3188:	735f6873 	cmpvc	pc, #7536640	; 0x730000
    318c:	00657a69 	rsbeq	r7, r5, r9, ror #20
    3190:	746f6f62 	strbtvc	r6, [pc], #3938	; 3198 <.debug_str+0x3198>
    3194:	5f6d656d 	svcpl	0x006d656d
    3198:	61746164 	cmnvs	r4, r4, ror #2
    319c:	6c706700 	ldclvs	7, cr6, [r0]
    31a0:	7475665f 	ldrbtvc	r6, [r5], #-1631	; 0x65f
    31a4:	5f657275 	svcpl	0x00657275
    31a8:	73637263 	cmnvc	r3, #805306374	; 0x30000006
    31ac:	63657300 	cmnvs	r5, #0
    31b0:	696e695f 	stmdbvs	lr!, {r0, r1, r2, r3, r4, r6, r8, fp, sp, lr}^
    31b4:	65745f74 	ldrbvs	r5, [r4, #-3956]!	; 0xf74
    31b8:	73007478 	movwvc	r7, #1144	; 0x478
    31bc:	65746174 	ldrbvs	r6, [r4, #-372]!	; 0x174
    31c0:	776e7500 	strbvc	r7, [lr, -r0, lsl #10]!
    31c4:	6365735f 	cmnvs	r5, #2080374785	; 0x7c000001
    31c8:	696e695f 	stmdbvs	lr!, {r0, r1, r2, r3, r4, r6, r8, fp, sp, lr}^
    31cc:	6f6d0074 	svcvs	0x006d0074
    31d0:	666e6964 	strbtvs	r6, [lr], -r4, ror #18
    31d4:	74615f6f 	strbtvc	r5, [r1], #-3951	; 0xf6f
    31d8:	00737274 	rsbseq	r7, r3, r4, ror r2
    31dc:	5f757063 	svcpl	0x00757063
    31e0:	5f746962 	svcpl	0x00746962
    31e4:	6d746962 	ldclvs	9, cr6, [r4, #-392]!	; 0xfffffe78
    31e8:	65007061 	strvs	r7, [r0, #-97]	; 0x61
    31ec:	736d656c 	cmnvc	sp, #452984832	; 0x1b000000
    31f0:	00657a69 	rsbeq	r7, r5, r9, ror #20
    31f4:	65676170 	strbvs	r6, [r7, #-368]!	; 0x170
    31f8:	6f72675f 	svcvs	0x0072675f
    31fc:	625f7075 	subsvs	r7, pc, #117	; 0x75
    3200:	6f6d5f79 	svcvs	0x006d5f79
    3204:	696c6962 	stmdbvs	ip!, {r1, r5, r6, r8, fp, sp, lr}^
    3208:	645f7974 	ldrbvs	r7, [pc], #2420	; 3210 <.debug_str+0x3210>
    320c:	62617369 	rsbvs	r7, r1, #-1543503871	; 0xa4000001
    3210:	0064656c 	rsbeq	r6, r4, ip, ror #10
    3214:	656e6f7a 	strbvs	r6, [lr, #-3962]!	; 0xf7a
    3218:	00666572 	rsbeq	r6, r6, r2, ror r5
    321c:	665f6873 	undefined instruction 0x665f6873
    3220:	7367616c 	cmnvc	r7, #27
    3224:	666c4500 	strbtvs	r4, [ip], -r0, lsl #10
    3228:	575f3233 	smmlarpl	pc, r3, r2, r3
    322c:	0064726f 	rsbeq	r7, r4, pc, ror #4
    3230:	65657266 	strbvs	r7, [r5, #-614]!	; 0x266
    3234:	6572615f 	ldrbvs	r6, [r2, #-351]!	; 0x15f
    3238:	5f5f0061 	svcpl	0x005f0061
    323c:	63617274 	cmnvs	r1, #1073741831	; 0x40000007
    3240:	696f7065 	stmdbvs	pc!, {r0, r2, r5, r6, ip, sp, lr}^
    3244:	6d5f746e 	cfldrdvs	mvd7, [pc, #-440]	; 0xfffffe48
    3248:	61705f6d 	cmnvs	r0, sp, ror #30
    324c:	615f6567 	cmpvs	pc, r7, ror #10
    3250:	636f6c6c 	cmnvs	pc, #27648	; 0x6c00
    3254:	6e6f7a5f 	mcrvs	10, 3, r7, cr15, cr15, {2}
    3258:	6f6c5f65 	svcvs	0x006c5f65
    325c:	64656b63 	strbtvs	r6, [r5], #-2915	; 0xb63
    3260:	69737300 	ldmdbvs	r3!, {r8, r9, ip, sp, lr}^
    3264:	745f657a 	ldrbvc	r6, [pc], #1402	; 326c <.debug_str+0x326c>
    3268:	726f6300 	rsbvc	r6, pc, #0
    326c:	79735f65 	ldmdbvc	r3!, {r0, r2, r5, r6, r8, r9, sl, fp, ip, lr}^
    3270:	6261746d 	rsbvs	r7, r1, #1828716544	; 0x6d000000
    3274:	755f5f00 	ldrbvc	r5, [pc, #-3840]	; 237c <.debug_str+0x237c>
    3278:	6b003233 	blvs	fb4c <tz_ioctl+0xf900>
    327c:	70617773 	rsbvc	r7, r1, r3, ror r7
    3280:	6e650064 	cdpvs	0, 6, cr0, cr5, cr4, {3}
    3284:	695f7076 	ldmdbvs	pc, {r1, r2, r4, r5, r6, ip, sp, lr}^
    3288:	5f007864 	svcpl	0x00007864
    328c:	72656b5f 	rsbvc	r6, r5, #97280	; 0x17c00
    3290:	5f6c656e 	svcpl	0x006c656e
    3294:	65646f6d 	strbvs	r6, [r4, #-3949]!	; 0xf6d
    3298:	7500745f 	strvc	r7, [r0, #-1119]	; 0x45f
    329c:	6e69776e 	cdpvs	7, 6, cr7, cr9, cr14, {3}
    32a0:	6e695f64 	cdpvs	15, 6, cr5, cr9, cr4, {3}
    32a4:	45007469 	strmi	r7, [r0, #-1129]	; 0x469
    32a8:	3233666c 	eorscc	r6, r3, #113246208	; 0x6c00000
    32ac:	6d79535f 	ldclvs	3, cr5, [r9, #-380]!	; 0xfffffe84
    32b0:	61747300 	cmnvs	r4, r0, lsl #6
    32b4:	695f6574 	ldmdbvs	pc, {r2, r4, r5, r6, r8, sl, sp, lr}^
    32b8:	79735f6e 	ldmdbvc	r3!, {r1, r2, r3, r5, r6, r8, r9, sl, fp, ip, lr}^
    32bc:	00736673 	rsbseq	r6, r3, r3, ror r6
    32c0:	776f6873 	undefined instruction 0x776f6873
    32c4:	6e696d00 	cdpvs	13, 6, cr6, cr9, cr0, {0}
    32c8:	7261705f 	rsbvc	r7, r1, #95	; 0x5f
    32cc:	6c616974 	stclvs	9, cr6, [r1], #-464	; 0xfffffe30
    32d0:	5f687300 	svcpl	0x00687300
    32d4:	6b6e696c 	blvs	1b9d88c <tz_ioctl+0x1b9d640>
    32d8:	63786500 	cmnvs	r8, #0
    32dc:	69747065 	ldmdbvs	r4!, {r0, r2, r5, r6, ip, sp, lr}^
    32e0:	745f6e6f 	ldrbvc	r6, [pc], #3695	; 32e8 <.debug_str+0x32e8>
    32e4:	656c6261 	strbvs	r6, [ip, #-609]!	; 0x261
    32e8:	746e655f 	strbtvc	r6, [lr], #-1375	; 0x55f
    32ec:	63007972 	movwvs	r7, #2418	; 0x972
    32f0:	00726f74 	rsbseq	r6, r2, r4, ror pc
    32f4:	676e6f6c 	strbvs	r6, [lr, -ip, ror #30]!
    32f8:	746e6920 	strbtvc	r6, [lr], #-2336	; 0x920
    32fc:	73696c00 	cmnvc	r9, #0
    3300:	6f6c5f74 	svcvs	0x006c5f74
    3304:	4d006b63 	vstrmi	d6, [r0, #-396]	; 0xfffffe74
    3308:	4c55444f 	cfldrdmi	mvd4, [r5], {79}	; 0x4f
    330c:	54535f45 	ldrbpl	r5, [r3], #-3909	; 0xf45
    3310:	5f455441 	svcpl	0x00455441
    3314:	494d4f43 	stmdbmi	sp, {r0, r1, r6, r8, r9, sl, fp, lr}^
    3318:	6e00474e 	cdpvs	7, 0, cr4, cr0, cr14, {2}
    331c:	5f65646f 	svcpl	0x0065646f
    3320:	656e6f7a 	strbvs	r6, [lr, #-3962]!	; 0xf7a
    3324:	5f5f0073 	svcpl	0x005f0073
    3328:	63617274 	cmnvs	r1, #1073741831	; 0x40000007
    332c:	696f7065 	stmdbvs	pc!, {r0, r2, r5, r6, ip, sp, lr}^
    3330:	6b5f746e 	blvs	17e04f0 <tz_ioctl+0x17e02a4>
    3334:	6c6c616d 	stfvse	f6, [ip], #-436	; 0xfffffe4c
    3338:	6e5f636f 	cdpvs	3, 5, cr6, cr15, cr15, {3}
    333c:	0065646f 	rsbeq	r6, r5, pc, ror #8
    3340:	65766575 	ldrbvs	r6, [r6, #-1397]!	; 0x575
    3344:	735f746e 	cmpvc	pc, #1845493760	; 0x6e000000
    3348:	72707075 	rsbsvc	r7, r0, #117	; 0x75
    334c:	00737365 	rsbseq	r7, r3, r5, ror #6
    3350:	74736574 	ldrbtvc	r6, [r3], #-1396	; 0x574
    3354:	5f687300 	svcpl	0x00687300
    3358:	72646461 	rsbvc	r6, r4, #1627389952	; 0x61000000
    335c:	67696c61 	strbvs	r6, [r9, -r1, ror #24]!
    3360:	6e65006e 	cdpvs	0, 6, cr0, cr5, cr14, {3}
    3364:	6b007076 	blvs	1f544 <tz_ioctl+0x1f2f8>
    3368:	6c6c616d 	stfvse	f6, [ip], #-436	; 0xfffffe4c
    336c:	635f636f 	cmpvs	pc, #-1140850687	; 0xbc000001
    3370:	65686361 	strbvs	r6, [r8, #-865]!	; 0x361
    3374:	69680073 	stmdbvs	r8!, {r0, r1, r4, r5, r6}^
    3378:	6c006867 	stcvs	8, cr6, [r0], {103}	; 0x67
    337c:	656d776f 	strbvs	r7, [sp, #-1903]!	; 0x76f
    3380:	65725f6d 	ldrbvs	r5, [r2, #-3949]!	; 0xf6d
    3384:	76726573 	undefined instruction 0x76726573
    3388:	6f7a0065 	svcvs	0x007a0065
    338c:	695f656e 	ldmdbvs	pc, {r1, r2, r3, r5, r6, r8, sl, sp, lr}^
    3390:	73007864 	movwvc	r7, #2148	; 0x864
    3394:	5f746365 	svcpl	0x00746365
    3398:	72747461 	rsbsvc	r7, r4, #1627389952	; 0x61000000
    339c:	706b0073 	rsbvc	r0, fp, r3, ror r0
    33a0:	6d617261 	sfmvs	f7, 2, [r1, #-388]!	; (stclvs 2, cr7, [r1, #-388]!)	; 0xfffffe7c
    33a4:	7274735f 	rsbsvc	r7, r4, #2080374785	; 0x7c000001
    33a8:	00676e69 	rsbeq	r6, r7, r9, ror #28
    33ac:	75646f6d 	strbvc	r6, [r4, #-3949]!	; 0xf6d
    33b0:	635f656c 	cmpvs	pc, #452984832	; 0x1b000000
    33b4:	0065726f 	rsbeq	r7, r5, pc, ror #4
    33b8:	75646f6d 	strbvc	r6, [r4, #-3949]!	; 0xf6d
    33bc:	6e5f656c 	cdpvs	5, 5, cr6, cr15, cr12, {3}
    33c0:	7365746f 	cmnvc	r5, #1862270976	; 0x6f000000
    33c4:	7474615f 	ldrbtvc	r6, [r4], #-351	; 0x15f
    33c8:	68007372 	stmdavs	r0, {r1, r4, r5, r6, r8, r9, ip, sp, lr}
    33cc:	615f7865 	cmpvs	pc, r5, ror #16
    33d0:	73006373 	movwvc	r6, #883	; 0x373
    33d4:	656e6769 	strbvs	r6, [lr, #-1897]!	; 0x769
    33d8:	68632064 	stmdavs	r3!, {r2, r5, r6, sp}^
    33dc:	61007261 	tstvs	r0, r1, ror #4
    33e0:	636f6c6c 	cmnvs	pc, #27648	; 0x6c00
    33e4:	67616c66 	strbvs	r6, [r1, -r6, ror #24]!
    33e8:	74730073 	ldrbtvc	r0, [r3], #-115	; 0x73
    33ec:	5f657461 	svcpl	0x00657461
    33f0:	74696e69 	strbtvc	r6, [r9], #-3689	; 0xe69
    33f4:	696c6169 	stmdbvs	ip!, {r0, r3, r5, r6, r8, sp, lr}^
    33f8:	0064657a 	rsbeq	r6, r4, sl, ror r5
    33fc:	63617274 	cmnvs	r1, #1073741831	; 0x40000007
    3400:	696f7065 	stmdbvs	pc!, {r0, r2, r5, r6, ip, sp, lr}^
    3404:	0073746e 	rsbseq	r7, r3, lr, ror #8
    3408:	66737973 	undefined instruction 0x66737973
    340c:	69645f73 	stmdbvs	r4!, {r0, r1, r4, r5, r6, r8, r9, sl, fp, ip, lr}^
    3410:	746e6572 	strbtvc	r6, [lr], #-1394	; 0x572
    3414:	745f5f00 	ldrbvc	r5, [pc], #3840	; 341c <.debug_str+0x341c>
    3418:	65636172 	strbvs	r6, [r3, #-370]!	; 0x172
    341c:	6e696f70 	mcrvs	15, 3, r6, cr9, cr0, {3}
    3420:	6f6d5f74 	svcvs	0x006d5f74
    3424:	656c7564 	strbvs	r7, [ip, #-1380]!	; 0x564
    3428:	7465675f 	strbtvc	r6, [r5], #-1887	; 0x75f
    342c:	6d756e00 	ldclvs	14, cr6, [r5]
    3430:	6578655f 	ldrbvs	r6, [r8, #-1375]!	; 0x55f
    3434:	6972746e 	ldmdbvs	r2!, {r1, r2, r3, r5, r6, sl, ip, sp, lr}^
    3438:	45007365 	strmi	r7, [r0, #-869]	; 0x365
    343c:	3233666c 	eorscc	r6, r3, #113246208	; 0x6c00000
    3440:	6468535f 	strbtvs	r5, [r8], #-863	; 0x35f
    3444:	6c650072 	stclvs	0, cr0, [r5], #-456	; 0xfffffe38
    3448:	77685f66 	strbvc	r5, [r8, -r6, ror #30]!
    344c:	00706163 	rsbseq	r6, r0, r3, ror #2
    3450:	65726f63 	ldrbvs	r6, [r2, #-3939]!	; 0xf63
    3454:	7a69735f 	bvc	1a601d8 <tz_ioctl+0x1a5ff8c>
    3458:	6e750065 	cdpvs	0, 7, cr0, cr5, cr5, {3}
    345c:	6e676973 	mcrvs	9, 3, r6, cr7, cr3, {3}
    3460:	63206465 	teqvs	r0, #1694498816	; 0x65000000
    3464:	00726168 	rsbseq	r6, r2, r8, ror #2
    3468:	74696e69 	strbtvc	r6, [r9], #-3689	; 0xe69
    346c:	7865745f 	stmdavc	r5!, {r0, r1, r2, r3, r4, r6, sl, ip, sp, lr}^
    3470:	69735f74 	ldmdbvs	r3!, {r2, r4, r5, r6, r8, r9, sl, fp, ip, lr}^
    3474:	7a00657a 	bvc	1ca64 <tz_ioctl+0x1c818>
    3478:	6c656e6f 	stclvs	14, cr6, [r5], #-444	; 0xfffffe44
    347c:	00747369 	rsbseq	r7, r4, r9, ror #6
    3480:	615f6873 	cmpvs	pc, r3, ror r8
    3484:	00726464 	rsbseq	r6, r2, r4, ror #8
    3488:	656e6f7a 	strbvs	r6, [lr, #-3962]!	; 0xf7a
    348c:	75726c5f 	ldrbvc	r6, [r2, #-3167]!	; 0xc5f
    3490:	6f425f00 	svcvs	0x00425f00
    3494:	5f006c6f 	svcpl	0x00006c6f
    3498:	6172745f 	cmnvs	r2, pc, asr r4
    349c:	6f706563 	svcvs	0x00706563
    34a0:	5f746e69 	svcpl	0x00746e69
    34a4:	75646f6d 	strbvc	r6, [r4, #-3949]!	; 0xf6d
    34a8:	725f656c 	subsvc	r6, pc, #452984832	; 0x1b000000
    34ac:	65757165 	ldrbvs	r7, [r5, #-357]!	; 0x165
    34b0:	72007473 	andvc	r7, r0, #1929379840	; 0x73000000
    34b4:	6e656365 	cdpvs	3, 6, cr6, cr5, cr5, {3}
    34b8:	63735f74 	cmnvs	r3, #464	; 0x1d0
    34bc:	656e6e61 	strbvs	r6, [lr, #-3681]!	; 0xe61
    34c0:	61760064 	cmnvs	r6, r4, rrx
    34c4:	0065756c 	rsbeq	r7, r5, ip, ror #10
    34c8:	72616863 	rsbvc	r6, r1, #6488064	; 0x630000
    34cc:	745f5f00 	ldrbvc	r5, [pc], #3840	; 34d4 <.debug_str+0x34d4>
    34d0:	65636172 	strbvs	r6, [r3, #-370]!	; 0x172
    34d4:	6e696f70 	mcrvs	15, 3, r6, cr9, cr0, {3}
    34d8:	6d6b5f74 	stclvs	15, cr5, [fp, #-464]!	; 0xfffffe30
    34dc:	6f6c6c61 	svcvs	0x006c6c61
    34e0:	6e690063 	cdpvs	0, 6, cr0, cr9, cr3, {3}
    34e4:	00657375 	rsbeq	r7, r5, r5, ror r3
    34e8:	75646f6d 	strbvc	r6, [r4, #-3949]!	; 0xf6d
    34ec:	6b00656c 	blvs	1caa4 <tz_ioctl+0x1c858>
    34f0:	70617773 	rsbvc	r7, r1, r3, ror r7
    34f4:	61775f64 	cmnvs	r7, r4, ror #30
    34f8:	68007469 	stmdavs	r0, {r0, r3, r5, r6, sl, ip, sp, lr}
    34fc:	65646c6f 	strbvs	r6, [r4, #-3183]!	; 0xc6f
    3500:	645f7372 	ldrbvs	r7, [pc], #882	; 3508 <.debug_str+0x3508>
    3504:	6e007269 	cdpvs	2, 0, cr7, cr0, cr9, {3}
    3508:	745f6d75 	ldrbvc	r6, [pc], #3445	; 3510 <.debug_str+0x3510>
    350c:	65636172 	strbvs	r6, [r3, #-370]!	; 0x172
    3510:	6e696f70 	mcrvs	15, 3, r6, cr9, cr0, {3}
    3514:	6c007374 	stcvs	3, cr7, [r0], {116}	; 0x74
    3518:	006b636f 	rsbeq	r6, fp, pc, ror #6
    351c:	61727466 	cmnvs	r2, r6, ror #8
    3520:	655f6563 	ldrbvs	r6, [pc, #-1379]	; 2fc5 <.debug_str+0x2fc5>
    3524:	746e6576 	strbtvc	r6, [lr], #-1398	; 0x576
    3528:	6c61635f 	stclvs	3, cr6, [r1], #-380	; 0xfffffe84
    352c:	7865006c 	stmdavc	r5!, {r2, r3, r5, r6}^
    3530:	6c626174 	stfvse	f6, [r2], #-464	; 0xfffffe30
    3534:	65730065 	ldrbvs	r0, [r3, #-101]!	; 0x65
    3538:	6f635f63 	svcvs	0x00635f63
    353c:	745f6572 	ldrbvc	r6, [pc], #1394	; 3544 <.debug_str+0x3544>
    3540:	00747865 	rsbseq	r7, r4, r5, ror #16
    3544:	636f6c73 	cmnvs	pc, #29440	; 0x7300
    3548:	5f5f006b 	svcpl	0x005f006b
    354c:	63617274 	cmnvs	r1, #1073741831	; 0x40000007
    3550:	696f7065 	stmdbvs	pc!, {r0, r2, r5, r6, ip, sp, lr}^
    3554:	6d5f746e 	cfldrdvs	mvd7, [pc, #-440]	; 0xfffffe48
    3558:	61705f6d 	cmnvs	r0, sp, ror #30
    355c:	65766567 	ldrbvs	r6, [r6, #-1383]!	; 0x567
    3560:	72665f63 	rsbvc	r5, r6, #396	; 0x18c
    3564:	61006565 	tstvs	r0, r5, ror #10
    3568:	00727474 	rsbseq	r7, r2, r4, ror r4
    356c:	72745f5f 	rsbsvc	r5, r4, #380	; 0x17c
    3570:	70656361 	rsbvc	r6, r5, r1, ror #6
    3574:	746e696f 	strbtvc	r6, [lr], #-2415	; 0x96f
    3578:	656d6b5f 	strbvs	r6, [sp, #-2911]!	; 0xb5f
    357c:	61635f6d 	cmnvs	r3, sp, ror #30
    3580:	5f656863 	svcpl	0x00656863
    3584:	65657266 	strbvs	r7, [r5, #-614]!	; 0x266
    3588:	61646200 	cmnvs	r4, r0, lsl #4
    358c:	66006174 	undefined instruction 0x66006174
    3590:	7367616c 	cmnvc	r7, #27
    3594:	69617700 	stmdbvs	r1!, {r8, r9, sl, ip, sp, lr}^
    3598:	61745f74 	cmnvs	r4, r4, ror pc
    359c:	5f656c62 	svcpl	0x00656c62
    35a0:	73746962 	cmnvc	r4, #1605632	; 0x188000
    35a4:	73617400 	cmnvc	r1, #0
    35a8:	696c5f6b 	stmdbvs	ip!, {r0, r1, r3, r5, r6, r8, r9, sl, fp, ip, lr}^
    35ac:	66007473 	undefined instruction 0x66007473
    35b0:	5f656572 	svcpl	0x00656572
    35b4:	7473696c 	ldrbtvc	r6, [r3], #-2412	; 0x96c
    35b8:	5f747300 	svcpl	0x00747300
    35bc:	6f666e69 	svcvs	0x00666e69
    35c0:	646f6d00 	strbtvs	r6, [pc], #3328	; 35c8 <.debug_str+0x35c8>
    35c4:	73656c75 	cmnvc	r5, #29952	; 0x7500
    35c8:	6968775f 	stmdbvs	r8!, {r0, r1, r2, r3, r4, r6, r8, r9, sl, ip, sp, lr}^
    35cc:	755f6863 	ldrbvc	r6, [pc, #-2147]	; 2d71 <.debug_str+0x2d71>
    35d0:	6d5f6573 	cfldr64vs	mvdx6, [pc, #-460]	; 0xfffffe34
    35d4:	6c450065 	mcrrvs	0, 6, r0, r5, cr5
    35d8:	5f323366 	svcpl	0x00323366
    35dc:	72646441 	rsbvc	r6, r4, #1090519040	; 0x41000000
    35e0:	776e7500 	strbvc	r7, [lr, -r0, lsl #10]!
    35e4:	5f646e69 	svcpl	0x00646e69
    35e8:	6c626174 	stfvse	f6, [r2], #-464	; 0xfffffe30
    35ec:	6f740065 	svcvs	0x00740065
    35f0:	5f6c6174 	svcpl	0x006c6174
    35f4:	656a626f 	strbvs	r6, [sl, #-623]!	; 0x26f
    35f8:	00737463 	rsbseq	r7, r3, r3, ror #8
    35fc:	65646f6e 	strbvs	r6, [r4, #-3950]!	; 0xf6e
    3600:	63726100 	cmnvs	r2, #0
    3604:	65640068 	strbvs	r0, [r4, #-104]!	; 0x68
    3608:	6c756166 	ldfvse	f6, [r5], #-408	; 0xfffffe68
    360c:	74615f74 	strbtvc	r5, [r1], #-3956	; 0xf74
    3610:	00737274 	rsbseq	r7, r3, r4, ror r2
    3614:	636e7566 	cmnvs	lr, #427819008	; 0x19800000
    3618:	74730073 	ldrbtvc	r0, [r3], #-115	; 0x73
    361c:	62617472 	rsbvs	r7, r1, #1912602624	; 0x72000000
    3620:	6f746100 	svcvs	0x00746100
    3624:	5f63696d 	svcpl	0x0063696d
    3628:	676e6f6c 	strbvs	r6, [lr, -ip, ror #30]!
    362c:	7700745f 	smlsdvc	r0, pc, r4, r7
    3630:	5f746961 	svcpl	0x00746961
    3634:	6c626174 	stfvse	f6, [r2], #-464	; 0xfffffe30
    3638:	656b0065 	strbvs	r0, [fp, #-101]!	; 0x65
    363c:	6c656e72 	stclvs	14, cr6, [r5], #-456	; 0xfffffe38
    3640:	7261705f 	rsbvc	r7, r1, #95	; 0x5f
    3644:	6e006d61 	cdpvs	13, 0, cr6, cr0, cr1, {3}
    3648:	5f65646f 	svcpl	0x0065646f
    364c:	6d006469 	cfstrsvs	mvf6, [r0, #-420]	; 0xfffffe5c
    3650:	735f6d65 	cmpvc	pc, #6464	; 0x1940
    3654:	69746365 	ldmdbvs	r4!, {r0, r2, r5, r6, r8, r9, sp, lr}^
    3658:	6e006e6f 	cdpvs	14, 0, cr6, cr0, cr15, {3}
    365c:	61705f72 	cmnvs	r0, r2, ror pc
    3660:	61697472 	smcvs	38722	; 0x9742
    3664:	756e006c 	strbvc	r0, [lr, #-108]!	; 0x6c
    3668:	706b5f6d 	rsbvc	r5, fp, sp, ror #30
    366c:	636f6c00 	cmnvs	pc, #0
    3670:	745f6c61 	ldrbvc	r6, [pc], #3169	; 3678 <.debug_str+0x3678>
    3674:	6f746300 	svcvs	0x00746300
    3678:	6e665f72 	mcrvs	15, 3, r5, cr6, cr2, {3}
    367c:	6d00745f 	cfstrsvs	mvf7, [r0, #-380]	; 0xfffffe84
    3680:	6a626f6b 	bvs	189f434 <tz_ioctl+0x189f1e8>
    3684:	5f687300 	svcpl	0x00687300
    3688:	6f666e69 	svcvs	0x00666e69
    368c:	6d5f5f00 	ldclvs	15, cr5, [pc]
    3690:	6c75646f 	cfldrdvs	mvd6, [r5], #-444	; 0xfffffe44
    3694:	65645f65 	strbvs	r5, [r4, #-3941]!	; 0xf65
    3698:	646e6570 	strbtvs	r6, [lr], #-1392	; 0x570
    369c:	61700073 	cmnvs	r0, r3, ror r0
    36a0:	61697472 	smcvs	38722	; 0x9742
    36a4:	5f5f006c 	svcpl	0x005f006c
    36a8:	63617274 	cmnvs	r1, #1073741831	; 0x40000007
    36ac:	696f7065 	stmdbvs	pc!, {r0, r2, r5, r6, ip, sp, lr}^
    36b0:	6d5f746e 	cfldrdvs	mvd7, [pc, #-440]	; 0xfffffe48
    36b4:	6c75646f 	cfldrdvs	mvd6, [r5], #-444	; 0xfffffe44
    36b8:	6f6c5f65 	svcvs	0x006c5f65
    36bc:	5f006461 	svcpl	0x00006461
    36c0:	6172745f 	cmnvs	r2, pc, asr r4
    36c4:	6f706563 	svcvs	0x00706563
    36c8:	5f746e69 	svcpl	0x00746e69
    36cc:	75646f6d 	strbvc	r6, [r4, #-3949]!	; 0xf6d
    36d0:	705f656c 	subsvc	r6, pc, ip, ror #10
    36d4:	6e007475 	mcrvs	4, 0, r7, cr0, cr5, {3}
    36d8:	5f65646f 	svcpl	0x0065646f
    36dc:	6e617073 	mcrvs	0, 3, r7, cr1, cr3, {3}
    36e0:	5f64656e 	svcpl	0x0064656e
    36e4:	65676170 	strbvs	r6, [r7, #-368]!	; 0x170
    36e8:	65730073 	ldrbvs	r0, [r3, #-115]!	; 0x73
    36ec:	00707574 	rsbseq	r7, r0, r4, ror r5
    36f0:	5f776172 	svcpl	0x00776172
    36f4:	6e697073 	mcrvs	0, 3, r7, cr9, cr3, {3}
    36f8:	6b636f6c 	blvs	18df4b0 <tz_ioctl+0x18df264>
    36fc:	7000745f 	andvc	r7, r0, pc, asr r4
    3700:	6d617261 	sfmvs	f7, 2, [r1, #-388]!	; (stclvs 2, cr7, [r1, #-388]!)	; 0xfffffe7c
    3704:	7465735f 	strbtvc	r7, [r5], #-863	; 0x35f
    3708:	006e665f 	rsbeq	r6, lr, pc, asr r6
    370c:	65726f63 	ldrbvs	r6, [r2, #-3939]!	; 0xf63
    3710:	7274735f 	rsbsvc	r7, r4, #2080374785	; 0x7c000001
    3714:	00626174 	rsbeq	r6, r2, r4, ror r1
    3718:	676e6f6c 	strbvs	r6, [lr, -ip, ror #30]!
    371c:	736e7520 	cmnvc	lr, #134217728	; 0x8000000
    3720:	656e6769 	strbvs	r6, [lr, #-1897]!	; 0x769
    3724:	6e692064 	cdpvs	0, 6, cr2, cr9, cr4, {3}
    3728:	6f630074 	svcvs	0x00630074
    372c:	6c6f736e 	stclvs	3, cr7, [pc], #-440	; 0xfffffe48
    3730:	72705f65 	rsbsvc	r5, r0, #404	; 0x194
    3734:	6b746e69 	blvs	1d1f0e0 <tz_ioctl+0x1d1ee94>
    3738:	6d756e00 	ldclvs	14, cr6, [r5]
    373c:	6c70675f 	ldclvs	7, cr6, [r0], #-380	; 0xfffffe84
    3740:	7475665f 	ldrbtvc	r6, [r5], #-1631	; 0x65f
    3744:	5f657275 	svcpl	0x00657275
    3748:	736d7973 	cmnvc	sp, #1884160	; 0x1cc000
    374c:	5f747300 	svcpl	0x00747300
    3750:	657a6973 	ldrbvs	r6, [sl, #-2419]!	; 0x973
    3754:	75706300 	ldrbvc	r6, [r0, #-768]!	; 0x300
    3758:	616c735f 	cmnvs	ip, pc, asr r3
    375c:	776f0062 	strbvc	r0, [pc, -r2, rrx]!
    3760:	5f72656e 	svcpl	0x0072656e
    3764:	00757063 	rsbseq	r7, r5, r3, rrx
    3768:	6665726b 	strbtvs	r7, [r5], -fp, ror #4
    376c:	6d756e00 	ldclvs	14, cr6, [r5]
    3770:	6d79735f 	ldclvs	3, cr7, [r9, #-380]!	; 0xfffffe84
    3774:	68730073 	ldmdavs	r3!, {r0, r1, r4, r5, r6}^
    3778:	7079745f 	rsbsvc	r7, r9, pc, asr r4
    377c:	72610065 	rsbvc	r0, r1, #101	; 0x65
    3780:	6b007367 	blvs	20524 <tz_ioctl+0x202d8>
    3784:	5f6a626f 	svcpl	0x006a626f
    3788:	65766575 	ldrbvs	r6, [r6, #-1397]!	; 0x575
    378c:	655f746e 	ldrbvs	r7, [pc, #-1134]	; 3326 <.debug_str+0x3326>
    3790:	6900766e 	stmdbvs	r0, {r1, r2, r3, r5, r6, r9, sl, ip, sp, lr}
    3794:	5f74696e 	svcpl	0x0074696e
    3798:	657a6973 	ldrbvs	r6, [sl, #-2419]!	; 0x973
    379c:	554e4700 	strbpl	r4, [lr, #-1792]	; 0x700
    37a0:	34204320 	strtcc	r4, [r0], #-800	; 0x320
    37a4:	312e342e 	teqcc	lr, lr, lsr #8
    37a8:	745f5f00 	ldrbvc	r5, [pc], #3840	; 37b0 <.debug_str+0x37b0>
    37ac:	5f736968 	svcpl	0x00736968
    37b0:	75646f6d 	strbvc	r6, [r4, #-3949]!	; 0xf6d
    37b4:	7300656c 	movwvc	r6, #1388	; 0x56c
    37b8:	00736d79 	rsbseq	r6, r3, r9, ror sp
    37bc:	6b736174 	blvs	1cdbd94 <tz_ioctl+0x1cdbb48>
    37c0:	7274735f 	rsbsvc	r7, r4, #2080374785	; 0x7c000001
    37c4:	00746375 	rsbseq	r6, r4, r5, ror r3
    37c8:	676e6f6c 	strbvs	r6, [lr, -ip, ror #30]!
    37cc:	6e6f6c20 	cdpvs	12, 6, cr6, cr15, cr0, {1}
    37d0:	6e692067 	cdpvs	0, 6, cr2, cr9, cr7, {3}
    37d4:	6f630074 	svcvs	0x00630074
    37d8:	65746e75 	ldrbvs	r6, [r4, #-3701]!	; 0xe75
    37dc:	726e0072 	rsbvc	r0, lr, #114	; 0x72
    37e0:	6572665f 	ldrbvs	r6, [r2, #-1631]!	; 0x65f
    37e4:	616d0065 	cmnvs	sp, r5, rrx
    37e8:	6e656c78 	mcrvs	12, 3, r6, cr5, cr8, {3}
    37ec:	6b5f5f00 	blvs	17db3f4 <tz_ioctl+0x17db1a8>
    37f0:	656e7265 	strbvs	r7, [lr, #-613]!	; 0x265
    37f4:	69735f6c 	ldmdbvs	r3!, {r2, r3, r5, r6, r8, r9, sl, fp, ip, lr}^
    37f8:	745f657a 	ldrbvc	r6, [pc], #1402	; 3800 <.debug_str+0x3800>
    37fc:	65727000 	ldrbvs	r7, [r2]!
    3800:	746e6573 	strbtvc	r6, [lr], #-1395	; 0x573
    3804:	6761705f 	undefined instruction 0x6761705f
    3808:	74007365 	strvc	r7, [r0], #-869	; 0x365
    380c:	65636172 	strbvs	r6, [r3, #-370]!	; 0x172
    3810:	7270625f 	rsbsvc	r6, r0, #-268435451	; 0xf0000005
    3814:	6b746e69 	blvs	1d1f1c0 <tz_ioctl+0x1d1ef74>
    3818:	746d665f 	strbtvc	r6, [sp], #-1631	; 0x65f
    381c:	6174735f 	cmnvs	r4, pc, asr r3
    3820:	45007472 	strmi	r7, [r0, #-1138]	; 0x472
    3824:	3233666c 	eorscc	r6, r3, #113246208	; 0x6c00000
    3828:	6c61485f 	stclvs	8, cr4, [r1], #-380	; 0xfffffe84
    382c:	72660066 	rsbvc	r0, r6, #102	; 0x66
    3830:	696c6565 	stmdbvs	ip!, {r0, r2, r5, r6, r8, sl, sp, lr}^
    3834:	6e007473 	mcrvs	4, 0, r7, cr0, cr3, {3}
    3838:	7365746f 	cmnvc	r5, #1862270976	; 0x6f000000
    383c:	7474615f 	ldrbtvc	r6, [r4], #-351	; 0x15f
    3840:	73007372 	movwvc	r7, #882	; 0x372
    3844:	68735f74 	ldmdavs	r3!, {r2, r4, r5, r6, r8, r9, sl, fp, ip, lr}^
    3848:	0078646e 	rsbseq	r6, r8, lr, ror #8
    384c:	63666572 	cmnvs	r6, #478150656	; 0x1c800000
    3850:	746e756f 	strbtvc	r7, [lr], #-1391	; 0x56f
    3854:	5f687300 	svcpl	0x00687300
    3858:	656d616e 	strbvs	r6, [sp, #-366]!	; 0x16e
    385c:	775f5f00 	ldrbvc	r5, [pc, -r0, lsl #30]
    3860:	5f746961 	svcpl	0x00746961
    3864:	75657571 	strbvc	r7, [r5, #-1393]!	; 0x571
    3868:	65685f65 	strbvs	r5, [r8, #-3941]!	; 0xf65
    386c:	70006461 	andvc	r6, r0, r1, ror #8
    3870:	73656761 	cmnvc	r5, #25427968	; 0x1840000
    3874:	6163735f 	cmnvs	r3, pc, asr r3
    3878:	64656e6e 	strbtvs	r6, [r5], #-3694	; 0xe6e
    387c:	72617000 	rsbvc	r7, r1, #0
    3880:	00746e65 	rsbseq	r6, r4, r5, ror #28
    3884:	67696c61 	strbvs	r6, [r9, -r1, ror #24]!
    3888:	6e75006e 	cdpvs	0, 7, cr0, cr5, cr14, {3}
    388c:	65735f77 	ldrbvs	r5, [r3, #-3959]!	; 0xf77
    3890:	6f635f63 	svcvs	0x00635f63
    3894:	63006572 	movwvs	r6, #1394	; 0x572
    3898:	746e756f 	strbtvc	r7, [lr], #-1391	; 0x56f
    389c:	72747300 	rsbsvc	r7, r4, #0
    38a0:	00676e69 	rsbeq	r6, r7, r9, ror #28
    38a4:	69736e75 	ldmdbvs	r3!, {r0, r2, r4, r5, r6, r9, sl, fp, sp, lr}^
    38a8:	64656e67 	strbtvs	r6, [r5], #-3687	; 0xe67
    38ac:	746e6920 	strbtvc	r6, [lr], #-2336	; 0x920
    38b0:	5f726e00 	svcpl	0x00726e00
    38b4:	62616c73 	rsbvs	r6, r1, #29440	; 0x7300
    38b8:	6f630073 	svcvs	0x00630073
    38bc:	6769746e 	strbvs	r7, [r9, -lr, ror #8]!
    38c0:	6761705f 	undefined instruction 0x6761705f
    38c4:	61645f65 	cmnvs	r4, r5, ror #30
    38c8:	62006174 	andvs	r6, r0, #29
    38cc:	656c6675 	strbvs	r6, [ip, #-1653]!	; 0x675
    38d0:	7073006e 	rsbsvc	r0, r3, lr, rrx
    38d4:	6f6c6e69 	svcvs	0x006c6e69
    38d8:	745f6b63 	ldrbvc	r6, [pc], #2915	; 38e0 <.debug_str+0x38e0>
    38dc:	65736b00 	ldrbvs	r6, [r3, #-2816]!	; 0xb00
    38e0:	65755f74 	ldrbvs	r5, [r5, #-3956]!	; 0xf74
    38e4:	746e6576 	strbtvc	r6, [lr], #-1398	; 0x576
    38e8:	73706f5f 	cmnvc	r0, #380	; 0x17c
    38ec:	72657000 	rsbvc	r7, r5, #0
    38f0:	00757063 	rsbseq	r7, r5, r3, rrx
    38f4:	76657270 	undefined instruction 0x76657270
    38f8:	6972705f 	ldmdbvs	r2!, {r0, r1, r2, r3, r4, r6, ip, sp, lr}^
    38fc:	7469726f 	strbtvc	r7, [r9], #-623	; 0x26f
    3900:	72740079 	rsbsvc	r0, r4, #121	; 0x79
    3904:	70656361 	rsbvc	r6, r5, r1, ror #6
    3908:	746e696f 	strbtvc	r6, [lr], #-2415	; 0x96f
    390c:	63657200 	cmnvs	r5, #0
    3910:	5f746e65 	svcpl	0x00746e65
    3914:	61746f72 	cmnvs	r4, r2, ror pc
    3918:	00646574 	rsbeq	r6, r4, r4, ror r5
    391c:	69776e75 	ldmdbvs	r7!, {r0, r2, r4, r5, r6, r9, sl, fp, sp, lr}^
    3920:	635f646e 	cmpvs	pc, #1845493760	; 0x6e000000
    3924:	0065726f 	rsbeq	r7, r5, pc, ror #4
    3928:	65746177 	ldrbvs	r6, [r4, #-375]!	; 0x177
    392c:	72616d72 	rsbvc	r6, r1, #7296	; 0x1c80
    3930:	666f006b 	strbtvs	r0, [pc], -fp, rrx
    3934:	74657366 	strbtvc	r7, [r5], #-870	; 0x366
    3938:	73696c00 	cmnvc	r9, #0
    393c:	61700074 	cmnvs	r0, r4, ror r0
    3940:	73006567 	movwvc	r6, #1383	; 0x567
    3944:	645f6365 	ldrbvs	r6, [pc], #869	; 394c <.debug_str+0x394c>
    3948:	6e697665 	cdpvs	6, 6, cr7, cr9, cr5, {3}
    394c:	745f7469 	ldrbvc	r7, [pc], #1129	; 3954 <.debug_str+0x3954>
    3950:	00747865 	rsbseq	r7, r4, r5, ror #16
    3954:	65646f6d 	strbvs	r6, [r4, #-3949]!	; 0xf6d
    3958:	7700745f 	smlsdvc	r0, pc, r4, r7
    395c:	5f746961 	svcpl	0x00746961
    3960:	6c626174 	stfvse	f6, [r2], #-464	; 0xfffffe30
    3964:	61685f65 	cmnvs	r8, r5, ror #30
    3968:	6e5f6873 	mrcvs	8, 2, r6, cr15, cr3, {3}
    396c:	6e655f72 	mcrvs	15, 3, r5, cr5, cr2, {3}
    3970:	65697274 	strbvs	r7, [r9, #-628]!	; 0x274
    3974:	682f0073 	stmdavs	pc!, {r0, r1, r4, r5, r6}
    3978:	2f656d6f 	svccs	0x00656d6f
    397c:	6a6f756c 	bvs	1be0f34 <tz_ioctl+0x1be0ce8>
    3980:	2f676e69 	svccs	0x00676e69
    3984:	72616873 	rsbvc	r6, r1, #7536640	; 0x730000
    3988:	72702f65 	rsbsvc	r2, r0, #404	; 0x194
    398c:	63656a6f 	cmnvs	r5, #454656	; 0x6f000
    3990:	6c2f7374 	stcvs	3, cr7, [pc], #-464	; 0xfffffe30
    3994:	78756e69 	ldmdavc	r5!, {r0, r3, r5, r6, r9, sl, fp, sp, lr}^
    3998:	72656b5f 	rsbvc	r6, r5, #97280	; 0x17c00
    399c:	5f6c656e 	svcpl	0x006c656e
    39a0:	76703573 	undefined instruction 0x76703573
    39a4:	2f303132 	svccs	0x00303132
    39a8:	6e72656b 	cdpvs	5, 7, cr6, cr2, cr11, {3}
    39ac:	70006c65 	andvc	r6, r0, r5, ror #24
    39b0:	62656761 	rsbvs	r6, r5, #25427968	; 0x1840000
    39b4:	6b636f6c 	blvs	18df76c <tz_ioctl+0x18df520>
    39b8:	616c665f 	cmnvs	ip, pc, asr r6
    39bc:	6b007367 	blvs	20760 <tz_ioctl+0x20514>
    39c0:	656e7265 	strbvs	r7, [lr, #-613]!	; 0x265
    39c4:	79735f6c 	ldmdbvc	r3!, {r2, r3, r5, r6, r8, r9, sl, fp, ip, lr}^
    39c8:	6c6f626d 	sfmvs	f6, 2, [pc], #-436	; (stclvs 2, cr6, [pc], #-436)	; 0xfffffe4c
    39cc:	76657500 	strbtvc	r7, [r5], -r0, lsl #10
    39d0:	00746e65 	rsbseq	r6, r4, r5, ror #28
    39d4:	65676170 	strbvs	r6, [r7, #-368]!	; 0x170
    39d8:	00746573 	rsbseq	r6, r4, r3, ror r5
    39dc:	65726f63 	ldrbvs	r6, [r2, #-3939]!	; 0xf63
    39e0:	7865745f 	stmdavc	r5!, {r0, r1, r2, r3, r4, r6, sl, ip, sp, lr}^
    39e4:	69735f74 	ldmdbvs	r3!, {r2, r4, r5, r6, r8, r9, sl, fp, ip, lr}^
    39e8:	6b00657a 	blvs	1cfd8 <tz_ioctl+0x1cd8c>
    39ec:	00746573 	rsbseq	r6, r4, r3, ror r5
    39f0:	33666c65 	cmncc	r6, #25856	; 0x6500
    39f4:	79735f32 	ldmdbvc	r3!, {r1, r4, r5, r8, r9, sl, fp, ip, lr}^
    39f8:	7473006d 	ldrbtvc	r0, [r3], #-109	; 0x6d
    39fc:	6c61765f 	stclvs	6, cr7, [r1], #-380	; 0xfffffe84
    3a00:	70006575 	andvc	r6, r0, r5, ror r5
    3a04:	73696c67 	cmnvc	r9, #26368	; 0x6700
    3a08:	61645f74 	smcvs	17908	; 0x45f4
    3a0c:	65006174 	strvs	r6, [r0, #-372]	; 0x174
    3a10:	7972746e 	ldmdbvc	r2!, {r1, r2, r3, r5, r6, sl, ip, sp, lr}^
    3a14:	63657200 	cmnvs	r5, #0
    3a18:	6d69616c 	stfvse	f6, [r9, #-432]!	; 0xfffffe50
    3a1c:	6174735f 	cmnvs	r4, pc, asr r3
    3a20:	61770074 	cmnvs	r7, r4, ror r0
    3a24:	72657469 	rsbvc	r7, r5, #1761607680	; 0x69000000
    3a28:	5f687300 	svcpl	0x00687300
    3a2c:	73746e65 	cmnvc	r4, #1616	; 0x650
    3a30:	00657a69 	rsbeq	r7, r5, r9, ror #20
    3a34:	5f6d756e 	svcpl	0x006d756e
    3a38:	63617274 	cmnvs	r1, #1073741831	; 0x40000007
    3a3c:	70625f65 	rsbvc	r5, r2, r5, ror #30
    3a40:	746e6972 	strbtvc	r6, [lr], #-2418	; 0x972
    3a44:	6d665f6b 	stclvs	15, cr5, [r6, #-428]!	; 0xfffffe54
    3a48:	69730074 	ldmdbvs	r3!, {r2, r4, r5, r6}^
    3a4c:	6c00657a 	cfstr32vs	mvfx6, [r0], {122}	; 0x7a
    3a50:	20676e6f 	rsbcs	r6, r7, pc, ror #28
    3a54:	676e6f6c 	strbvs	r6, [lr, -ip, ror #30]!
    3a58:	736e7520 	cmnvc	lr, #134217728	; 0x8000000
    3a5c:	656e6769 	strbvs	r6, [lr, #-1897]!	; 0x769
    3a60:	6e692064 	cdpvs	0, 6, cr2, cr9, cr4, {3}
    3a64:	6f6d0074 	svcvs	0x006d0074
    3a68:	656c7564 	strbvs	r7, [ip, #-1380]!	; 0x564
    3a6c:	6365735f 	cmnvs	r5, #2080374785	; 0x7c000001
    3a70:	74615f74 	strbtvc	r5, [r1], #-3956	; 0xf74
    3a74:	00737274 	rsbseq	r7, r3, r4, ror r2
    3a78:	33666c45 	cmncc	r6, #17664	; 0x4500
    3a7c:	664f5f32 	undefined instruction 0x664f5f32
    3a80:	746b0066 	strbtvc	r0, [fp], #-102	; 0x66
    3a84:	00657079 	rsbeq	r7, r5, r9, ror r0
    3a88:	72747461 	rsbsvc	r7, r4, #1627389952	; 0x61000000
    3a8c:	74756269 	ldrbtvc	r6, [r5], #-617	; 0x269
    3a90:	5f5f0065 	svcpl	0x005f0065
    3a94:	63617274 	cmnvs	r1, #1073741831	; 0x40000007
    3a98:	696f7065 	stmdbvs	pc!, {r0, r2, r5, r6, ip, sp, lr}^
    3a9c:	6b5f746e 	blvs	17e0c5c <tz_ioctl+0x17e0a10>
    3aa0:	65657266 	strbvs	r7, [r5, #-614]!	; 0x266
    3aa4:	6d756e00 	ldclvs	14, cr6, [r5]
    3aa8:	6d79735f 	ldclvs	3, cr7, [r9, #-380]!	; 0xfffffe84
    3aac:	00626174 	rsbeq	r6, r2, r4, ror r1
    3ab0:	72745f5f 	rsbsvc	r5, r4, #380	; 0x17c
    3ab4:	70656361 	rsbvc	r6, r5, r1, ror #6
    3ab8:	746e696f 	strbtvc	r6, [lr], #-2415	; 0x96f
    3abc:	656d6b5f 	strbvs	r6, [sp, #-2911]!	; 0xb5f
    3ac0:	61635f6d 	cmnvs	r3, sp, ror #30
    3ac4:	5f656863 	svcpl	0x00656863
    3ac8:	6f6c6c61 	svcvs	0x006c6c61
    3acc:	6f6e5f63 	svcvs	0x006e5f63
    3ad0:	6e006564 	cfsh32vs	mvfx6, mvfx0, #52
    3ad4:	6f7a5f72 	svcvs	0x007a5f72
    3ad8:	0073656e 	rsbseq	r6, r3, lr, ror #10
    3adc:	65726e75 	ldrbvs	r6, [r2, #-3701]!	; 0xe75
    3ae0:	6e756667 	cdpvs	6, 7, cr6, cr5, cr7, {3}
    3ae4:	6f7a0063 	svcvs	0x007a0063
    3ae8:	705f656e 	subsvc	r6, pc, lr, ror #10
    3aec:	74616467 	strbtvc	r6, [r1], #-1127	; 0x467
    3af0:	646f6d00 	strbtvs	r6, [pc], #3328	; 3af8 <.debug_str+0x3af8>
    3af4:	5f656c75 	svcpl	0x00656c75
    3af8:	61726170 	cmnvs	r2, r0, ror r1
    3afc:	74615f6d 	strbtvc	r5, [r1], #-3949	; 0xf6d
    3b00:	00737274 	rsbseq	r7, r3, r4, ror r2
    3b04:	65766575 	ldrbvs	r6, [r6, #-1397]!	; 0x575
    3b08:	6f5f746e 	svcvs	0x005f746e
    3b0c:	70007370 	andvc	r7, r0, r0, ror r3
    3b10:	6d617261 	sfmvs	f7, 2, [r1, #-388]!	; (stclvs 2, cr7, [r1, #-388]!)	; 0xfffffe7c
    3b14:	7465675f 	strbtvc	r6, [r5], #-1887	; 0x75f
    3b18:	006e665f 	rsbeq	r6, lr, pc, asr r6
    3b1c:	6177736b 	cmnvs	r7, fp, ror #6
    3b20:	6d5f6470 	cfldrdvs	mvd6, [pc, #-448]	; 0xfffffe40
    3b24:	6f5f7861 	svcvs	0x005f7861
    3b28:	72656472 	rsbvc	r6, r5, #1912602624	; 0x72000000
    3b2c:	61747300 	cmnvs	r4, r0, lsl #6
    3b30:	725f6574 	subsvc	r6, pc, #486539264	; 0x1d000000
    3b34:	766f6d65 	strbtvc	r6, [pc], -r5, ror #26
    3b38:	65755f65 	ldrbvs	r5, [r5, #-3941]!	; 0xf65
    3b3c:	746e6576 	strbtvc	r6, [lr], #-1398	; 0x576
    3b40:	6e65735f 	mcrvs	3, 3, r7, cr5, cr15, {2}
    3b44:	726c0074 	rsbvc	r0, ip, #116	; 0x74
    3b48:	6f6c5f75 	svcvs	0x006c5f75
    3b4c:	7a006b63 	bvc	1e8e0 <tz_ioctl+0x1e694>
    3b50:	5f656e6f 	svcpl	0x00656e6f
    3b54:	72617473 	rsbvc	r7, r1, #1929379840	; 0x73000000
    3b58:	66705f74 	uhsub16vs	r5, r0, r4
    3b5c:	6f6b006e 	svcvs	0x006b006e
    3b60:	63656a62 	cmnvs	r5, #401408	; 0x62000
    3b64:	6f6d0074 	svcvs	0x006d0074
    3b68:	656c7564 	strbvs	r7, [ip, #-1380]!	; 0x564
    3b6c:	696e695f 	stmdbvs	lr!, {r0, r1, r2, r3, r4, r6, r8, fp, sp, lr}^
    3b70:	65700074 	ldrbvs	r0, [r0, #-116]!	; 0x74
    3b74:	70635f72 	rsbvc	r5, r3, r2, ror pc
    3b78:	61705f75 	cmnvs	r0, r5, ror pc
    3b7c:	65736567 	ldrbvs	r6, [r3, #-1383]!	; 0x567
    3b80:	65760074 	ldrbvs	r0, [r6, #-116]!	; 0x74
    3b84:	6f697372 	svcvs	0x00697372
    3b88:	6f6b006e 	svcvs	0x006b006e
    3b8c:	66006a62 	strvs	r6, [r0], -r2, ror #20
    3b90:	006c6c75 	rsbeq	r6, ip, r5, ror ip
    3b94:	656b5f5f 	strbvs	r5, [fp, #-3935]!	; 0xf5f
    3b98:	6c656e72 	stclvs	14, cr6, [r5], #-456	; 0xfffffe38
    3b9c:	6973735f 	ldmdbvs	r3!, {r0, r1, r2, r3, r4, r6, r8, r9, ip, sp, lr}^
    3ba0:	745f657a 	ldrbvc	r6, [pc], #1402	; 3ba8 <.debug_str+0x3ba8>
    3ba4:	646f6e00 	strbtvs	r6, [pc], #3584	; 3bac <.debug_str+0x3bac>
    3ba8:	74735f65 	ldrbtvc	r5, [r3], #-3941	; 0xf65
    3bac:	5f747261 	svcpl	0x00747261
    3bb0:	006e6670 	rsbeq	r6, lr, r0, ror r6
    3bb4:	74696e69 	strbtvc	r6, [r9], #-3689	; 0xe69
    3bb8:	67657200 	strbvs	r7, [r5, -r0, lsl #4]!
    3bbc:	636e7566 	cmnvs	lr, #427819008	; 0x19800000
    3bc0:	5f687300 	svcpl	0x00687300
    3bc4:	7366666f 	cmnvc	r6, #116391936	; 0x6f00000
    3bc8:	74007465 	strvc	r7, [r0], #-1125	; 0x465
    3bcc:	746e6961 	strbtvc	r6, [lr], #-2401	; 0x961
    3bd0:	65700073 	ldrbvs	r0, [r0, #-115]!	; 0x73
    3bd4:	7a006d72 	bvc	1f1a4 <tz_ioctl+0x1ef58>
    3bd8:	5f656e6f 	svcpl	0x00656e6f
    3bdc:	6c636572 	cfstr64vs	mvdx6, [r3], #-456	; 0xfffffe38
    3be0:	5f6d6961 	svcpl	0x006d6961
    3be4:	74617473 	strbtvc	r7, [r1], #-1139	; 0x473
    3be8:	5f726e00 	svcpl	0x00726e00
    3bec:	65766173 	ldrbvs	r6, [r6, #-371]!	; 0x173
    3bf0:	63735f64 	cmnvs	r3, #400	; 0x190
    3bf4:	6b006e61 	blvs	1f580 <tz_ioctl+0x1f334>
    3bf8:	61726170 	cmnvs	r2, r0, ror r1
    3bfc:	72615f6d 	rsbvc	r5, r1, #436	; 0x1b4
    3c00:	00796172 	rsbseq	r6, r9, r2, ror r1
    3c04:	656d616e 	strbvs	r6, [sp, #-366]!	; 0x16e
    3c08:	6c657200 	sfmvs	f7, 2, [r5]	; (stclvs 2, cr7, [r5])
    3c0c:	65736165 	ldrbvs	r6, [r3, #-357]!	; 0x165
    3c10:	646f6d00 	strbtvs	r6, [pc], #3328	; 3c18 <.debug_str+0x3c18>
    3c14:	5f656c75 	svcpl	0x00656c75
    3c18:	74617473 	strbtvc	r7, [r1], #-1139	; 0x473
    3c1c:	68730065 	ldmdavs	r3!, {r0, r2, r5, r6}^
    3c20:	2074726f 	rsbscs	r7, r4, pc, ror #4
    3c24:	00746e69 	rsbseq	r6, r4, r9, ror #28
    3c28:	61636f6c 	cmnvs	r3, ip, ror #30
    3c2c:	6f6e5f6c 	svcvs	0x006e5f6c
    3c30:	5f006564 	svcpl	0x00006564
    3c34:	646f6d5f 	strbtvs	r6, [pc], #3423	; 3c3c <.debug_str+0x3c3c>
    3c38:	7265765f 	rsbvc	r7, r5, #99614720	; 0x5f00000
    3c3c:	6967616d 	stmdbvs	r7!, {r0, r2, r3, r5, r6, r8, sp, lr}^
    3c40:	6f003563 	svcvs	0x00003563
    3c44:	69736a62 	ldmdbvs	r3!, {r1, r5, r6, r9, fp, sp, lr}^
    3c48:	6700657a 	smlsdxvs	r0, sl, r5, r6
    3c4c:	735f6c70 	cmpvc	pc, #28672	; 0x7000
    3c50:	00736d79 	rsbseq	r6, r3, r9, ror sp
    3c54:	73637263 	cmnvc	r3, #805306374	; 0x30000006
    3c58:	646f6d00 	strbtvs	r6, [pc], #3328	; 3c60 <.debug_str+0x3c60>
    3c5c:	6c650065 	stclvs	0, cr0, [r5], #-404	; 0xfffffe6c
    3c60:	73006d65 	movwvc	r6, #3429	; 0xd65
    3c64:	65726f74 	ldrbvs	r6, [r2, #-3956]!	; 0xf74
    3c68:	6d756e00 	ldclvs	14, cr6, [r5]
    3c6c:	6c70675f 	ldclvs	7, cr6, [r0], #-380	; 0xfffffe84
    3c70:	6d79735f 	ldclvs	3, cr7, [r9, #-380]!	; 0xfffffe84
    3c74:	5f5f0073 	svcpl	0x005f0073
    3c78:	63617274 	cmnvs	r1, #1073741831	; 0x40000007
    3c7c:	696f7065 	stmdbvs	pc!, {r0, r2, r5, r6, ip, sp, lr}^
    3c80:	6d5f746e 	cfldrdvs	mvd7, [pc, #-440]	; 0xfffffe48
    3c84:	61705f6d 	cmnvs	r0, sp, ror #30
    3c88:	665f6567 	ldrbvs	r6, [pc], -r7, ror #10
    3c8c:	5f656572 	svcpl	0x00656572
    3c90:	65726964 	ldrbvs	r6, [r2, #-2404]!	; 0x964
    3c94:	6e007463 	cdpvs	4, 0, cr7, cr0, cr3, {3}
    3c98:	5f65646f 	svcpl	0x0065646f
    3c9c:	656e6f7a 	strbvs	r6, [lr, #-3962]!	; 0xf7a
    3ca0:	7473696c 	ldrbtvc	r6, [r3], #-2412	; 0x96c
    3ca4:	682f0073 	stmdavs	pc!, {r0, r1, r4, r5, r6}
    3ca8:	2f656d6f 	svccs	0x00656d6f
    3cac:	6a6f756c 	bvs	1be1264 <tz_ioctl+0x1be1018>
    3cb0:	2f676e69 	svccs	0x00676e69
    3cb4:	72616873 	rsbvc	r6, r1, #7536640	; 0x730000
    3cb8:	72702f65 	rsbsvc	r2, r0, #404	; 0x194
    3cbc:	63656a6f 	cmnvs	r5, #454656	; 0x6f000
    3cc0:	322f7374 	eorcc	r7, pc, #-805306367	; 0xd0000001
    3cc4:	2d343130 	ldfcss	f3, [r4, #-192]!	; 0xffffff40
    3cc8:	312d3130 	teqcc	sp, r0, lsr r1
    3ccc:	72742f36 	rsbsvc	r2, r4, #216	; 0xd8
    3cd0:	7a747375 	bvc	1d20aac <tz_ioctl+0x1d20860>
    3cd4:	2f656e6f 	svccs	0x00656e6f
    3cd8:	645f7a74 	ldrbvs	r7, [pc], #2676	; 3ce0 <.debug_str+0x3ce0>
    3cdc:	65766972 	ldrbvs	r6, [r6, #-2418]!	; 0x972
    3ce0:	7a742f72 	bvc	1d0fab0 <tz_ioctl+0x1d0f864>
    3ce4:	6972645f 	ldmdbvs	r2!, {r0, r1, r2, r3, r4, r6, sl, sp, lr}^
    3ce8:	2e726576 	mrccs	5, 3, r6, cr2, cr6, {3}
    3cec:	2e646f6d 	cdpcs	15, 6, cr6, cr4, cr13, {3}
    3cf0:	69660063 	stmdbvs	r6!, {r0, r1, r5, r6}^
    3cf4:	7265746c 	rsbvc	r7, r5, #1811939328	; 0x6c000000
    3cf8:	61727400 	cmnvs	r2, r0, lsl #8
    3cfc:	655f6563 	ldrbvs	r6, [pc, #-1379]	; 37a1 <.debug_str+0x37a1>
    3d00:	746e6576 	strbtvc	r6, [lr], #-1398	; 0x576
    3d04:	74730073 	ldrbtvc	r0, [r3], #-115	; 0x73
    3d08:	6d616e5f 	stclvs	14, cr6, [r1, #-380]!	; 0xfffffe84
    3d0c:	6f6d0065 	svcvs	0x006d0065
    3d10:	656c7564 	strbvs	r7, [ip, #-1380]!	; 0x564
    3d14:	626f6b5f 	rsbvs	r6, pc, #97280	; 0x17c00
    3d18:	7463656a 	strbtvc	r6, [r3], #-1386	; 0x56a
    3d1c:	776e7500 	strbvc	r7, [lr, -r0, lsl #10]!
    3d20:	5f646e69 	svcpl	0x00646e69
    3d24:	69766564 	ldmdbvs	r6!, {r2, r5, r6, r8, sl, sp, lr}^
    3d28:	0074696e 	rsbseq	r6, r4, lr, ror #18
    3d2c:	5f706667 	svcpl	0x00706667
    3d30:	6f6e0074 	svcvs	0x006e0074
    3d34:	705f6564 	subsvc	r6, pc, r4, ror #10
    3d38:	65736572 	ldrbvs	r6, [r3, #-1394]!	; 0x572
    3d3c:	705f746e 	subsvc	r7, pc, lr, ror #8
    3d40:	73656761 	cmnvc	r5, #25427968	; 0x1840000
    3d44:	6c706700 	ldclvs	7, cr6, [r0]
    3d48:	7475665f 	ldrbtvc	r6, [r5], #-1631	; 0x65f
    3d4c:	5f657275 	svcpl	0x00657275
    3d50:	736d7973 	cmnvc	sp, #1884160	; 0x1cc000
    3d54:	61747300 	cmnvs	r4, r0, lsl #6
    3d58:	615f6574 	cmpvs	pc, r4, ror r5
    3d5c:	755f6464 	ldrbvc	r6, [pc, #-1124]	; 3900 <.debug_str+0x3900>
    3d60:	6e657665 	cdpvs	6, 6, cr7, cr5, cr5, {3}
    3d64:	65735f74 	ldrbvs	r5, [r3, #-3956]!	; 0xf74
    3d68:	7a00746e 	bvc	20f28 <tz_ioctl+0x20cdc>
    3d6c:	6361636c 	cmnvs	r1, #-1342177279	; 0xb0000001
    3d70:	705f6568 	subsvc	r6, pc, r8, ror #10
    3d74:	6b007274 	blvs	2074c <tz_ioctl+0x20500>
    3d78:	5f6d656d 	svcpl	0x006d656d
    3d7c:	68636163 	stmdavs	r3!, {r0, r1, r5, r6, r8, sp, lr}^
    3d80:	6f6e5f65 	svcvs	0x006e5f65
    3d84:	6c006564 	cfstr32vs	mvfx6, [r0], {100}	; 0x64
    3d88:	73747369 	cmnvc	r4, #-1543503871	; 0xa4000001
    3d8c:	646f6d00 	strbtvs	r6, [pc], #3328	; 3d94 <.debug_str+0x3d94>
    3d90:	5f656c75 	svcpl	0x00656c75
    3d94:	72747461 	rsbsvc	r7, r4, #1627389952	; 0x61000000
    3d98:	74756269 	ldrbtvc	r6, [r5], #-617	; 0x269
    3d9c:	72660065 	rsbvc	r0, r6, #101	; 0x65
    3da0:	6b006565 	blvs	1d33c <tz_ioctl+0x1d0f0>
    3da4:	5f6a626f 	svcpl	0x006a626f
    3da8:	65707974 	ldrbvs	r7, [r0, #-2420]!	; 0x974
    3dac:	69617700 	stmdbvs	r1!, {r8, r9, sl, ip, sp, lr}^
    3db0:	75715f74 	ldrbvc	r5, [r1, #-3956]!	; 0xf74
    3db4:	5f657565 	svcpl	0x00657565
    3db8:	64616568 	strbtvs	r6, [r1], #-1384	; 0x568
    3dbc:	7300745f 	movwvc	r7, #1119	; 0x45f
    3dc0:	74726f68 	ldrbtvc	r6, [r2], #-3944	; 0xf68
    3dc4:	736e7520 	cmnvc	lr, #134217728	; 0x8000000
    3dc8:	656e6769 	strbvs	r6, [lr, #-1897]!	; 0x769
    3dcc:	6e692064 	cdpvs	0, 6, cr2, cr9, cr4, {3}
    3dd0:	616d0074 	smcvs	53252	; 0xd004
    3dd4:	00636967 	rsbeq	r6, r3, r7, ror #18
    3dd8:	6d656d6b 	stclvs	13, cr6, [r5, #-428]!	; 0xfffffe54
    3ddc:	6361635f 	cmnvs	r1, #2080374785	; 0x7c000001
    3de0:	6f5f6568 	svcvs	0x005f6568
    3de4:	72656472 	rsbvc	r6, r5, #1912602624	; 0x72000000
    3de8:	6a626f5f 	bvs	189fb6c <tz_ioctl+0x189f920>
    3dec:	73746365 	cmnvc	r4, #-1811939327	; 0x94000001
    3df0:	77617200 	strbvc	r7, [r1, -r0, lsl #4]!
    3df4:	636f6c5f 	cmnvs	pc, #24320	; 0x5f00
    3df8:	7264006b 	rsbvc	r0, r4, #107	; 0x6b
    3dfc:	72657669 	rsbvc	r7, r5, #110100480	; 0x6900000
    3e00:	69645f73 	stmdbvs	r4!, {r0, r1, r4, r5, r6, r8, r9, sl, fp, ip, lr}^
    3e04:	74610072 	strbtvc	r0, [r1], #-114	; 0x72
    3e08:	63696d6f 	cmnvs	r9, #7104	; 0x1bc0
    3e0c:	7a00745f 	bvc	20f90 <tz_ioctl+0x20d44>
    3e10:	6c656e6f 	stclvs	14, cr6, [r5], #-444	; 0xfffffe44
    3e14:	5f747369 	svcpl	0x00747369
    3e18:	68636163 	stmdavs	r3!, {r0, r1, r5, r6, r8, sp, lr}^
    3e1c:	5f5f0065 	svcpl	0x005f0065
    3e20:	63617274 	cmnvs	r1, #1073741831	; 0x40000007
    3e24:	696f7065 	stmdbvs	pc!, {r0, r2, r5, r6, ip, sp, lr}^
    3e28:	6d5f746e 	cfldrdvs	mvd7, [pc, #-440]	; 0xfffffe48
    3e2c:	6c75646f 	cfldrdvs	mvd6, [r5], #-444	; 0xfffffe44
    3e30:	72665f65 	rsbvc	r5, r6, #404	; 0x194
    3e34:	63006565 	movwvs	r6, #1381	; 0x565
    3e38:	5f65726f 	svcpl	0x0065726f
    3e3c:	5f6d756e 	svcpl	0x006d756e
    3e40:	736d7973 	cmnvc	sp, #1884160	; 0x1cc000
    3e44:	656d6b00 	strbvs	r6, [sp, #-2816]!	; 0xb00
    3e48:	61635f6d 	cmnvs	r3, sp, ror #30
    3e4c:	5f656863 	svcpl	0x00656863
    3e50:	00757063 	rsbseq	r7, r5, r3, rrx
    3e54:	74697865 	strbtvc	r7, [r9], #-2149	; 0x865
    3e58:	646f6d00 	strbtvs	r6, [pc], #3328	; 3e60 <.debug_str+0x3e60>
    3e5c:	6372615f 	cmnvs	r2, #-1073741801	; 0xc0000017
    3e60:	70735f68 	rsbsvc	r5, r3, r8, ror #30
    3e64:	66696365 	strbtvs	r6, [r9], -r5, ror #6
    3e68:	69006369 	stmdbvs	r0, {r0, r3, r5, r6, r8, r9, sp, lr}
    3e6c:	7463616e 	strbtvc	r6, [r3], #-366	; 0x16e
    3e70:	5f657669 	svcpl	0x00657669
    3e74:	69746172 	ldmdbvs	r4!, {r1, r4, r5, r6, r8, sp, lr}^
    3e78:	756e006f 	strbvc	r0, [lr, #-111]!	; 0x6f
    3e7c:	74635f6d 	strbtvc	r5, [r3], #-3949	; 0xf6d
    3e80:	0073726f 	rsbseq	r7, r3, pc, ror #4
    3e84:	7478656e 	ldrbtvc	r6, [r8], #-1390	; 0x56e
    3e88:	745f5f00 	ldrbvc	r5, [pc], #3840	; 3e90 <.debug_str+0x3e90>
    3e8c:	65636172 	strbvs	r6, [r3, #-370]!	; 0x172
    3e90:	6e696f70 	mcrvs	15, 3, r6, cr9, cr0, {3}
    3e94:	6d6d5f74 	stclvs	15, cr5, [sp, #-464]!	; 0xfffffe30
    3e98:	6761705f 	undefined instruction 0x6761705f
    3e9c:	63705f65 	cmnvs	r0, #404	; 0x194
    3ea0:	645f7570 	ldrbvs	r7, [pc], #1392	; 3ea8 <.debug_str+0x3ea8>
    3ea4:	6e696172 	mcrvs	1, 3, r6, cr9, cr2, {3}
    3ea8:	656d6b00 	strbvs	r6, [sp, #-2816]!	; 0xb00
    3eac:	61635f6d 	cmnvs	r3, sp, ror #30
    3eb0:	00656863 	rsbeq	r6, r5, r3, ror #16
    3eb4:	76657270 	undefined instruction 0x76657270
    3eb8:	5f747300 	svcpl	0x00747300
    3ebc:	6568746f 	strbvs	r7, [r8, #-1135]!	; 0x46f
    3ec0:	74630072 	strbtvc	r0, [r3], #-114	; 0x72
    3ec4:	0073726f 	rsbseq	r7, r3, pc, ror #4
    3ec8:	5f776e75 	svcpl	0x00776e75
    3ecc:	5f636573 	svcpl	0x00636573
    3ed0:	69766564 	ldmdbvs	r6!, {r2, r5, r6, r8, sl, sp, lr}^
    3ed4:	0074696e 	rsbseq	r6, r4, lr, ror #18
    3ed8:	5f6c7067 	svcpl	0x006c7067
    3edc:	73637263 	cmnvc	r3, #805306374	; 0x30000006
	...

Disassembly of section .comment:

00000000 <.comment>:
display_uuid():
/home/luojing/share/projects/2014-01-16/trustzone/tz_driver/tz_driver.c:44
   0:	43434700 	movtmi	r4, #14080	; 0x3700
   4:	5328203a 	teqpl	r8, #58	; 0x3a
   8:	6372756f 	cmnvs	r2, #465567744	; 0x1bc00000
   c:	20797265 	rsbscs	r7, r9, r5, ror #4
  10:	202b2b47 	eorcs	r2, fp, r7, asr #22
  14:	6574694c 	ldrbvs	r6, [r4, #-2380]!	; 0x94c
  18:	30303220 	eorscc	r3, r0, r0, lsr #4
/home/luojing/share/projects/2014-01-16/trustzone/tz_driver/tz_driver.c:46
  1c:	2d337139 	ldfcss	f7, [r3, #-228]!	; 0xffffff1c
  20:	20293736 	eorcs	r3, r9, r6, lsr r7
  24:	2e342e34 	mrccs	14, 1, r2, cr4, cr4, {1}
  28:	47000031 	smladxmi	r0, r1, r0, r0
  2c:	203a4343 	eorscs	r4, sl, r3, asr #6
  30:	756f5328 	strbvc	r5, [pc, #-808]!	; fffffd10 <tz_ioctl+0xfffffac4>
  34:	72656372 	rsbvc	r6, r5, #-939524095	; 0xc8000001
  38:	2b472079 	blcs	11c8224 <tz_ioctl+0x11c7fd8>
  3c:	694c202b 	stmdbvs	ip, {r0, r1, r3, r5, sp}^
  40:	32206574 	eorcc	r6, r0, #486539264	; 0x1d000000
  44:	71393030 	teqvc	r9, r0, lsr r0
  48:	37362d33 	undefined instruction 0x37362d33
  4c:	2e342029 	cdpcs	0, 3, cr2, cr4, cr9, {1}
  50:	00312e34 	eorseq	r2, r1, r4, lsr lr

Disassembly of section .ARM.attributes:

00000000 <.ARM.attributes>:
/home/luojing/share/projects/2014-01-16/trustzone/tz_driver/tz_driver.c:44
   0:	00002c41 	andeq	r2, r0, r1, asr #24
   4:	61656100 	cmnvs	r5, r0, lsl #2
   8:	01006962 	tsteq	r0, r2, ror #18
   c:	00000022 	andeq	r0, r0, r2, lsr #32
  10:	412d3705 	teqmi	sp, r5, lsl #14
  14:	070a0600 	streq	r0, [sl, -r0, lsl #12]
  18:	09010841 	stmdbeq	r1, {r0, r6, fp}
/home/luojing/share/projects/2014-01-16/trustzone/tz_driver/tz_driver.c:46
  1c:	14041202 	strne	r1, [r4], #-514	; 0x202
  20:	17011501 	strne	r1, [r1, -r1, lsl #10]
  24:	19011803 	stmdbne	r1, {r0, r1, fp, ip}
  28:	1e021a01 	vmlane.f32	s2, s4, s2
  2c:	Address 0x0000002c is out of bounds.


Disassembly of section .debug_pubnames:

00000000 <.debug_pubnames>:
/home/luojing/share/projects/2014-01-16/trustzone/tz_driver/tz_driver.c:44
   0:	00000020 	andeq	r0, r0, r0, lsr #32
   4:	6cba0002 	ldcvs	0, cr0, [sl], #8
   8:	170c0000 	strne	r0, [ip, -r0]
   c:	16f90000 	ldrbtne	r0, [r9], r0
  10:	5f5f0000 	svcpl	0x005f0000
  14:	73696874 	cmnvc	r9, #7602176	; 0x740000
  18:	646f6d5f 	strbtvs	r6, [pc], #3423	; 20 <.debug_pubnames+0x20>
/home/luojing/share/projects/2014-01-16/trustzone/tz_driver/tz_driver.c:46
  1c:	00656c75 	rsbeq	r6, r5, r5, ror ip
  20:	00000000 	andeq	r0, r0, r0
