
tz_driver.ko:     file format elf32-littlearm
tz_driver.ko

Sections:
Idx Name          Size      VMA       LMA       File off  Algn
  0 .text         00000728  00000000  00000000  00000034  2**2
                  CONTENTS, ALLOC, LOAD, RELOC, READONLY, CODE
  1 .exit.text    00000080  00000000  00000000  0000075c  2**2
                  CONTENTS, ALLOC, LOAD, RELOC, READONLY, CODE
  2 .init.text    0000015c  00000000  00000000  000007dc  2**2
                  CONTENTS, ALLOC, LOAD, RELOC, READONLY, CODE
  3 .ARM.extab.exit.text 0000000c  00000000  00000000  00000938  2**2
                  CONTENTS, ALLOC, LOAD, READONLY, DATA
  4 .ARM.exidx.exit.text 00000008  00000000  00000000  00000944  2**2
                  CONTENTS, ALLOC, LOAD, RELOC, READONLY, DATA
  5 .ARM.extab    00000030  00000000  00000000  0000094c  2**2
                  CONTENTS, ALLOC, LOAD, READONLY, DATA
  6 .ARM.exidx    00000020  00000000  00000000  0000097c  2**2
                  CONTENTS, ALLOC, LOAD, RELOC, READONLY, DATA
  7 .ARM.extab.init.text 0000000c  00000000  00000000  0000099c  2**2
                  CONTENTS, ALLOC, LOAD, READONLY, DATA
  8 .ARM.exidx.init.text 00000008  00000000  00000000  000009a8  2**2
                  CONTENTS, ALLOC, LOAD, RELOC, READONLY, DATA
  9 .modinfo      00000074  00000000  00000000  000009b0  2**2
                  CONTENTS, ALLOC, LOAD, READONLY, DATA
 10 .rodata.str1.1 0000038b  00000000  00000000  00000a24  2**0
                  CONTENTS, ALLOC, LOAD, READONLY, DATA
 11 .data         00000068  00000000  00000000  00000db0  2**2
                  CONTENTS, ALLOC, LOAD, RELOC, DATA
 12 .gnu.linkonce.this_module 0000015c  00000000  00000000  00000e18  2**2
                  CONTENTS, ALLOC, LOAD, RELOC, DATA, LINK_ONCE_DISCARD
 13 .note.gnu.build-id 00000024  00000000  00000000  00000f74  2**2
                  CONTENTS, ALLOC, LOAD, READONLY, DATA, LINK_ONCE_SAME_CONTENTS
 14 .bss          00000048  00000000  00000000  00000f98  2**2
                  ALLOC
 15 .debug_abbrev 000006d3  00000000  00000000  00000f98  2**0
                  CONTENTS, READONLY, DEBUGGING
 16 .debug_info   000083c6  00000000  00000000  0000166b  2**0
                  CONTENTS, RELOC, READONLY, DEBUGGING
 17 .debug_line   0000098c  00000000  00000000  00009a31  2**0
                  CONTENTS, RELOC, READONLY, DEBUGGING
 18 .debug_frame  00000124  00000000  00000000  0000a3c0  2**2
                  CONTENTS, RELOC, READONLY, DEBUGGING
 19 .debug_loc    000004cf  00000000  00000000  0000a4e4  2**0
                  CONTENTS, RELOC, READONLY, DEBUGGING
 20 .debug_aranges 00000030  00000000  00000000  0000a9b3  2**0
                  CONTENTS, RELOC, READONLY, DEBUGGING
 21 .debug_ranges 000002a0  00000000  00000000  0000a9e3  2**0
                  CONTENTS, RELOC, READONLY, DEBUGGING
 22 .debug_str    00003ee1  00000000  00000000  0000ac83  2**0
                  CONTENTS, READONLY, DEBUGGING
 23 .comment      00000054  00000000  00000000  0000eb64  2**0
                  CONTENTS, READONLY
 24 .note.GNU-stack 00000000  00000000  00000000  0000ebb8  2**0
                  CONTENTS, READONLY
 25 .ARM.attributes 0000002d  00000000  00000000  0000ebb8  2**0
                  CONTENTS, READONLY
 26 .debug_pubnames 00000024  00000000  00000000  0000ebe5  2**0
                  CONTENTS, RELOC, READONLY, DEBUGGING
SYMBOL TABLE:
00000000 l    d  .text	00000000 .text
00000000 l    d  .exit.text	00000000 .exit.text
00000000 l    d  .init.text	00000000 .init.text
00000000 l    d  .ARM.extab.exit.text	00000000 .ARM.extab.exit.text
00000000 l    d  .ARM.exidx.exit.text	00000000 .ARM.exidx.exit.text
00000000 l    d  .ARM.extab	00000000 .ARM.extab
00000000 l    d  .ARM.exidx	00000000 .ARM.exidx
00000000 l    d  .ARM.extab.init.text	00000000 .ARM.extab.init.text
00000000 l    d  .ARM.exidx.init.text	00000000 .ARM.exidx.init.text
00000000 l    d  .modinfo	00000000 .modinfo
00000000 l    d  .rodata.str1.1	00000000 .rodata.str1.1
00000000 l    d  .data	00000000 .data
00000000 l    d  .gnu.linkonce.this_module	00000000 .gnu.linkonce.this_module
00000000 l    d  .note.gnu.build-id	00000000 .note.gnu.build-id
00000000 l    d  .bss	00000000 .bss
00000000 l    d  .debug_abbrev	00000000 .debug_abbrev
00000000 l    d  .debug_info	00000000 .debug_info
00000000 l    d  .debug_line	00000000 .debug_line
00000000 l    d  .debug_frame	00000000 .debug_frame
00000000 l    d  .debug_loc	00000000 .debug_loc
00000000 l    d  .debug_aranges	00000000 .debug_aranges
00000000 l    d  .debug_ranges	00000000 .debug_ranges
00000000 l    d  .debug_str	00000000 .debug_str
00000000 l    d  .comment	00000000 .comment
00000000 l    d  .note.GNU-stack	00000000 .note.GNU-stack
00000000 l    d  .ARM.attributes	00000000 .ARM.attributes
00000000 l    d  .debug_pubnames	00000000 .debug_pubnames
00000000 l    df *ABS*	00000000 tz_driver.c
00000000 l     F .exit.text	00000080 tz_exit
00000000 l     F .text	000000f0 display_uuid
000000f0 l     F .text	00000054 tz_release
00000000 l     F .init.text	0000015c tz_init
00000144 l     F .text	00000108 tz_open
0000024c l     F .text	000004dc tz_ioctl
00000000 l     O .modinfo	00000022 __mod_description342
00000024 l     O .modinfo	00000015 __mod_license341
00000000 l     O .data	00000068 dev_fops
00000000 l     O .bss	0000003c tz_dev
0000003c l     O .bss	00000004 tz_class
00000040 l     O .bss	00000004 dev_num
00000044 l     O .bss	00000000 __key.14618
00000044 l     O .bss	00000004 tz_device
00000000 l    df *ABS*	00000000 tz_driver.mod.c
0000003c l     O .modinfo	00000009 __module_depends
00000048 l     O .modinfo	0000002c __mod_vermagic5
00000000         *UND*	00000000 alloc_chrdev_region
00000000         *UND*	00000000 __class_create
00000000 g     O .gnu.linkonce.this_module	0000015c __this_module
00000000         *UND*	00000000 class_destroy
00000000 g     F .exit.text	00000080 cleanup_module
00000000         *UND*	00000000 kfree
00000000 g     F .init.text	0000015c init_module
00000000         *UND*	00000000 kmem_cache_alloc
00000000         *UND*	00000000 cdev_add
00000000         *UND*	00000000 preempt_schedule
00000000         *UND*	00000000 generate_random_uuid
00000000         *UND*	00000000 device_create
00000000         *UND*	00000000 printk
00000000         *UND*	00000000 __memzero
00000000         *UND*	00000000 sprintf
00000000         *UND*	00000000 unregister_chrdev_region
00000000         *UND*	00000000 __gnu_mcount_nc
00000000         *UND*	00000000 device_destroy
00000000         *UND*	00000000 __tracepoint_kmalloc
00000000         *UND*	00000000 __aeabi_unwind_cpp_pr1
00000000         *UND*	00000000 __copy_to_user
00000000         *UND*	00000000 __copy_from_user
00000000         *UND*	00000000 cdev_init
00000000         *UND*	00000000 __kmalloc
00000000         *UND*	00000000 kmalloc_caches
00000000         *UND*	00000000 cdev_del



Disassembly of section .text:

00000000 <display_uuid>:
display_uuid():
/home/luojing/share/projects/2014-01-16/trustzone/tz_driver/tz_driver.c:44
   0:	e1a0c00d 	mov	ip, sp
   4:	e92ddff0 	push	{r4, r5, r6, r7, r8, r9, sl, fp, ip, lr, pc}
   8:	e24cb004 	sub	fp, ip, #4
   c:	e24dd084 	sub	sp, sp, #132	; 0x84
  10:	e92d4000 	push	{lr}
  14:	ebfffffe 	bl	0 <__gnu_mcount_nc>
  18:	e1a01000 	mov	r1, r0
/home/luojing/share/projects/2014-01-16/trustzone/tz_driver/tz_driver.c:46
  1c:	e5d1c00f 	ldrb	ip, [r1, #15]
  20:	e24b405c 	sub	r4, fp, #92	; 0x5c
  24:	e5d02000 	ldrb	r2, [r0]
  28:	e5d03001 	ldrb	r3, [r0, #1]
  2c:	e1a00004 	mov	r0, r4
  30:	e50bc074 	str	ip, [fp, #-116]	; 0x74
  34:	e5d1c009 	ldrb	ip, [r1, #9]
  38:	e5d16002 	ldrb	r6, [r1, #2]
  3c:	e5d15003 	ldrb	r5, [r1, #3]
  40:	e5d1e004 	ldrb	lr, [r1, #4]
  44:	e5d17005 	ldrb	r7, [r1, #5]
  48:	e5d18006 	ldrb	r8, [r1, #6]
  4c:	e5d1a007 	ldrb	sl, [r1, #7]
  50:	e5d19008 	ldrb	r9, [r1, #8]
  54:	e50bc060 	str	ip, [fp, #-96]	; 0x60
  58:	e5d1c00a 	ldrb	ip, [r1, #10]
  5c:	e50bc064 	str	ip, [fp, #-100]	; 0x64
  60:	e5d1c00b 	ldrb	ip, [r1, #11]
  64:	e50bc068 	str	ip, [fp, #-104]	; 0x68
  68:	e5d1c00c 	ldrb	ip, [r1, #12]
  6c:	e50bc06c 	str	ip, [fp, #-108]	; 0x6c
  70:	e5d1c00d 	ldrb	ip, [r1, #13]
  74:	e50bc070 	str	ip, [fp, #-112]	; 0x70
  78:	e5d1c00e 	ldrb	ip, [r1, #14]
  7c:	e58de008 	str	lr, [sp, #8]
  80:	e51be060 	ldr	lr, [fp, #-96]	; 0x60
  84:	e58d6000 	str	r6, [sp]
  88:	e58d5004 	str	r5, [sp, #4]
  8c:	e58de01c 	str	lr, [sp, #28]
  90:	e51be064 	ldr	lr, [fp, #-100]	; 0x64
  94:	e58d700c 	str	r7, [sp, #12]
  98:	e58d8010 	str	r8, [sp, #16]
  9c:	e58de020 	str	lr, [sp, #32]
  a0:	e51be068 	ldr	lr, [fp, #-104]	; 0x68
  a4:	e58da014 	str	sl, [sp, #20]
  a8:	e58d9018 	str	r9, [sp, #24]
  ac:	e58de024 	str	lr, [sp, #36]	; 0x24
  b0:	e51be06c 	ldr	lr, [fp, #-108]	; 0x6c
  b4:	e58dc030 	str	ip, [sp, #48]	; 0x30
  b8:	e51bc074 	ldr	ip, [fp, #-116]	; 0x74
  bc:	e58de028 	str	lr, [sp, #40]	; 0x28
  c0:	e51be070 	ldr	lr, [fp, #-112]	; 0x70
  c4:	e59f101c 	ldr	r1, [pc, #28]	; e8 <display_uuid+0xe8>
  c8:	e58dc034 	str	ip, [sp, #52]	; 0x34
  cc:	e58de02c 	str	lr, [sp, #44]	; 0x2c
  d0:	ebfffffe 	bl	0 <sprintf>
/home/luojing/share/projects/2014-01-16/trustzone/tz_driver/tz_driver.c:50
  d4:	e1a01004 	mov	r1, r4
  d8:	e59f000c 	ldr	r0, [pc, #12]	; ec <display_uuid+0xec>
  dc:	ebfffffe 	bl	0 <printk>
/home/luojing/share/projects/2014-01-16/trustzone/tz_driver/tz_driver.c:51
  e0:	e24bd028 	sub	sp, fp, #40	; 0x28
  e4:	e89daff0 	ldm	sp, {r4, r5, r6, r7, r8, r9, sl, fp, sp, pc}
  e8:	00000041 	andeq	r0, r0, r1, asr #32
  ec:	00000076 	andeq	r0, r0, r6, ror r0

000000f0 <tz_release>:
tz_release():
/home/luojing/share/projects/2014-01-16/trustzone/tz_driver/tz_driver.c:199
  f0:	e1a0c00d 	mov	ip, sp
  f4:	e92dd818 	push	{r3, r4, fp, ip, lr, pc}
  f8:	e24cb004 	sub	fp, ip, #4
  fc:	e92d4000 	push	{lr}
 100:	ebfffffe 	bl	0 <__gnu_mcount_nc>
 104:	e59f0030 	ldr	r0, [pc, #48]	; 13c <tz_release+0x4c>
 108:	e1a04001 	mov	r4, r1
/home/luojing/share/projects/2014-01-16/trustzone/tz_driver/tz_driver.c:201
 10c:	ebfffffe 	bl	0 <printk>
/home/luojing/share/projects/2014-01-16/trustzone/tz_driver/tz_driver.c:202
 110:	e5940088 	ldr	r0, [r4, #136]	; 0x88
 114:	e3500000 	cmp	r0, #0
 118:	0a000003 	beq	12c <tz_release+0x3c>
/home/luojing/share/projects/2014-01-16/trustzone/tz_driver/tz_driver.c:203
 11c:	ebffffb7 	bl	0 <display_uuid>
/home/luojing/share/projects/2014-01-16/trustzone/tz_driver/tz_driver.c:204
 120:	e5940088 	ldr	r0, [r4, #136]	; 0x88
 124:	ebfffffe 	bl	0 <kfree>
 128:	ea000001 	b	134 <tz_release+0x44>
/home/luojing/share/projects/2014-01-16/trustzone/tz_driver/tz_driver.c:207
 12c:	e59f000c 	ldr	r0, [pc, #12]	; 140 <tz_release+0x50>
 130:	ebfffffe 	bl	0 <printk>
/home/luojing/share/projects/2014-01-16/trustzone/tz_driver/tz_driver.c:210
 134:	e3a00000 	mov	r0, #0
 138:	e89da818 	ldm	sp, {r3, r4, fp, sp, pc}
 13c:	0000007c 	andeq	r0, r0, ip, ror r0
 140:	0000008d 	andeq	r0, r0, sp, lsl #1

00000144 <tz_open>:
tz_open():
/home/luojing/share/projects/2014-01-16/trustzone/tz_driver/tz_driver.c:213
 144:	e1a0c00d 	mov	ip, sp
 148:	e92dd9f0 	push	{r4, r5, r6, r7, r8, fp, ip, lr, pc}
 14c:	e24cb004 	sub	fp, ip, #4
 150:	e24dd00c 	sub	sp, sp, #12
 154:	e92d4000 	push	{lr}
 158:	ebfffffe 	bl	0 <__gnu_mcount_nc>
kmem_cache_alloc_notrace():
 15c:	e59f00d4 	ldr	r0, [pc, #212]	; 238 <tz_open+0xf4>
tz_open():
 160:	e1a08001 	mov	r8, r1
kmem_cache_alloc_notrace():
/home/luojing/share/projects/linux_kernel_s5pv210/kernel/include/linux/slub_def.h:226
 164:	e3a010d0 	mov	r1, #208	; 0xd0
 168:	ebfffffe 	bl	0 <kmem_cache_alloc>
trace_kmalloc():
/home/luojing/share/projects/linux_kernel_s5pv210/kernel/include/trace/events/kmem.h:47
 16c:	e59f20c8 	ldr	r2, [pc, #200]	; 23c <tz_open+0xf8>
kmalloc():
/home/luojing/share/projects/linux_kernel_s5pv210/kernel/include/linux/slub_def.h:257
 170:	e59f10c8 	ldr	r1, [pc, #200]	; 240 <tz_open+0xfc>
 174:	e59f70c8 	ldr	r7, [pc, #200]	; 244 <tz_open+0x100>
trace_kmalloc():
/home/luojing/share/projects/linux_kernel_s5pv210/kernel/include/trace/events/kmem.h:47
 178:	e5923004 	ldr	r3, [r2, #4]
kmalloc():
/home/luojing/share/projects/linux_kernel_s5pv210/kernel/include/linux/slub_def.h:257
 17c:	e59163dc 	ldr	r6, [r1, #988]	; 0x3dc
trace_kmalloc():
/home/luojing/share/projects/linux_kernel_s5pv210/kernel/include/trace/events/kmem.h:47
 180:	e3530000 	cmp	r3, #0
kmem_cache_alloc_notrace():
/home/luojing/share/projects/linux_kernel_s5pv210/kernel/include/linux/slub_def.h:226
 184:	e1a04000 	mov	r4, r0
trace_kmalloc():
/home/luojing/share/projects/linux_kernel_s5pv210/kernel/include/trace/events/kmem.h:47
 188:	0a00001d 	beq	204 <tz_open+0xc0>
current_thread_info():
/home/luojing/share/projects/linux_kernel_s5pv210/kernel/arch/arm/include/asm/thread_info.h:97
 18c:	e1a0100d 	mov	r1, sp
 190:	e3c13d7f 	bic	r3, r1, #8128	; 0x1fc0
 194:	e3c3303f 	bic	r3, r3, #63	; 0x3f
rcu_read_lock_sched_notrace():
/home/luojing/share/projects/linux_kernel_s5pv210/kernel/include/linux/rcupdate.h:203
 198:	e5931004 	ldr	r1, [r3, #4]
 19c:	e2811001 	add	r1, r1, #1
 1a0:	e5831004 	str	r1, [r3, #4]
trace_kmalloc():
/home/luojing/share/projects/linux_kernel_s5pv210/kernel/include/trace/events/kmem.h:47
 1a4:	e5925010 	ldr	r5, [r2, #16]
 1a8:	e3550000 	cmp	r5, #0
 1ac:	0a00000a 	beq	1dc <tz_open+0x98>
 1b0:	e3a030d0 	mov	r3, #208	; 0xd0
 1b4:	e1a00007 	mov	r0, r7
 1b8:	e58d3000 	str	r3, [sp]
 1bc:	e1a01004 	mov	r1, r4
 1c0:	e1a03006 	mov	r3, r6
 1c4:	e3a02014 	mov	r2, #20
 1c8:	e1a0e00f 	mov	lr, pc
 1cc:	e595f000 	ldr	pc, [r5]
 1d0:	e5b53004 	ldr	r3, [r5, #4]!
 1d4:	e3530000 	cmp	r3, #0
 1d8:	eafffff3 	b	1ac <tz_open+0x68>
current_thread_info():
/home/luojing/share/projects/linux_kernel_s5pv210/kernel/include/linux/rcupdate.h:223
 1dc:	e1a0200d 	mov	r2, sp
 1e0:	e3c23d7f 	bic	r3, r2, #8128	; 0x1fc0
 1e4:	e3c3303f 	bic	r3, r3, #63	; 0x3f
rcu_read_unlock_sched_notrace():
 1e8:	e5932004 	ldr	r2, [r3, #4]
 1ec:	e2422001 	sub	r2, r2, #1
 1f0:	e5832004 	str	r2, [r3, #4]
test_bit():
/home/luojing/share/projects/linux_kernel_s5pv210/kernel/include/asm-generic/bitops/non-atomic.h:105
 1f4:	e5933000 	ldr	r3, [r3]
rcu_read_unlock_sched_notrace():
/home/luojing/share/projects/linux_kernel_s5pv210/kernel/include/linux/rcupdate.h:223
 1f8:	e3130002 	tst	r3, #2
 1fc:	0a000000 	beq	204 <tz_open+0xc0>
 200:	ebfffffe 	bl	0 <preempt_schedule>
tz_open():
/home/luojing/share/projects/2014-01-16/trustzone/tz_driver/tz_driver.c:220
 204:	e3a01014 	mov	r1, #20
 208:	e1a00004 	mov	r0, r4
 20c:	ebfffffe 	bl	0 <__memzero>
/home/luojing/share/projects/2014-01-16/trustzone/tz_driver/tz_driver.c:221
 210:	e1a00004 	mov	r0, r4
 214:	ebfffffe 	bl	0 <generate_random_uuid>
/home/luojing/share/projects/2014-01-16/trustzone/tz_driver/tz_driver.c:222
 218:	e5884088 	str	r4, [r8, #136]	; 0x88
/home/luojing/share/projects/2014-01-16/trustzone/tz_driver/tz_driver.c:223
 21c:	e59f0024 	ldr	r0, [pc, #36]	; 248 <tz_open+0x104>
 220:	ebfffffe 	bl	0 <printk>
/home/luojing/share/projects/2014-01-16/trustzone/tz_driver/tz_driver.c:224
 224:	e1a00004 	mov	r0, r4
 228:	ebffff74 	bl	0 <display_uuid>
/home/luojing/share/projects/2014-01-16/trustzone/tz_driver/tz_driver.c:226
 22c:	e3a00000 	mov	r0, #0
 230:	e24bd020 	sub	sp, fp, #32
 234:	e89da9f0 	ldm	sp, {r4, r5, r6, r7, r8, fp, sp, pc}
 238:	000003d8 	ldrdeq	r0, [r0], -r8
	...
 244:	00000144 	andeq	r0, r0, r4, asr #2
 248:	0000019e 	muleq	r0, lr, r1

0000024c <tz_ioctl>:
tz_ioctl():
/home/luojing/share/projects/2014-01-16/trustzone/tz_driver/tz_driver.c:228
 24c:	e1a0c00d 	mov	ip, sp
 250:	e92dd9f0 	push	{r4, r5, r6, r7, r8, fp, ip, lr, pc}
 254:	e24cb004 	sub	fp, ip, #4
 258:	e24dd044 	sub	sp, sp, #68	; 0x44
 25c:	e92d4000 	push	{lr}
 260:	ebfffffe 	bl	0 <__gnu_mcount_nc>
 264:	e7e73451 	ubfx	r3, r1, #8, #8
 268:	e3530054 	cmp	r3, #84	; 0x54
/home/luojing/share/projects/2014-01-16/trustzone/tz_driver/tz_driver.c:230
 26c:	e5906088 	ldr	r6, [r0, #136]	; 0x88
/home/luojing/share/projects/2014-01-16/trustzone/tz_driver/tz_driver.c:228
 270:	e1a04002 	mov	r4, r2
/home/luojing/share/projects/2014-01-16/trustzone/tz_driver/tz_driver.c:232
 274:	159f0464 	ldrne	r0, [pc, #1124]	; 6e0 <tz_ioctl+0x494>
/home/luojing/share/projects/2014-01-16/trustzone/tz_driver/tz_driver.c:231
 278:	1a000113 	bne	6cc <tz_ioctl+0x480>
/home/luojing/share/projects/2014-01-16/trustzone/tz_driver/tz_driver.c:235
 27c:	e20130ff 	and	r3, r1, #255	; 0xff
 280:	e3530003 	cmp	r3, #3
/home/luojing/share/projects/2014-01-16/trustzone/tz_driver/tz_driver.c:236
 284:	859f0458 	ldrhi	r0, [pc, #1112]	; 6e4 <tz_ioctl+0x498>
/home/luojing/share/projects/2014-01-16/trustzone/tz_driver/tz_driver.c:235
 288:	8a00010f 	bhi	6cc <tz_ioctl+0x480>
/home/luojing/share/projects/2014-01-16/trustzone/tz_driver/tz_driver.c:240
 28c:	e59f3454 	ldr	r3, [pc, #1108]	; 6e8 <tz_ioctl+0x49c>
 290:	e1510003 	cmp	r1, r3
 294:	0a000008 	beq	2bc <tz_ioctl+0x70>
 298:	e59f344c 	ldr	r3, [pc, #1100]	; 6ec <tz_ioctl+0x4a0>
 29c:	e1510003 	cmp	r1, r3
 2a0:	0a000104 	beq	6b8 <tz_ioctl+0x46c>
 2a4:	e243370a 	sub	r3, r3, #2621440	; 0x280000
 2a8:	e2433001 	sub	r3, r3, #1
 2ac:	e1510003 	cmp	r1, r3
/home/luojing/share/projects/2014-01-16/trustzone/tz_driver/tz_driver.c:257
 2b0:	159f0438 	ldrne	r0, [pc, #1080]	; 6f0 <tz_ioctl+0x4a4>
/home/luojing/share/projects/2014-01-16/trustzone/tz_driver/tz_driver.c:240
 2b4:	1a000104 	bne	6cc <tz_ioctl+0x480>
 2b8:	ea0000f9 	b	6a4 <tz_ioctl+0x458>
copy_from_user():
/home/luojing/share/projects/linux_kernel_s5pv210/kernel/arch/arm/include/asm/uaccess.h:406
 2bc:	e1a0200d 	mov	r2, sp
 2c0:	e3c25d7f 	bic	r5, r2, #8128	; 0x1fc0
tz_ioctl():
/home/luojing/share/projects/2014-01-16/trustzone/tz_driver/tz_driver.c:242
 2c4:	e59f0428 	ldr	r0, [pc, #1064]	; 6f4 <tz_ioctl+0x4a8>
open_session():
/home/luojing/share/projects/linux_kernel_s5pv210/kernel/arch/arm/include/asm/uaccess.h:406
 2c8:	e3c5503f 	bic	r5, r5, #63	; 0x3f
tz_ioctl():
/home/luojing/share/projects/2014-01-16/trustzone/tz_driver/tz_driver.c:242
 2cc:	ebfffffe 	bl	0 <printk>
open_session():
/home/luojing/share/projects/2014-01-16/trustzone/tz_driver/tz_driver.c:90
 2d0:	e3a0205a 	mov	r2, #90	; 0x5a
 2d4:	e59f041c 	ldr	r0, [pc, #1052]	; 6f8 <tz_ioctl+0x4ac>
 2d8:	e59f141c 	ldr	r1, [pc, #1052]	; 6fc <tz_ioctl+0x4b0>
 2dc:	ebfffffe 	bl	0 <printk>
copy_from_user():
/home/luojing/share/projects/linux_kernel_s5pv210/kernel/arch/arm/include/asm/uaccess.h:406
 2e0:	e5953008 	ldr	r3, [r5, #8]
 2e4:	e294200c 	adds	r2, r4, #12
 2e8:	30d22003 	sbcscc	r2, r2, r3
 2ec:	33a03000 	movcc	r3, #0
 2f0:	e3530000 	cmp	r3, #0
 2f4:	e24b0034 	sub	r0, fp, #52	; 0x34
 2f8:	1a000005 	bne	314 <tz_ioctl+0xc8>
/home/luojing/share/projects/linux_kernel_s5pv210/kernel/arch/arm/include/asm/uaccess.h:407
 2fc:	e1a01004 	mov	r1, r4
 300:	e3a0200c 	mov	r2, #12
 304:	ebfffffe 	bl	0 <__copy_from_user>
open_session():
/home/luojing/share/projects/2014-01-16/trustzone/tz_driver/tz_driver.c:92
 308:	e3500000 	cmp	r0, #0
 30c:	0a000005 	beq	328 <tz_ioctl+0xdc>
 310:	ea000001 	b	31c <tz_ioctl+0xd0>
copy_from_user():
/home/luojing/share/projects/linux_kernel_s5pv210/kernel/arch/arm/include/asm/uaccess.h:409
 314:	e3a0100c 	mov	r1, #12
 318:	ebfffffe 	bl	0 <__memzero>
open_session():
/home/luojing/share/projects/2014-01-16/trustzone/tz_driver/tz_driver.c:96
 31c:	e59f03d4 	ldr	r0, [pc, #980]	; 6f8 <tz_ioctl+0x4ac>
 320:	e3a02060 	mov	r2, #96	; 0x60
 324:	ea000014 	b	37c <tz_ioctl+0x130>
/home/luojing/share/projects/2014-01-16/trustzone/tz_driver/tz_driver.c:99
 328:	e3a02063 	mov	r2, #99	; 0x63
 32c:	e59f13c8 	ldr	r1, [pc, #968]	; 6fc <tz_ioctl+0x4b0>
 330:	e59f03c0 	ldr	r0, [pc, #960]	; 6f8 <tz_ioctl+0x4ac>
 334:	ebfffffe 	bl	0 <printk>
copy_from_user():
/home/luojing/share/projects/linux_kernel_s5pv210/kernel/arch/arm/include/asm/uaccess.h:406
 338:	e5953008 	ldr	r3, [r5, #8]
open_session():
/home/luojing/share/projects/2014-01-16/trustzone/tz_driver/tz_driver.c:101
 33c:	e51b1034 	ldr	r1, [fp, #-52]	; 0x34
 340:	e24b005c 	sub	r0, fp, #92	; 0x5c
copy_from_user():
/home/luojing/share/projects/linux_kernel_s5pv210/kernel/arch/arm/include/asm/uaccess.h:406
 344:	e2912028 	adds	r2, r1, #40	; 0x28
 348:	30d22003 	sbcscc	r2, r2, r3
 34c:	33a03000 	movcc	r3, #0
 350:	e3530000 	cmp	r3, #0
 354:	1a000004 	bne	36c <tz_ioctl+0x120>
/home/luojing/share/projects/linux_kernel_s5pv210/kernel/arch/arm/include/asm/uaccess.h:407
 358:	e3a02028 	mov	r2, #40	; 0x28
 35c:	ebfffffe 	bl	0 <__copy_from_user>
open_session():
/home/luojing/share/projects/2014-01-16/trustzone/tz_driver/tz_driver.c:100
 360:	e3500000 	cmp	r0, #0
 364:	0a000008 	beq	38c <tz_ioctl+0x140>
 368:	ea000001 	b	374 <tz_ioctl+0x128>
copy_from_user():
/home/luojing/share/projects/linux_kernel_s5pv210/kernel/arch/arm/include/asm/uaccess.h:409
 36c:	e3a01028 	mov	r1, #40	; 0x28
 370:	ebfffffe 	bl	0 <__memzero>
open_session():
/home/luojing/share/projects/2014-01-16/trustzone/tz_driver/tz_driver.c:104
 374:	e59f037c 	ldr	r0, [pc, #892]	; 6f8 <tz_ioctl+0x4ac>
 378:	e3a02068 	mov	r2, #104	; 0x68
 37c:	e59f1378 	ldr	r1, [pc, #888]	; 6fc <tz_ioctl+0x4b0>
 380:	ebfffffe 	bl	0 <printk>
 384:	e59f5374 	ldr	r5, [pc, #884]	; 700 <tz_ioctl+0x4b4>
 388:	ea0000c0 	b	690 <tz_ioctl+0x444>
/home/luojing/share/projects/2014-01-16/trustzone/tz_driver/tz_driver.c:107
 38c:	e59f1368 	ldr	r1, [pc, #872]	; 6fc <tz_ioctl+0x4b0>
 390:	e3a0206b 	mov	r2, #107	; 0x6b
 394:	e59f035c 	ldr	r0, [pc, #860]	; 6f8 <tz_ioctl+0x4ac>
 398:	ebfffffe 	bl	0 <printk>
/home/luojing/share/projects/2014-01-16/trustzone/tz_driver/tz_driver.c:111
 39c:	e59f0354 	ldr	r0, [pc, #852]	; 6f8 <tz_ioctl+0x4ac>
 3a0:	e59f1354 	ldr	r1, [pc, #852]	; 6fc <tz_ioctl+0x4b0>
 3a4:	e3a0206f 	mov	r2, #111	; 0x6f
 3a8:	ebfffffe 	bl	0 <printk>
/home/luojing/share/projects/2014-01-16/trustzone/tz_driver/tz_driver.c:112
 3ac:	e51b3058 	ldr	r3, [fp, #-88]	; 0x58
 3b0:	e3530005 	cmp	r3, #5
 3b4:	0a000005 	beq	3d0 <tz_ioctl+0x184>
/home/luojing/share/projects/2014-01-16/trustzone/tz_driver/tz_driver.c:117
 3b8:	e59f0338 	ldr	r0, [pc, #824]	; 6f8 <tz_ioctl+0x4ac>
 3bc:	e3a02075 	mov	r2, #117	; 0x75
 3c0:	e59f1334 	ldr	r1, [pc, #820]	; 6fc <tz_ioctl+0x4b0>
 3c4:	ebfffffe 	bl	0 <printk>
 3c8:	e59f5330 	ldr	r5, [pc, #816]	; 700 <tz_ioctl+0x4b4>
 3cc:	ea0000c0 	b	6d4 <tz_ioctl+0x488>
/home/luojing/share/projects/2014-01-16/trustzone/tz_driver/tz_driver.c:120
 3d0:	e3a02078 	mov	r2, #120	; 0x78
 3d4:	e59f1320 	ldr	r1, [pc, #800]	; 6fc <tz_ioctl+0x4b0>
 3d8:	e59f0318 	ldr	r0, [pc, #792]	; 6f8 <tz_ioctl+0x4ac>
 3dc:	ebfffffe 	bl	0 <printk>
kmem_cache_alloc_notrace():
/home/luojing/share/projects/linux_kernel_s5pv210/kernel/include/linux/slub_def.h:226
 3e0:	e3a010d0 	mov	r1, #208	; 0xd0
 3e4:	e59f0318 	ldr	r0, [pc, #792]	; 704 <tz_ioctl+0x4b8>
 3e8:	ebfffffe 	bl	0 <kmem_cache_alloc>
trace_kmalloc():
/home/luojing/share/projects/linux_kernel_s5pv210/kernel/include/trace/events/kmem.h:47
 3ec:	e59f3314 	ldr	r3, [pc, #788]	; 708 <tz_ioctl+0x4bc>
kmalloc():
/home/luojing/share/projects/linux_kernel_s5pv210/kernel/include/linux/slub_def.h:257
 3f0:	e59f1314 	ldr	r1, [pc, #788]	; 70c <tz_ioctl+0x4c0>
 3f4:	e59f7314 	ldr	r7, [pc, #788]	; 710 <tz_ioctl+0x4c4>
trace_kmalloc():
/home/luojing/share/projects/linux_kernel_s5pv210/kernel/include/trace/events/kmem.h:47
 3f8:	e5932004 	ldr	r2, [r3, #4]
kmalloc():
/home/luojing/share/projects/linux_kernel_s5pv210/kernel/include/linux/slub_def.h:257
 3fc:	e5918480 	ldr	r8, [r1, #1152]	; 0x480
trace_kmalloc():
/home/luojing/share/projects/linux_kernel_s5pv210/kernel/include/trace/events/kmem.h:47
 400:	e3520000 	cmp	r2, #0
kmem_cache_alloc_notrace():
/home/luojing/share/projects/linux_kernel_s5pv210/kernel/include/linux/slub_def.h:226
 404:	e1a04000 	mov	r4, r0
trace_kmalloc():
/home/luojing/share/projects/linux_kernel_s5pv210/kernel/include/trace/events/kmem.h:47
 408:	0a00001a 	beq	478 <tz_ioctl+0x22c>
rcu_read_lock_sched_notrace():
/home/luojing/share/projects/linux_kernel_s5pv210/kernel/include/linux/rcupdate.h:203
 40c:	e5952004 	ldr	r2, [r5, #4]
 410:	e2822001 	add	r2, r2, #1
 414:	e5852004 	str	r2, [r5, #4]
trace_kmalloc():
/home/luojing/share/projects/linux_kernel_s5pv210/kernel/include/trace/events/kmem.h:47
 418:	e5935010 	ldr	r5, [r3, #16]
 41c:	e3550000 	cmp	r5, #0
 420:	0a00000a 	beq	450 <tz_ioctl+0x204>
 424:	e3a030d0 	mov	r3, #208	; 0xd0
 428:	e1a00007 	mov	r0, r7
 42c:	e58d3000 	str	r3, [sp]
 430:	e1a01004 	mov	r1, r4
 434:	e1a03008 	mov	r3, r8
 438:	e3a02044 	mov	r2, #68	; 0x44
 43c:	e1a0e00f 	mov	lr, pc
 440:	e595f000 	ldr	pc, [r5]
 444:	e5b53004 	ldr	r3, [r5, #4]!
 448:	e3530000 	cmp	r3, #0
 44c:	eafffff3 	b	420 <tz_ioctl+0x1d4>
current_thread_info():
/home/luojing/share/projects/linux_kernel_s5pv210/kernel/include/linux/rcupdate.h:223
 450:	e1a0200d 	mov	r2, sp
 454:	e3c23d7f 	bic	r3, r2, #8128	; 0x1fc0
 458:	e3c3303f 	bic	r3, r3, #63	; 0x3f
rcu_read_unlock_sched_notrace():
 45c:	e5932004 	ldr	r2, [r3, #4]
 460:	e2422001 	sub	r2, r2, #1
 464:	e5832004 	str	r2, [r3, #4]
test_bit():
/home/luojing/share/projects/linux_kernel_s5pv210/kernel/include/asm-generic/bitops/non-atomic.h:105
 468:	e5933000 	ldr	r3, [r3]
rcu_read_unlock_sched_notrace():
/home/luojing/share/projects/linux_kernel_s5pv210/kernel/include/linux/rcupdate.h:223
 46c:	e3130002 	tst	r3, #2
 470:	0a000000 	beq	478 <tz_ioctl+0x22c>
 474:	ebfffffe 	bl	0 <preempt_schedule>
copy_from_user():
/home/luojing/share/projects/linux_kernel_s5pv210/kernel/arch/arm/include/asm/uaccess.h:406
 478:	e1a0300d 	mov	r3, sp
 47c:	e3c35d7f 	bic	r5, r3, #8128	; 0x1fc0
 480:	e3c5503f 	bic	r5, r5, #63	; 0x3f
open_session():
/home/luojing/share/projects/2014-01-16/trustzone/tz_driver/tz_driver.c:122
 484:	e1a00004 	mov	r0, r4
 488:	e3a01044 	mov	r1, #68	; 0x44
 48c:	ebfffffe 	bl	0 <__memzero>
/home/luojing/share/projects/2014-01-16/trustzone/tz_driver/tz_driver.c:127
 490:	e51b1050 	ldr	r1, [fp, #-80]	; 0x50
copy_from_user():
/home/luojing/share/projects/linux_kernel_s5pv210/kernel/arch/arm/include/asm/uaccess.h:406
 494:	e5953008 	ldr	r3, [r5, #8]
open_session():
/home/luojing/share/projects/2014-01-16/trustzone/tz_driver/tz_driver.c:127
 498:	e2840004 	add	r0, r4, #4
copy_from_user():
/home/luojing/share/projects/linux_kernel_s5pv210/kernel/arch/arm/include/asm/uaccess.h:406
 49c:	e2912004 	adds	r2, r1, #4
 4a0:	30d22003 	sbcscc	r2, r2, r3
 4a4:	33a03000 	movcc	r3, #0
 4a8:	e3530000 	cmp	r3, #0
 4ac:	1a000004 	bne	4c4 <tz_ioctl+0x278>
/home/luojing/share/projects/linux_kernel_s5pv210/kernel/arch/arm/include/asm/uaccess.h:407
 4b0:	e3a02004 	mov	r2, #4
 4b4:	ebfffffe 	bl	0 <__copy_from_user>
open_session():
/home/luojing/share/projects/2014-01-16/trustzone/tz_driver/tz_driver.c:127
 4b8:	e3500000 	cmp	r0, #0
 4bc:	0a00000a 	beq	4ec <tz_ioctl+0x2a0>
 4c0:	ea000001 	b	4cc <tz_ioctl+0x280>
copy_from_user():
/home/luojing/share/projects/linux_kernel_s5pv210/kernel/arch/arm/include/asm/uaccess.h:409
 4c4:	e3a01004 	mov	r1, #4
 4c8:	ebfffffe 	bl	0 <__memzero>
open_session():
/home/luojing/share/projects/2014-01-16/trustzone/tz_driver/tz_driver.c:130
 4cc:	e59f1228 	ldr	r1, [pc, #552]	; 6fc <tz_ioctl+0x4b0>
 4d0:	e3a02082 	mov	r2, #130	; 0x82
 4d4:	e59f021c 	ldr	r0, [pc, #540]	; 6f8 <tz_ioctl+0x4ac>
/home/luojing/share/projects/2014-01-16/trustzone/tz_driver/tz_driver.c:131
 4d8:	e3e05015 	mvn	r5, #21
/home/luojing/share/projects/2014-01-16/trustzone/tz_driver/tz_driver.c:130
 4dc:	ebfffffe 	bl	0 <printk>
/home/luojing/share/projects/2014-01-16/trustzone/tz_driver/tz_driver.c:131
 4e0:	e59f022c 	ldr	r0, [pc, #556]	; 714 <tz_ioctl+0x4c8>
 4e4:	ebfffffe 	bl	0 <printk>
 4e8:	ea000066 	b	688 <tz_ioctl+0x43c>
kmalloc():
/home/luojing/share/projects/linux_kernel_s5pv210/kernel/include/linux/slub_def.h:262
 4ec:	e3a010d0 	mov	r1, #208	; 0xd0
 4f0:	e5940004 	ldr	r0, [r4, #4]
 4f4:	ebfffffe 	bl	0 <__kmalloc>
open_session():
/home/luojing/share/projects/2014-01-16/trustzone/tz_driver/tz_driver.c:138
 4f8:	e5942004 	ldr	r2, [r4, #4]
/home/luojing/share/projects/2014-01-16/trustzone/tz_driver/tz_driver.c:134
 4fc:	e5840000 	str	r0, [r4]
/home/luojing/share/projects/2014-01-16/trustzone/tz_driver/tz_driver.c:137
 500:	e51b1054 	ldr	r1, [fp, #-84]	; 0x54
copy_from_user():
/home/luojing/share/projects/linux_kernel_s5pv210/kernel/arch/arm/include/asm/uaccess.h:406
 504:	e5953008 	ldr	r3, [r5, #8]
 508:	e091c002 	adds	ip, r1, r2
 50c:	30dcc003 	sbcscc	ip, ip, r3
 510:	33a03000 	movcc	r3, #0
 514:	e3530000 	cmp	r3, #0
 518:	1a000003 	bne	52c <tz_ioctl+0x2e0>
/home/luojing/share/projects/linux_kernel_s5pv210/kernel/arch/arm/include/asm/uaccess.h:407
 51c:	ebfffffe 	bl	0 <__copy_from_user>
open_session():
/home/luojing/share/projects/2014-01-16/trustzone/tz_driver/tz_driver.c:136
 520:	e3500000 	cmp	r0, #0
 524:	1a000004 	bne	53c <tz_ioctl+0x2f0>
 528:	ea000006 	b	548 <tz_ioctl+0x2fc>
copy_from_user():
/home/luojing/share/projects/linux_kernel_s5pv210/kernel/arch/arm/include/asm/uaccess.h:409
 52c:	e3520000 	cmp	r2, #0
 530:	0a000004 	beq	548 <tz_ioctl+0x2fc>
 534:	e1a01002 	mov	r1, r2
 538:	ebfffffe 	bl	0 <__memzero>
open_session():
/home/luojing/share/projects/2014-01-16/trustzone/tz_driver/tz_driver.c:139
 53c:	e59f01b4 	ldr	r0, [pc, #436]	; 6f8 <tz_ioctl+0x4ac>
 540:	e3a0208b 	mov	r2, #139	; 0x8b
 544:	ea00004a 	b	674 <tz_ioctl+0x428>
/home/luojing/share/projects/2014-01-16/trustzone/tz_driver/tz_driver.c:144
 548:	e59f11ac 	ldr	r1, [pc, #428]	; 6fc <tz_ioctl+0x4b0>
 54c:	e3a02090 	mov	r2, #144	; 0x90
 550:	e59f01a0 	ldr	r0, [pc, #416]	; 6f8 <tz_ioctl+0x4ac>
 554:	ebfffffe 	bl	0 <printk>
/home/luojing/share/projects/2014-01-16/trustzone/tz_driver/tz_driver.c:146
 558:	e5846008 	str	r6, [r4, #8]
/home/luojing/share/projects/2014-01-16/trustzone/tz_driver/tz_driver.c:147
 55c:	e3a03010 	mov	r3, #16
 560:	e584300c 	str	r3, [r4, #12]
/home/luojing/share/projects/2014-01-16/trustzone/tz_driver/tz_driver.c:150
 564:	e5963010 	ldr	r3, [r6, #16]
/home/luojing/share/projects/2014-01-16/trustzone/tz_driver/tz_driver.c:153
 568:	e3a02102 	mov	r2, #-2147483648	; 0x80000000
/home/luojing/share/projects/2014-01-16/trustzone/tz_driver/tz_driver.c:158
 56c:	e59f1188 	ldr	r1, [pc, #392]	; 6fc <tz_ioctl+0x4b0>
/home/luojing/share/projects/2014-01-16/trustzone/tz_driver/tz_driver.c:153
 570:	e5842024 	str	r2, [r4, #36]	; 0x24
/home/luojing/share/projects/2014-01-16/trustzone/tz_driver/tz_driver.c:154
 574:	e3002155 	movw	r2, #341	; 0x155
/home/luojing/share/projects/2014-01-16/trustzone/tz_driver/tz_driver.c:150
 578:	e5843010 	str	r3, [r4, #16]
/home/luojing/share/projects/2014-01-16/trustzone/tz_driver/tz_driver.c:154
 57c:	e5842020 	str	r2, [r4, #32]
/home/luojing/share/projects/2014-01-16/trustzone/tz_driver/tz_driver.c:158
 580:	e3a0209e 	mov	r2, #158	; 0x9e
 584:	e59f016c 	ldr	r0, [pc, #364]	; 6f8 <tz_ioctl+0x4ac>
 588:	ebfffffe 	bl	0 <printk>
CallTZFunction():
/home/luojing/share/projects/2014-01-16/trustzone/tz_driver/tz_driver.c:56
 58c:	e3e03000 	mvn	r3, #0
/home/luojing/share/projects/2014-01-16/trustzone/tz_driver/tz_driver.c:57
 590:	e3a00106 	mov	r0, #-2147483647	; 0x80000001
/home/luojing/share/projects/2014-01-16/trustzone/tz_driver/tz_driver.c:56
 594:	e50b3028 	str	r3, [fp, #-40]	; 0x28
/home/luojing/share/projects/2014-01-16/trustzone/tz_driver/tz_driver.c:58
 598:	e1a01004 	mov	r1, r4
/home/luojing/share/projects/2014-01-16/trustzone/tz_driver/tz_driver.c:59
 59c:	e3a02000 	mov	r2, #0
/home/luojing/share/projects/2014-01-16/trustzone/tz_driver/tz_driver.c:60
 5a0:	e1600070 	smc	0
/home/luojing/share/projects/2014-01-16/trustzone/tz_driver/tz_driver.c:72
 5a4:	e50b0028 	str	r0, [fp, #-40]	; 0x28
/home/luojing/share/projects/2014-01-16/trustzone/tz_driver/tz_driver.c:73
 5a8:	e59f114c 	ldr	r1, [pc, #332]	; 6fc <tz_ioctl+0x4b0>
 5ac:	e282204a 	add	r2, r2, #74	; 0x4a
 5b0:	e59f0140 	ldr	r0, [pc, #320]	; 6f8 <tz_ioctl+0x4ac>
 5b4:	ebfffffe 	bl	0 <printk>
/home/luojing/share/projects/2014-01-16/trustzone/tz_driver/tz_driver.c:75
 5b8:	e51b5028 	ldr	r5, [fp, #-40]	; 0x28
open_session():
/home/luojing/share/projects/2014-01-16/trustzone/tz_driver/tz_driver.c:162
 5bc:	e59f0134 	ldr	r0, [pc, #308]	; 6f8 <tz_ioctl+0x4ac>
 5c0:	e3a020a2 	mov	r2, #162	; 0xa2
 5c4:	e59f1130 	ldr	r1, [pc, #304]	; 6fc <tz_ioctl+0x4b0>
 5c8:	ebfffffe 	bl	0 <printk>
/home/luojing/share/projects/2014-01-16/trustzone/tz_driver/tz_driver.c:163
 5cc:	e3550000 	cmp	r5, #0
 5d0:	1a00002a 	bne	680 <tz_ioctl+0x434>
copy_to_user():
/home/luojing/share/projects/linux_kernel_s5pv210/kernel/arch/arm/include/asm/uaccess.h:415
 5d4:	e1a0200d 	mov	r2, sp
 5d8:	e3c26d7f 	bic	r6, r2, #8128	; 0x1fc0
 5dc:	e3c6603f 	bic	r6, r6, #63	; 0x3f
open_session():
/home/luojing/share/projects/2014-01-16/trustzone/tz_driver/tz_driver.c:170
 5e0:	e3a020aa 	mov	r2, #170	; 0xaa
 5e4:	e59f010c 	ldr	r0, [pc, #268]	; 6f8 <tz_ioctl+0x4ac>
 5e8:	e59f110c 	ldr	r1, [pc, #268]	; 6fc <tz_ioctl+0x4b0>
 5ec:	ebfffffe 	bl	0 <printk>
copy_to_user():
/home/luojing/share/projects/linux_kernel_s5pv210/kernel/arch/arm/include/asm/uaccess.h:415
 5f0:	e5963008 	ldr	r3, [r6, #8]
open_session():
/home/luojing/share/projects/2014-01-16/trustzone/tz_driver/tz_driver.c:171
 5f4:	e51b0030 	ldr	r0, [fp, #-48]	; 0x30
copy_to_user():
/home/luojing/share/projects/linux_kernel_s5pv210/kernel/arch/arm/include/asm/uaccess.h:415
 5f8:	e2902014 	adds	r2, r0, #20
 5fc:	30d22003 	sbcscc	r2, r2, r3
 600:	33a03000 	movcc	r3, #0
 604:	e3530000 	cmp	r3, #0
 608:	1a000004 	bne	620 <tz_ioctl+0x3d4>
/home/luojing/share/projects/linux_kernel_s5pv210/kernel/arch/arm/include/asm/uaccess.h:416
 60c:	e2841028 	add	r1, r4, #40	; 0x28
 610:	e3a02014 	mov	r2, #20
 614:	ebfffffe 	bl	0 <__copy_to_user>
open_session():
/home/luojing/share/projects/2014-01-16/trustzone/tz_driver/tz_driver.c:171
 618:	e3500000 	cmp	r0, #0
 61c:	0a000002 	beq	62c <tz_ioctl+0x3e0>
/home/luojing/share/projects/2014-01-16/trustzone/tz_driver/tz_driver.c:175
 620:	e59f00d0 	ldr	r0, [pc, #208]	; 6f8 <tz_ioctl+0x4ac>
 624:	e3a020af 	mov	r2, #175	; 0xaf
 628:	ea000011 	b	674 <tz_ioctl+0x428>
/home/luojing/share/projects/2014-01-16/trustzone/tz_driver/tz_driver.c:179
 62c:	e3a020b3 	mov	r2, #179	; 0xb3
 630:	e59f00c0 	ldr	r0, [pc, #192]	; 6f8 <tz_ioctl+0x4ac>
 634:	e59f10c0 	ldr	r1, [pc, #192]	; 6fc <tz_ioctl+0x4b0>
 638:	ebfffffe 	bl	0 <printk>
copy_to_user():
/home/luojing/share/projects/linux_kernel_s5pv210/kernel/arch/arm/include/asm/uaccess.h:415
 63c:	e5963008 	ldr	r3, [r6, #8]
open_session():
/home/luojing/share/projects/2014-01-16/trustzone/tz_driver/tz_driver.c:180
 640:	e51b002c 	ldr	r0, [fp, #-44]	; 0x2c
copy_to_user():
/home/luojing/share/projects/linux_kernel_s5pv210/kernel/arch/arm/include/asm/uaccess.h:415
 644:	e2902004 	adds	r2, r0, #4
 648:	30d22003 	sbcscc	r2, r2, r3
 64c:	33a03000 	movcc	r3, #0
 650:	e3530000 	cmp	r3, #0
 654:	1a000004 	bne	66c <tz_ioctl+0x420>
/home/luojing/share/projects/linux_kernel_s5pv210/kernel/arch/arm/include/asm/uaccess.h:416
 658:	e2841040 	add	r1, r4, #64	; 0x40
 65c:	e3a02004 	mov	r2, #4
 660:	ebfffffe 	bl	0 <__copy_to_user>
open_session():
/home/luojing/share/projects/2014-01-16/trustzone/tz_driver/tz_driver.c:180
 664:	e3500000 	cmp	r0, #0
 668:	0a000004 	beq	680 <tz_ioctl+0x434>
/home/luojing/share/projects/2014-01-16/trustzone/tz_driver/tz_driver.c:184
 66c:	e59f0084 	ldr	r0, [pc, #132]	; 6f8 <tz_ioctl+0x4ac>
 670:	e3a020b8 	mov	r2, #184	; 0xb8
 674:	e59f1080 	ldr	r1, [pc, #128]	; 6fc <tz_ioctl+0x4b0>
 678:	ebfffffe 	bl	0 <printk>
 67c:	e59f507c 	ldr	r5, [pc, #124]	; 700 <tz_ioctl+0x4b4>
/home/luojing/share/projects/2014-01-16/trustzone/tz_driver/tz_driver.c:189
 680:	e5940000 	ldr	r0, [r4]
 684:	ebfffffe 	bl	0 <kfree>
/home/luojing/share/projects/2014-01-16/trustzone/tz_driver/tz_driver.c:191
 688:	e1a00004 	mov	r0, r4
 68c:	ebfffffe 	bl	0 <kfree>
/home/luojing/share/projects/2014-01-16/trustzone/tz_driver/tz_driver.c:193
 690:	e59f1064 	ldr	r1, [pc, #100]	; 6fc <tz_ioctl+0x4b0>
 694:	e3a020c1 	mov	r2, #193	; 0xc1
 698:	e59f0058 	ldr	r0, [pc, #88]	; 6f8 <tz_ioctl+0x4ac>
 69c:	ebfffffe 	bl	0 <printk>
 6a0:	ea00000b 	b	6d4 <tz_ioctl+0x488>
tz_ioctl():
/home/luojing/share/projects/2014-01-16/trustzone/tz_driver/tz_driver.c:247
 6a4:	e59f006c 	ldr	r0, [pc, #108]	; 718 <tz_ioctl+0x4cc>
/home/luojing/share/projects/2014-01-16/trustzone/tz_driver/tz_driver.c:248
 6a8:	e3e05015 	mvn	r5, #21
/home/luojing/share/projects/2014-01-16/trustzone/tz_driver/tz_driver.c:247
 6ac:	ebfffffe 	bl	0 <printk>
/home/luojing/share/projects/2014-01-16/trustzone/tz_driver/tz_driver.c:248
 6b0:	e59f0064 	ldr	r0, [pc, #100]	; 71c <tz_ioctl+0x4d0>
 6b4:	ea000005 	b	6d0 <tz_ioctl+0x484>
/home/luojing/share/projects/2014-01-16/trustzone/tz_driver/tz_driver.c:252
 6b8:	e59f0060 	ldr	r0, [pc, #96]	; 720 <tz_ioctl+0x4d4>
/home/luojing/share/projects/2014-01-16/trustzone/tz_driver/tz_driver.c:253
 6bc:	e3e05015 	mvn	r5, #21
/home/luojing/share/projects/2014-01-16/trustzone/tz_driver/tz_driver.c:252
 6c0:	ebfffffe 	bl	0 <printk>
/home/luojing/share/projects/2014-01-16/trustzone/tz_driver/tz_driver.c:253
 6c4:	e59f0058 	ldr	r0, [pc, #88]	; 724 <tz_ioctl+0x4d8>
 6c8:	ea000000 	b	6d0 <tz_ioctl+0x484>
/home/luojing/share/projects/2014-01-16/trustzone/tz_driver/tz_driver.c:257
 6cc:	e3e05015 	mvn	r5, #21
 6d0:	ebfffffe 	bl	0 <printk>
/home/luojing/share/projects/2014-01-16/trustzone/tz_driver/tz_driver.c:262
 6d4:	e1a00005 	mov	r0, r5
 6d8:	e24bd020 	sub	sp, fp, #32
 6dc:	e89da9f0 	ldm	sp, {r4, r5, r6, r7, r8, fp, sp, pc}
 6e0:	000001ac 	andeq	r0, r0, ip, lsr #3
 6e4:	000001d4 	ldrdeq	r0, [r0], -r4
 6e8:	c00c5401 	andgt	r5, ip, r1, lsl #8
 6ec:	c02c5403 	eorgt	r5, ip, r3, lsl #8
 6f0:	00000353 	andeq	r0, r0, r3, asr r3
 6f4:	000001fd 	strdeq	r0, [r0], -sp
 6f8:	0000021f 	andeq	r0, r0, pc, lsl r2
 6fc:	00000234 	andeq	r0, r0, r4, lsr r2
 700:	ffff0006 	undefined instruction 0xffff0006
 704:	0000047c 	andeq	r0, r0, ip, ror r4
	...
 710:	000003d0 	ldrdeq	r0, [r0], -r0
 714:	0000027c 	andeq	r0, r0, ip, ror r2
 718:	000002a5 	andeq	r0, r0, r5, lsr #5
 71c:	000002c8 	andeq	r0, r0, r8, asr #5
 720:	000002fb 	strdeq	r0, [r0], -fp
 724:	0000031f 	andeq	r0, r0, pc, lsl r3

Disassembly of section .exit.text:

00000000 <cleanup_module>:
tz_exit():
/home/luojing/share/projects/2014-01-16/trustzone/tz_driver/tz_driver.c:326
   0:	e1a0c00d 	mov	ip, sp
   4:	e92dd830 	push	{r4, r5, fp, ip, lr, pc}
   8:	e24cb004 	sub	fp, ip, #4
   c:	e92d4000 	push	{lr}
  10:	ebfffffe 	bl	0 <__gnu_mcount_nc>
/home/luojing/share/projects/2014-01-16/trustzone/tz_driver/tz_driver.c:328
  14:	e59f4054 	ldr	r4, [pc, #84]	; 70 <cleanup_module+0x70>
/home/luojing/share/projects/2014-01-16/trustzone/tz_driver/tz_driver.c:327
  18:	e59f0054 	ldr	r0, [pc, #84]	; 74 <cleanup_module+0x74>
  1c:	ebfffffe 	bl	0 <printk>
/home/luojing/share/projects/2014-01-16/trustzone/tz_driver/tz_driver.c:331
  20:	e59f5050 	ldr	r5, [pc, #80]	; 78 <cleanup_module+0x78>
/home/luojing/share/projects/2014-01-16/trustzone/tz_driver/tz_driver.c:328
  24:	e1a00004 	mov	r0, r4
  28:	ebfffffe 	bl	0 <cdev_del>
/home/luojing/share/projects/2014-01-16/trustzone/tz_driver/tz_driver.c:329
  2c:	e59f0048 	ldr	r0, [pc, #72]	; 7c <cleanup_module+0x7c>
  30:	ebfffffe 	bl	0 <printk>
/home/luojing/share/projects/2014-01-16/trustzone/tz_driver/tz_driver.c:330
  34:	e5941040 	ldr	r1, [r4, #64]	; 0x40
  38:	e594003c 	ldr	r0, [r4, #60]	; 0x3c
  3c:	ebfffffe 	bl	0 <device_destroy>
/home/luojing/share/projects/2014-01-16/trustzone/tz_driver/tz_driver.c:331
  40:	e1a00005 	mov	r0, r5
  44:	ebfffffe 	bl	0 <printk>
/home/luojing/share/projects/2014-01-16/trustzone/tz_driver/tz_driver.c:332
  48:	e594003c 	ldr	r0, [r4, #60]	; 0x3c
  4c:	ebfffffe 	bl	0 <class_destroy>
/home/luojing/share/projects/2014-01-16/trustzone/tz_driver/tz_driver.c:333
  50:	e1a00005 	mov	r0, r5
  54:	ebfffffe 	bl	0 <printk>
/home/luojing/share/projects/2014-01-16/trustzone/tz_driver/tz_driver.c:334
  58:	e5940040 	ldr	r0, [r4, #64]	; 0x40
  5c:	e3a01001 	mov	r1, #1
  60:	ebfffffe 	bl	0 <unregister_chrdev_region>
/home/luojing/share/projects/2014-01-16/trustzone/tz_driver/tz_driver.c:335
  64:	e1a00005 	mov	r0, r5
  68:	ebfffffe 	bl	0 <printk>
/home/luojing/share/projects/2014-01-16/trustzone/tz_driver/tz_driver.c:336
  6c:	e89da830 	ldm	sp, {r4, r5, fp, sp, pc}
	...
  78:	0000002c 	andeq	r0, r0, ip, lsr #32
  7c:	0000001d 	andeq	r0, r0, sp, lsl r0

Disassembly of section .init.text:

00000000 <init_module>:
tz_init():
/home/luojing/share/projects/2014-01-16/trustzone/tz_driver/tz_driver.c:273
   0:	e1a0c00d 	mov	ip, sp
   4:	e92dd870 	push	{r4, r5, r6, fp, ip, lr, pc}
   8:	e24cb004 	sub	fp, ip, #4
   c:	e24dd00c 	sub	sp, sp, #12
/home/luojing/share/projects/2014-01-16/trustzone/tz_driver/tz_driver.c:277
  10:	e59f5110 	ldr	r5, [pc, #272]	; 128 <init_module+0x128>
  14:	e59f4110 	ldr	r4, [pc, #272]	; 12c <init_module+0x12c>
/home/luojing/share/projects/2014-01-16/trustzone/tz_driver/tz_driver.c:275
  18:	e59f0110 	ldr	r0, [pc, #272]	; 130 <init_module+0x130>
  1c:	ebfffffe 	bl	0 <printk>
/home/luojing/share/projects/2014-01-16/trustzone/tz_driver/tz_driver.c:277
  20:	e2840040 	add	r0, r4, #64	; 0x40
  24:	e3a01000 	mov	r1, #0
  28:	e3a02001 	mov	r2, #1
  2c:	e1a03005 	mov	r3, r5
  30:	ebfffffe 	bl	0 <alloc_chrdev_region>
/home/luojing/share/projects/2014-01-16/trustzone/tz_driver/tz_driver.c:278
  34:	e2506000 	subs	r6, r0, #0
/home/luojing/share/projects/2014-01-16/trustzone/tz_driver/tz_driver.c:279
  38:	159f00f4 	ldrne	r0, [pc, #244]	; 134 <init_module+0x134>
/home/luojing/share/projects/2014-01-16/trustzone/tz_driver/tz_driver.c:278
  3c:	1a00002d 	bne	f8 <init_module+0xf8>
/home/luojing/share/projects/2014-01-16/trustzone/tz_driver/tz_driver.c:282
  40:	e59f00f0 	ldr	r0, [pc, #240]	; 138 <init_module+0x138>
  44:	ebfffffe 	bl	0 <printk>
/home/luojing/share/projects/2014-01-16/trustzone/tz_driver/tz_driver.c:284
  48:	e59f00ec 	ldr	r0, [pc, #236]	; 13c <init_module+0x13c>
  4c:	e1a01005 	mov	r1, r5
  50:	e2842044 	add	r2, r4, #68	; 0x44
  54:	ebfffffe 	bl	0 <__class_create>
/home/luojing/share/projects/2014-01-16/trustzone/tz_driver/tz_driver.c:285
  58:	e3700a01 	cmn	r0, #4096	; 0x1000
/home/luojing/share/projects/2014-01-16/trustzone/tz_driver/tz_driver.c:284
  5c:	e584003c 	str	r0, [r4, #60]	; 0x3c
/home/luojing/share/projects/2014-01-16/trustzone/tz_driver/tz_driver.c:285
  60:	9a000003 	bls	74 <init_module+0x74>
/home/luojing/share/projects/2014-01-16/trustzone/tz_driver/tz_driver.c:287
  64:	e59f00d4 	ldr	r0, [pc, #212]	; 140 <init_module+0x140>
  68:	e3e06000 	mvn	r6, #0
  6c:	ebfffffe 	bl	0 <printk>
/home/luojing/share/projects/2014-01-16/trustzone/tz_driver/tz_driver.c:288
  70:	ea000025 	b	10c <init_module+0x10c>
/home/luojing/share/projects/2014-01-16/trustzone/tz_driver/tz_driver.c:290
  74:	e59f00c8 	ldr	r0, [pc, #200]	; 144 <init_module+0x144>
  78:	ebfffffe 	bl	0 <printk>
/home/luojing/share/projects/2014-01-16/trustzone/tz_driver/tz_driver.c:292
  7c:	e1a01006 	mov	r1, r6
  80:	e594003c 	ldr	r0, [r4, #60]	; 0x3c
  84:	e1a03006 	mov	r3, r6
  88:	e5942040 	ldr	r2, [r4, #64]	; 0x40
  8c:	e58d5000 	str	r5, [sp]
  90:	ebfffffe 	bl	0 <device_create>
/home/luojing/share/projects/2014-01-16/trustzone/tz_driver/tz_driver.c:294
  94:	e3500000 	cmp	r0, #0
/home/luojing/share/projects/2014-01-16/trustzone/tz_driver/tz_driver.c:292
  98:	e5840044 	str	r0, [r4, #68]	; 0x44
/home/luojing/share/projects/2014-01-16/trustzone/tz_driver/tz_driver.c:294
  9c:	1a000003 	bne	b0 <init_module+0xb0>
/home/luojing/share/projects/2014-01-16/trustzone/tz_driver/tz_driver.c:296
  a0:	e59f00a0 	ldr	r0, [pc, #160]	; 148 <init_module+0x148>
  a4:	e3e06000 	mvn	r6, #0
  a8:	ebfffffe 	bl	0 <printk>
/home/luojing/share/projects/2014-01-16/trustzone/tz_driver/tz_driver.c:297
  ac:	ea000013 	b	100 <init_module+0x100>
/home/luojing/share/projects/2014-01-16/trustzone/tz_driver/tz_driver.c:299
  b0:	e59f0094 	ldr	r0, [pc, #148]	; 14c <init_module+0x14c>
  b4:	ebfffffe 	bl	0 <printk>
/home/luojing/share/projects/2014-01-16/trustzone/tz_driver/tz_driver.c:302
  b8:	e1a00004 	mov	r0, r4
  bc:	e59f108c 	ldr	r1, [pc, #140]	; 150 <init_module+0x150>
  c0:	ebfffffe 	bl	0 <cdev_init>
/home/luojing/share/projects/2014-01-16/trustzone/tz_driver/tz_driver.c:303
  c4:	e1a00004 	mov	r0, r4
  c8:	e5941040 	ldr	r1, [r4, #64]	; 0x40
  cc:	e3a02001 	mov	r2, #1
  d0:	ebfffffe 	bl	0 <cdev_add>
/home/luojing/share/projects/2014-01-16/trustzone/tz_driver/tz_driver.c:304
  d4:	e2506000 	subs	r6, r0, #0
  d8:	0a000005 	beq	f4 <init_module+0xf4>
/home/luojing/share/projects/2014-01-16/trustzone/tz_driver/tz_driver.c:305
  dc:	e59f0070 	ldr	r0, [pc, #112]	; 154 <init_module+0x154>
  e0:	ebfffffe 	bl	0 <printk>
/home/luojing/share/projects/2014-01-16/trustzone/tz_driver/tz_driver.c:316
  e4:	e5941040 	ldr	r1, [r4, #64]	; 0x40
  e8:	e594003c 	ldr	r0, [r4, #60]	; 0x3c
  ec:	ebfffffe 	bl	0 <device_destroy>
  f0:	ea000002 	b	100 <init_module+0x100>
/home/luojing/share/projects/2014-01-16/trustzone/tz_driver/tz_driver.c:308
  f4:	e59f005c 	ldr	r0, [pc, #92]	; 158 <init_module+0x158>
  f8:	ebfffffe 	bl	0 <printk>
/home/luojing/share/projects/2014-01-16/trustzone/tz_driver/tz_driver.c:310
  fc:	ea000006 	b	11c <init_module+0x11c>
/home/luojing/share/projects/2014-01-16/trustzone/tz_driver/tz_driver.c:318
 100:	e59f3024 	ldr	r3, [pc, #36]	; 12c <init_module+0x12c>
 104:	e593003c 	ldr	r0, [r3, #60]	; 0x3c
 108:	ebfffffe 	bl	0 <class_destroy>
/home/luojing/share/projects/2014-01-16/trustzone/tz_driver/tz_driver.c:320
 10c:	e59f3018 	ldr	r3, [pc, #24]	; 12c <init_module+0x12c>
 110:	e3a01001 	mov	r1, #1
 114:	e5930040 	ldr	r0, [r3, #64]	; 0x40
 118:	ebfffffe 	bl	0 <unregister_chrdev_region>
/home/luojing/share/projects/2014-01-16/trustzone/tz_driver/tz_driver.c:323
 11c:	e1a00006 	mov	r0, r6
 120:	e24bd018 	sub	sp, fp, #24
 124:	e89da870 	ldm	sp, {r4, r5, r6, fp, sp, pc}
 128:	000000c5 	andeq	r0, r0, r5, asr #1
 12c:	00000000 	andeq	r0, r0, r0
 130:	000000aa 	andeq	r0, r0, sl, lsr #1
 134:	000000d6 	ldrdeq	r0, [r0], -r6
 138:	000000f7 	strdeq	r0, [r0], -r7
 13c:	00000000 	andeq	r0, r0, r0
 140:	00000114 	andeq	r0, r0, r4, lsl r1
 144:	0000012e 	andeq	r0, r0, lr, lsr #2
 148:	00000144 	andeq	r0, r0, r4, asr #2
 14c:	0000015f 	andeq	r0, r0, pc, asr r1
 150:	00000000 	andeq	r0, r0, r0
 154:	00000176 	andeq	r0, r0, r6, ror r1
 158:	0000018c 	andeq	r0, r0, ip, lsl #3

Disassembly of section .modinfo:

00000000 <__mod_description342>:
   0:	63736564 	cmnvs	r3, #419430400	; 0x19000000
   4:	74706972 	ldrbtvc	r6, [r0], #-2418	; 0x972
   8:	3d6e6f69 	stclcc	15, cr6, [lr, #-420]!	; 0xfffffe5c
   c:	534f2d54 	movtpl	r2, #64852	; 0xfd54
  10:	55525420 	ldrbpl	r5, [r2, #-1056]	; 0x420
  14:	4f5a5453 	svcmi	0x005a5453
  18:	4420454e 	strtmi	r4, [r0], #-1358	; 0x54e
  1c:	45564952 	ldrbmi	r4, [r6, #-2386]	; 0x952
  20:	00000052 	andeq	r0, r0, r2, asr r0

00000024 <__mod_license341>:
  24:	6563696c 	strbvs	r6, [r3, #-2412]!	; 0x96c
  28:	3d65736e 	stclcc	3, cr7, [r5, #-440]!	; 0xfffffe48
  2c:	6c617544 	cfstr64vs	mvdx7, [r1], #-272	; 0xfffffef0
  30:	44534220 	ldrbmi	r4, [r3], #-544	; 0x220
  34:	4c50472f 	mrrcmi	7, 2, r4, r0, cr15
  38:	00000000 	andeq	r0, r0, r0

0000003c <__module_depends>:
  3c:	65706564 	ldrbvs	r6, [r0, #-1380]!	; 0x564
  40:	3d73646e 	cfldrdcc	mvd6, [r3, #-440]!	; 0xfffffe48
  44:	00000000 	andeq	r0, r0, r0

00000048 <__mod_vermagic5>:
  48:	6d726576 	cfldr64vs	mvdx6, [r2, #-472]!	; 0xfffffe28
  4c:	63696761 	cmnvs	r9, #25427968	; 0x1840000
  50:	362e323d 	undefined instruction 0x362e323d
  54:	2e32332e 	cdpcs	3, 3, cr3, cr2, cr14, {1}
  58:	72702039 	rsbsvc	r2, r0, #57	; 0x39
  5c:	706d6565 	rsbvc	r6, sp, r5, ror #10
  60:	6f6d2074 	svcvs	0x006d2074
  64:	6e755f64 	cdpvs	15, 7, cr5, cr5, cr4, {3}
  68:	64616f6c 	strbtvs	r6, [r1], #-3948	; 0xf6c
  6c:	4d524120 	ldfmie	f4, [r2, #-128]	; 0xffffff80
  70:	00203776 	eoreq	r3, r0, r6, ror r7
